   1              		.cpu arm7tdmi
   2              		.fpu softvfp
   3              		.eabi_attribute 20, 1
   4              		.eabi_attribute 21, 1
   5              		.eabi_attribute 23, 3
   6              		.eabi_attribute 24, 1
   7              		.eabi_attribute 25, 1
   8              		.eabi_attribute 26, 1
   9              		.eabi_attribute 30, 6
  10              		.eabi_attribute 18, 4
  11              		.file	"main.c"
  21              	.Ltext0:
  22              		.file 1 "../main.c"
 3017              		.align	2
 3018              		.global	Main
 3020              	Main:
 3021              	.LFB2:
   1:../main.c     **** /*
   2:../main.c     ****  * Asignatura: Proyecto hardware
   3:../main.c     ****  * Fecha: 10/11/2025
   4:../main.c     ****  * Autores: Claudia Mateo Cuellar 971961
   5:../main.c     ****  * Archivo: main.c
   6:../main.c     ****  * Descripción: Programa principal
   7:../main.c     ****  */
   8:../main.c     **** 
   9:../main.c     **** #include "8led.h"
  10:../main.c     **** #include "button.h"
  11:../main.c     **** #include "led.h"
  12:../main.c     **** #include "timer.h"
  13:../main.c     **** #include "timer1.h"
  14:../main.c     **** #include "timer2.h"
  15:../main.c     **** #include "44blib.h"
  16:../main.c     **** #include "44b.h"
  17:../main.c     **** #include "cola.h"
  18:../main.c     **** #include "tableros.h"
  19:../main.c     **** #include <stdint.h>
  20:../main.c     **** #include "lcd.h"		/* Añadir este include */
  21:../main.c     **** #include "tp.h"			/* Para calibración touchscreen */
  22:../main.c     **** #include "sudoku_lcd.h" /* Para funciones de pantalla de Sudoku */
  23:../main.c     **** 
  24:../main.c     **** /*--- function declare ---*/
  25:../main.c     **** void Main(void);
  26:../main.c     **** 
  27:../main.c     **** /*--- extern function ---*/
  28:../main.c     **** extern void Lcd_Test();
  29:../main.c     **** 
  30:../main.c     **** /*--- function code ---*/
  31:../main.c     **** /*********************************************************************************************
  32:../main.c     ****  * name:		main
  33:../main.c     ****  * func:		c code entry
  34:../main.c     ****  * para:		none
  35:../main.c     ****  * ret:		none
  36:../main.c     ****  * modify:
  37:../main.c     ****  * comment:
  38:../main.c     ****  *********************************************************************************************/
  39:../main.c     **** void Main(void)
  40:../main.c     **** {
 3022              		.loc 1 40 0
 3023              		.cfi_startproc
 3024              		@ Function supports interworking.
 3025              		@ args = 0, pretend = 0, frame = 0
 3026              		@ frame_needed = 1, uses_anonymous_args = 0
 3027 0000 0DC0A0E1 		mov	ip, sp
 3028              	.LCFI0:
 3029              		.cfi_def_cfa_register 12
 3030 0004 00D82DE9 		stmfd	sp!, {fp, ip, lr, pc}
 3031 0008 04B04CE2 		sub	fp, ip, #4
 3032              		.cfi_offset 14, -8
 3033              		.cfi_offset 13, -12
 3034              		.cfi_offset 11, -16
 3035              	.LCFI1:
 3036              		.cfi_def_cfa 11, 4
  41:../main.c     **** 	sys_init(); /* Initial 44B0X's Interrupt, Port and UART */
 3037              		.loc 1 41 0
 3038 000c FEFFFFEB 		bl	sys_init
  42:../main.c     **** 
  43:../main.c     **** 	/* Inicializar LCD pero NO llamar a Lcd_Test() */
  44:../main.c     **** 	Lcd_Init();		  /* Solo inicializar el hardware del LCD */
 3039              		.loc 1 44 0
 3040 0010 FEFFFFEB 		bl	Lcd_Init
  45:../main.c     **** 	Lcd_Clr();		  /* Limpiar pantalla */
 3041              		.loc 1 45 0
 3042 0014 FEFFFFEB 		bl	Lcd_Clr
  46:../main.c     **** 	Lcd_Active_Clr(); /* Limpiar buffer activo */
 3043              		.loc 1 46 0
 3044 0018 FEFFFFEB 		bl	Lcd_Active_Clr
  47:../main.c     **** 
  48:../main.c     **** 	Eint4567_init();
 3045              		.loc 1 48 0
 3046 001c FEFFFFEB 		bl	Eint4567_init
  49:../main.c     **** 	D8Led_init();
 3047              		.loc 1 49 0
 3048 0020 FEFFFFEB 		bl	D8Led_init
  50:../main.c     **** 	timer_init();
 3049              		.loc 1 50 0
 3050 0024 FEFFFFEB 		bl	timer_init
  51:../main.c     **** 	timer1_init();
 3051              		.loc 1 51 0
 3052 0028 FEFFFFEB 		bl	timer1_init
  52:../main.c     **** 	timer2_init();
 3053              		.loc 1 52 0
 3054 002c FEFFFFEB 		bl	timer2_init
  53:../main.c     **** 	timer2_start();
 3055              		.loc 1 53 0
 3056 0030 FEFFFFEB 		bl	timer2_start
  54:../main.c     **** 	cola_init();
 3057              		.loc 1 54 0
 3058 0034 FEFFFFEB 		bl	cola_init
  55:../main.c     **** 	leds_off();
 3059              		.loc 1 55 0
 3060 0038 FEFFFFEB 		bl	leds_off
  56:../main.c     **** 
  57:../main.c     **** 	/* ============================================
  58:../main.c     **** 	 * OPCIÓN 1: TEST DE CALIBRACIÓN TOUCHSCREEN
  59:../main.c     **** 	 * Comenta esta línea y descomenta el while(1) de abajo
  60:../main.c     **** 	 * para volver a tu aplicación normal
  61:../main.c     **** 	 * ============================================ */
  62:../main.c     **** 
  63:../main.c     **** 	TS_init(); // Inicializar touchscreen
 3061              		.loc 1 63 0
 3062 003c FEFFFFEB 		bl	TS_init
  64:../main.c     **** 
  65:../main.c     **** 	// Calibrar touchscreen (retorna después de calibrar)
  66:../main.c     **** 	ts_test_calibracion();
 3063              		.loc 1 66 0
 3064 0040 FEFFFFEB 		bl	ts_test_calibracion
  67:../main.c     **** 
  68:../main.c     **** 	// Mostrar pantalla de instrucciones
  69:../main.c     **** 	sudoku_mostrar_pantalla_inicial();
 3065              		.loc 1 69 0
 3066 0044 FEFFFFEB 		bl	sudoku_mostrar_pantalla_inicial
 3067              	.L2:
  70:../main.c     **** 
  71:../main.c     **** 	// Esperar a que presione un botón para continuar
  72:../main.c     **** 	// (esto lo maneja la máquina de estados)
  73:../main.c     **** 
  74:../main.c     **** 	/* ============================================
  75:../main.c     **** 	 * APLICACIÓN SUDOKU CON TOUCHSCREEN
  76:../main.c     **** 	 * ============================================ */
  77:../main.c     **** 	while (1)
  78:../main.c     **** 	{
  79:../main.c     **** 		procesar_maquina_estados_botones();
 3068              		.loc 1 79 0 discriminator 1
 3069 0048 FEFFFFEB 		bl	procesar_maquina_estados_botones
  80:../main.c     **** 		procesar_touchscreen_sudoku();
 3070              		.loc 1 80 0 discriminator 1
 3071 004c FEFFFFEB 		bl	procesar_touchscreen_sudoku
  81:../main.c     **** 	}
 3072              		.loc 1 81 0 discriminator 1
 3073 0050 FCFFFFEA 		b	.L2
 3074              		.cfi_endproc
 3075              	.LFE2:
 3077              	.Letext0: