
practica3.elf:     file format elf32-littlearm

Sections:
Idx Name          Size      VMA       LMA       File off  Algn
  0 .text         00007750  0c000000  0c000000  00008000  2**2
                  CONTENTS, ALLOC, LOAD, READONLY, CODE
  1 .data         00000e20  0c007760  0c007760  0000f760  2**5
                  CONTENTS, ALLOC, LOAD, DATA
  2 .rodata       00001554  0c008580  0c008580  00010580  2**2
                  CONTENTS, ALLOC, LOAD, READONLY, DATA
  3 .bss          000000e8  0c009ad4  0c009ad4  00011ad4  2**2
                  ALLOC
  4 .ARM.attributes 0000002e  00000000  00000000  00011ad4  2**0
                  CONTENTS, READONLY
  5 .comment      0000002a  00000000  00000000  00011b02  2**0
                  CONTENTS, READONLY
  6 .debug_info   0000257f  00000000  00000000  00011b2c  2**0
                  CONTENTS, READONLY, DEBUGGING
  7 .debug_line   00001eb7  00000000  00000000  000140ab  2**0
                  CONTENTS, READONLY, DEBUGGING
  8 .debug_abbrev 00000c9e  00000000  00000000  00015f62  2**0
                  CONTENTS, READONLY, DEBUGGING
  9 .debug_frame  00000cfc  00000000  00000000  00016c00  2**2
                  CONTENTS, READONLY, DEBUGGING
 10 .debug_aranges 00000200  00000000  00000000  00017900  2**3
                  CONTENTS, READONLY, DEBUGGING
 11 .debug_macinfo 0004eee8  00000000  00000000  00017b00  2**0
                  CONTENTS, READONLY, DEBUGGING
 12 .debug_loc    00000fa4  00000000  00000000  000669e8  2**0
                  CONTENTS, READONLY, DEBUGGING
 13 .debug_pubnames 00000772  00000000  00000000  0006798c  2**0
                  CONTENTS, READONLY, DEBUGGING
 14 .debug_pubtypes 000001ff  00000000  00000000  000680fe  2**0
                  CONTENTS, READONLY, DEBUGGING
 15 .debug_str    00000c82  00000000  00000000  000682fd  2**0
                  CONTENTS, READONLY, DEBUGGING

Disassembly of section .text:

0c000000 <ENTRY>:
    .extern Main			/* The main entry of mon program */
    
    .text

    ENTRY:
    b ResetHandler			/* for debug            */
 c000000:	ea00010a 	b	c000430 <ResetHandler>
    b HandlerUndef      	/* handlerUndef         */
 c000004:	ea000042 	b	c000114 <HandlerUndef>
    b HandlerSWI        	/* SWI interrupt handler*/
 c000008:	ea000047 	b	c00012c <HandlerSWI>
    b HandlerPabort     	/* handlerPAbort        */
 c00000c:	ea000052 	b	c00015c <HandlerPabort>
    b HandlerDabort     	/* handlerDAbort        */
 c000010:	ea00004b 	b	c000144 <HandlerDabort>
    b .                 	/* handlerReserved      */
 c000014:	eafffffe 	b	c000014 <ENTRY+0x14>
    b HandlerIRQ
 c000018:	ea000037 	b	c0000fc <HandlerIRQ>
    b HandlerFIQ
 c00001c:	ea000030 	b	c0000e4 <HandlerFIQ>

0c000020 <VECTOR_BRANCH>:
	#be changed like below, to work-around with H/W bug of S3C44B0X interrupt controller. 
	# b HandlerIRQ  ->  subs pc,lr,#4
	# b HandlerIRQ  ->  subs pc,lr,#4

VECTOR_BRANCH:
    ldr pc,=HandlerEINT0    /*mGA    H/W interrupt vector table  */
 c000020:	e59ff56c 	ldr	pc, [pc, #1388]	; c000594 <U0+0x14>
    ldr pc,=HandlerEINT1    /*	                                 */	
 c000024:	e59ff56c 	ldr	pc, [pc, #1388]	; c000598 <U0+0x18>
    ldr pc,=HandlerEINT2    /*                                   */  
 c000028:	e59ff56c 	ldr	pc, [pc, #1388]	; c00059c <U0+0x1c>
    ldr pc,=HandlerEINT3    /*                                   */  
 c00002c:	e59ff56c 	ldr	pc, [pc, #1388]	; c0005a0 <U0+0x20>
    ldr pc,=HandlerEINT4567 /*                                   */  
 c000030:	e59ff56c 	ldr	pc, [pc, #1388]	; c0005a4 <U0+0x24>
    ldr pc,=HandlerTICK	    /*mGA                                */   
 c000034:	e59ff56c 	ldr	pc, [pc, #1388]	; c0005a8 <U0+0x28>
    b .                                                          
 c000038:	eafffffe 	b	c000038 <VECTOR_BRANCH+0x18>
    b .                                                         
 c00003c:	eafffffe 	b	c00003c <VECTOR_BRANCH+0x1c>
    ldr pc,=HandlerZDMA0    /*mGB                                */  
 c000040:	e59ff564 	ldr	pc, [pc, #1380]	; c0005ac <U0+0x2c>
    ldr pc,=HandlerZDMA1    /*                                   */  
 c000044:	e59ff564 	ldr	pc, [pc, #1380]	; c0005b0 <U0+0x30>
    ldr pc,=HandlerBDMA0    /*                                   */  
 c000048:	e59ff564 	ldr	pc, [pc, #1380]	; c0005b4 <U0+0x34>
    ldr pc,=HandlerBDMA1    /*                                   */  
 c00004c:	e59ff564 	ldr	pc, [pc, #1380]	; c0005b8 <U0+0x38>
    ldr pc,=HandlerWDT	    /*                                   */   
 c000050:	e59ff564 	ldr	pc, [pc, #1380]	; c0005bc <U0+0x3c>
    ldr pc,=HandlerUERR01   /*mGB                                */  
 c000054:	e59ff564 	ldr	pc, [pc, #1380]	; c0005c0 <U0+0x40>
    b .                                                          
 c000058:	eafffffe 	b	c000058 <VECTOR_BRANCH+0x38>
    b .                                                          
 c00005c:	eafffffe 	b	c00005c <VECTOR_BRANCH+0x3c>
    ldr pc,=HandlerTIMER0   /*mGC                                */  
 c000060:	e59ff55c 	ldr	pc, [pc, #1372]	; c0005c4 <U0+0x44>
    ldr pc,=HandlerTIMER1   /*                                   */  
 c000064:	e59ff55c 	ldr	pc, [pc, #1372]	; c0005c8 <U0+0x48>
    ldr pc,=HandlerTIMER2   /*                                   */  
 c000068:	e59ff55c 	ldr	pc, [pc, #1372]	; c0005cc <U0+0x4c>
    ldr pc,=HandlerTIMER3   /*                                   */  
 c00006c:	e59ff55c 	ldr	pc, [pc, #1372]	; c0005d0 <U0+0x50>
    ldr pc,=HandlerTIMER4   /*                                   */  
 c000070:	e59ff55c 	ldr	pc, [pc, #1372]	; c0005d4 <U0+0x54>
    ldr pc,=HandlerTIMER5   /*mGC                                */  
 c000074:	e59ff55c 	ldr	pc, [pc, #1372]	; c0005d8 <U0+0x58>
    b .                                                          
 c000078:	eafffffe 	b	c000078 <VECTOR_BRANCH+0x58>
    b .                                                          
 c00007c:	eafffffe 	b	c00007c <VECTOR_BRANCH+0x5c>
    ldr pc,=HandlerURXD0    /*mGD                                */  
 c000080:	e59ff554 	ldr	pc, [pc, #1364]	; c0005dc <U0+0x5c>
    ldr pc,=HandlerURXD1    /*                                   */  
 c000084:	e59ff554 	ldr	pc, [pc, #1364]	; c0005e0 <U0+0x60>
    ldr pc,=HandlerIIC	    /*                                   */   
 c000088:	e59ff554 	ldr	pc, [pc, #1364]	; c0005e4 <U0+0x64>
    ldr pc,=HandlerSIO	    /*                                   */   
 c00008c:	e59ff554 	ldr	pc, [pc, #1364]	; c0005e8 <U0+0x68>
    ldr pc,=HandlerUTXD0    /*                                   */  
 c000090:	e59ff554 	ldr	pc, [pc, #1364]	; c0005ec <U0+0x6c>
    ldr pc,=HandlerUTXD1    /*mGD                                */  
 c000094:	e59ff554 	ldr	pc, [pc, #1364]	; c0005f0 <U0+0x70>
    b .                                                          
 c000098:	eafffffe 	b	c000098 <VECTOR_BRANCH+0x78>
    b .                                                          
 c00009c:	eafffffe 	b	c00009c <VECTOR_BRANCH+0x7c>
    ldr pc,=HandlerRTC	    /*mGKA                               */   
 c0000a0:	e59ff54c 	ldr	pc, [pc, #1356]	; c0005f4 <U0+0x74>
    b .					    /*                     		         */
 c0000a4:	eafffffe 	b	c0000a4 <VECTOR_BRANCH+0x84>
    b .					    /*                     		         */
 c0000a8:	eafffffe 	b	c0000a8 <VECTOR_BRANCH+0x88>
    b .					    /*                     		         */
 c0000ac:	eafffffe 	b	c0000ac <VECTOR_BRANCH+0x8c>
    b .					    /*                     		         */
 c0000b0:	eafffffe 	b	c0000b0 <VECTOR_BRANCH+0x90>
    b .					    /*mGKA                 			     */
 c0000b4:	eafffffe 	b	c0000b4 <VECTOR_BRANCH+0x94>
    b .                                                          
 c0000b8:	eafffffe 	b	c0000b8 <VECTOR_BRANCH+0x98>
    b .                                                          
 c0000bc:	eafffffe 	b	c0000bc <VECTOR_BRANCH+0x9c>
    ldr pc,=HandlerADC	    /*mGKB                               */  
 c0000c0:	e59ff530 	ldr	pc, [pc, #1328]	; c0005f8 <U0+0x78>
    b .					    /*                     		         */
 c0000c4:	eafffffe 	b	c0000c4 <VECTOR_BRANCH+0xa4>
    b .					    /*                     		         */
 c0000c8:	eafffffe 	b	c0000c8 <VECTOR_BRANCH+0xa8>
    b .					    /*                     		         */
 c0000cc:	eafffffe 	b	c0000cc <VECTOR_BRANCH+0xac>
    b .					    /*                     		         */
 c0000d0:	eafffffe 	b	c0000d0 <VECTOR_BRANCH+0xb0>
    b .					    /*mGKB                 		         */
 c0000d4:	eafffffe 	b	c0000d4 <VECTOR_BRANCH+0xb4>
    b .                                                          
 c0000d8:	eafffffe 	b	c0000d8 <VECTOR_BRANCH+0xb8>
    b .                                                          
 c0000dc:	eafffffe 	b	c0000dc <VECTOR_BRANCH+0xbc>
@0xe0=EnterPWDN                                                 
    ldr pc,=EnterPWDN
 c0000e0:	e59ff514 	ldr	pc, [pc, #1300]	; c0005fc <U0+0x7c>

0c0000e4 <HandlerFIQ>:
               to be dumped into the current section\ 
               (which is assumed to be the .text section)\ 
               at the current location (aligned to a word boundary).*/
   .align

HandlerFIQ:		HANDLER HandleFIQ
 c0000e4:	e24dd004 	sub	sp, sp, #4
 c0000e8:	e52d0004 	push	{r0}		; (str r0, [sp, #-4]!)
 c0000ec:	e59f050c 	ldr	r0, [pc, #1292]	; c000600 <U0+0x80>
 c0000f0:	e5900000 	ldr	r0, [r0]
 c0000f4:	e58d0004 	str	r0, [sp, #4]
 c0000f8:	e8bd8001 	pop	{r0, pc}

0c0000fc <HandlerIRQ>:
HandlerIRQ:		HANDLER HandleIRQ
 c0000fc:	e24dd004 	sub	sp, sp, #4
 c000100:	e52d0004 	push	{r0}		; (str r0, [sp, #-4]!)
 c000104:	e59f04f8 	ldr	r0, [pc, #1272]	; c000604 <U0+0x84>
 c000108:	e5900000 	ldr	r0, [r0]
 c00010c:	e58d0004 	str	r0, [sp, #4]
 c000110:	e8bd8001 	pop	{r0, pc}

0c000114 <HandlerUndef>:
HandlerUndef:	HANDLER HandleUndef
 c000114:	e24dd004 	sub	sp, sp, #4
 c000118:	e52d0004 	push	{r0}		; (str r0, [sp, #-4]!)
 c00011c:	e59f04e4 	ldr	r0, [pc, #1252]	; c000608 <U0+0x88>
 c000120:	e5900000 	ldr	r0, [r0]
 c000124:	e58d0004 	str	r0, [sp, #4]
 c000128:	e8bd8001 	pop	{r0, pc}

0c00012c <HandlerSWI>:
HandlerSWI:		HANDLER HandleSWI
 c00012c:	e24dd004 	sub	sp, sp, #4
 c000130:	e52d0004 	push	{r0}		; (str r0, [sp, #-4]!)
 c000134:	e59f04d0 	ldr	r0, [pc, #1232]	; c00060c <U0+0x8c>
 c000138:	e5900000 	ldr	r0, [r0]
 c00013c:	e58d0004 	str	r0, [sp, #4]
 c000140:	e8bd8001 	pop	{r0, pc}

0c000144 <HandlerDabort>:
HandlerDabort:	HANDLER HandleDabort
 c000144:	e24dd004 	sub	sp, sp, #4
 c000148:	e52d0004 	push	{r0}		; (str r0, [sp, #-4]!)
 c00014c:	e59f04bc 	ldr	r0, [pc, #1212]	; c000610 <U0+0x90>
 c000150:	e5900000 	ldr	r0, [r0]
 c000154:	e58d0004 	str	r0, [sp, #4]
 c000158:	e8bd8001 	pop	{r0, pc}

0c00015c <HandlerPabort>:
HandlerPabort:	HANDLER HandlePabort
 c00015c:	e24dd004 	sub	sp, sp, #4
 c000160:	e52d0004 	push	{r0}		; (str r0, [sp, #-4]!)
 c000164:	e59f04a8 	ldr	r0, [pc, #1192]	; c000614 <U0+0x94>
 c000168:	e5900000 	ldr	r0, [r0]
 c00016c:	e58d0004 	str	r0, [sp, #4]
 c000170:	e8bd8001 	pop	{r0, pc}

0c000174 <HandlerADC>:
HandlerADC:		HANDLER HandleADC
 c000174:	e24dd004 	sub	sp, sp, #4
 c000178:	e52d0004 	push	{r0}		; (str r0, [sp, #-4]!)
 c00017c:	e59f0494 	ldr	r0, [pc, #1172]	; c000618 <U0+0x98>
 c000180:	e5900000 	ldr	r0, [r0]
 c000184:	e58d0004 	str	r0, [sp, #4]
 c000188:	e8bd8001 	pop	{r0, pc}

0c00018c <HandlerRTC>:
HandlerRTC:		HANDLER HandleRTC
 c00018c:	e24dd004 	sub	sp, sp, #4
 c000190:	e52d0004 	push	{r0}		; (str r0, [sp, #-4]!)
 c000194:	e59f0480 	ldr	r0, [pc, #1152]	; c00061c <U0+0x9c>
 c000198:	e5900000 	ldr	r0, [r0]
 c00019c:	e58d0004 	str	r0, [sp, #4]
 c0001a0:	e8bd8001 	pop	{r0, pc}

0c0001a4 <HandlerUTXD1>:
HandlerUTXD1:	HANDLER HandleUTXD1
 c0001a4:	e24dd004 	sub	sp, sp, #4
 c0001a8:	e52d0004 	push	{r0}		; (str r0, [sp, #-4]!)
 c0001ac:	e59f046c 	ldr	r0, [pc, #1132]	; c000620 <U0+0xa0>
 c0001b0:	e5900000 	ldr	r0, [r0]
 c0001b4:	e58d0004 	str	r0, [sp, #4]
 c0001b8:	e8bd8001 	pop	{r0, pc}

0c0001bc <HandlerUTXD0>:
HandlerUTXD0:	HANDLER HandleUTXD0
 c0001bc:	e24dd004 	sub	sp, sp, #4
 c0001c0:	e52d0004 	push	{r0}		; (str r0, [sp, #-4]!)
 c0001c4:	e59f0458 	ldr	r0, [pc, #1112]	; c000624 <U0+0xa4>
 c0001c8:	e5900000 	ldr	r0, [r0]
 c0001cc:	e58d0004 	str	r0, [sp, #4]
 c0001d0:	e8bd8001 	pop	{r0, pc}

0c0001d4 <HandlerSIO>:
HandlerSIO:		HANDLER HandleSIO
 c0001d4:	e24dd004 	sub	sp, sp, #4
 c0001d8:	e52d0004 	push	{r0}		; (str r0, [sp, #-4]!)
 c0001dc:	e59f0444 	ldr	r0, [pc, #1092]	; c000628 <U0+0xa8>
 c0001e0:	e5900000 	ldr	r0, [r0]
 c0001e4:	e58d0004 	str	r0, [sp, #4]
 c0001e8:	e8bd8001 	pop	{r0, pc}

0c0001ec <HandlerIIC>:
HandlerIIC:		HANDLER HandleIIC
 c0001ec:	e24dd004 	sub	sp, sp, #4
 c0001f0:	e52d0004 	push	{r0}		; (str r0, [sp, #-4]!)
 c0001f4:	e59f0430 	ldr	r0, [pc, #1072]	; c00062c <U0+0xac>
 c0001f8:	e5900000 	ldr	r0, [r0]
 c0001fc:	e58d0004 	str	r0, [sp, #4]
 c000200:	e8bd8001 	pop	{r0, pc}

0c000204 <HandlerURXD1>:
HandlerURXD1:	HANDLER HandleURXD1
 c000204:	e24dd004 	sub	sp, sp, #4
 c000208:	e52d0004 	push	{r0}		; (str r0, [sp, #-4]!)
 c00020c:	e59f041c 	ldr	r0, [pc, #1052]	; c000630 <U0+0xb0>
 c000210:	e5900000 	ldr	r0, [r0]
 c000214:	e58d0004 	str	r0, [sp, #4]
 c000218:	e8bd8001 	pop	{r0, pc}

0c00021c <HandlerURXD0>:
HandlerURXD0:	HANDLER HandleURXD0
 c00021c:	e24dd004 	sub	sp, sp, #4
 c000220:	e52d0004 	push	{r0}		; (str r0, [sp, #-4]!)
 c000224:	e59f0408 	ldr	r0, [pc, #1032]	; c000634 <U0+0xb4>
 c000228:	e5900000 	ldr	r0, [r0]
 c00022c:	e58d0004 	str	r0, [sp, #4]
 c000230:	e8bd8001 	pop	{r0, pc}

0c000234 <HandlerTIMER5>:
HandlerTIMER5:	HANDLER HandleTIMER5
 c000234:	e24dd004 	sub	sp, sp, #4
 c000238:	e52d0004 	push	{r0}		; (str r0, [sp, #-4]!)
 c00023c:	e59f03f4 	ldr	r0, [pc, #1012]	; c000638 <U0+0xb8>
 c000240:	e5900000 	ldr	r0, [r0]
 c000244:	e58d0004 	str	r0, [sp, #4]
 c000248:	e8bd8001 	pop	{r0, pc}

0c00024c <HandlerTIMER4>:
HandlerTIMER4:	HANDLER HandleTIMER4
 c00024c:	e24dd004 	sub	sp, sp, #4
 c000250:	e52d0004 	push	{r0}		; (str r0, [sp, #-4]!)
 c000254:	e59f03e0 	ldr	r0, [pc, #992]	; c00063c <U0+0xbc>
 c000258:	e5900000 	ldr	r0, [r0]
 c00025c:	e58d0004 	str	r0, [sp, #4]
 c000260:	e8bd8001 	pop	{r0, pc}

0c000264 <HandlerTIMER3>:
HandlerTIMER3:	HANDLER HandleTIMER3
 c000264:	e24dd004 	sub	sp, sp, #4
 c000268:	e52d0004 	push	{r0}		; (str r0, [sp, #-4]!)
 c00026c:	e59f03cc 	ldr	r0, [pc, #972]	; c000640 <U0+0xc0>
 c000270:	e5900000 	ldr	r0, [r0]
 c000274:	e58d0004 	str	r0, [sp, #4]
 c000278:	e8bd8001 	pop	{r0, pc}

0c00027c <HandlerTIMER2>:
HandlerTIMER2:	HANDLER HandleTIMER2
 c00027c:	e24dd004 	sub	sp, sp, #4
 c000280:	e52d0004 	push	{r0}		; (str r0, [sp, #-4]!)
 c000284:	e59f03b8 	ldr	r0, [pc, #952]	; c000644 <U0+0xc4>
 c000288:	e5900000 	ldr	r0, [r0]
 c00028c:	e58d0004 	str	r0, [sp, #4]
 c000290:	e8bd8001 	pop	{r0, pc}

0c000294 <HandlerTIMER1>:
HandlerTIMER1:	HANDLER HandleTIMER1
 c000294:	e24dd004 	sub	sp, sp, #4
 c000298:	e52d0004 	push	{r0}		; (str r0, [sp, #-4]!)
 c00029c:	e59f03a4 	ldr	r0, [pc, #932]	; c000648 <U0+0xc8>
 c0002a0:	e5900000 	ldr	r0, [r0]
 c0002a4:	e58d0004 	str	r0, [sp, #4]
 c0002a8:	e8bd8001 	pop	{r0, pc}

0c0002ac <HandlerTIMER0>:
HandlerTIMER0:	HANDLER HandleTIMER0
 c0002ac:	e24dd004 	sub	sp, sp, #4
 c0002b0:	e52d0004 	push	{r0}		; (str r0, [sp, #-4]!)
 c0002b4:	e59f0390 	ldr	r0, [pc, #912]	; c00064c <U0+0xcc>
 c0002b8:	e5900000 	ldr	r0, [r0]
 c0002bc:	e58d0004 	str	r0, [sp, #4]
 c0002c0:	e8bd8001 	pop	{r0, pc}

0c0002c4 <HandlerUERR01>:
HandlerUERR01:	HANDLER HandleUERR01
 c0002c4:	e24dd004 	sub	sp, sp, #4
 c0002c8:	e52d0004 	push	{r0}		; (str r0, [sp, #-4]!)
 c0002cc:	e59f037c 	ldr	r0, [pc, #892]	; c000650 <U0+0xd0>
 c0002d0:	e5900000 	ldr	r0, [r0]
 c0002d4:	e58d0004 	str	r0, [sp, #4]
 c0002d8:	e8bd8001 	pop	{r0, pc}

0c0002dc <HandlerWDT>:
HandlerWDT:		HANDLER HandleWDT
 c0002dc:	e24dd004 	sub	sp, sp, #4
 c0002e0:	e52d0004 	push	{r0}		; (str r0, [sp, #-4]!)
 c0002e4:	e59f0368 	ldr	r0, [pc, #872]	; c000654 <U0+0xd4>
 c0002e8:	e5900000 	ldr	r0, [r0]
 c0002ec:	e58d0004 	str	r0, [sp, #4]
 c0002f0:	e8bd8001 	pop	{r0, pc}

0c0002f4 <HandlerBDMA1>:
HandlerBDMA1:	HANDLER HandleBDMA1
 c0002f4:	e24dd004 	sub	sp, sp, #4
 c0002f8:	e52d0004 	push	{r0}		; (str r0, [sp, #-4]!)
 c0002fc:	e59f0354 	ldr	r0, [pc, #852]	; c000658 <U0+0xd8>
 c000300:	e5900000 	ldr	r0, [r0]
 c000304:	e58d0004 	str	r0, [sp, #4]
 c000308:	e8bd8001 	pop	{r0, pc}

0c00030c <HandlerBDMA0>:
HandlerBDMA0:	HANDLER HandleBDMA0
 c00030c:	e24dd004 	sub	sp, sp, #4
 c000310:	e52d0004 	push	{r0}		; (str r0, [sp, #-4]!)
 c000314:	e59f0340 	ldr	r0, [pc, #832]	; c00065c <U0+0xdc>
 c000318:	e5900000 	ldr	r0, [r0]
 c00031c:	e58d0004 	str	r0, [sp, #4]
 c000320:	e8bd8001 	pop	{r0, pc}

0c000324 <HandlerZDMA1>:
HandlerZDMA1:	HANDLER HandleZDMA1
 c000324:	e24dd004 	sub	sp, sp, #4
 c000328:	e52d0004 	push	{r0}		; (str r0, [sp, #-4]!)
 c00032c:	e59f032c 	ldr	r0, [pc, #812]	; c000660 <U0+0xe0>
 c000330:	e5900000 	ldr	r0, [r0]
 c000334:	e58d0004 	str	r0, [sp, #4]
 c000338:	e8bd8001 	pop	{r0, pc}

0c00033c <HandlerZDMA0>:
HandlerZDMA0:	HANDLER HandleZDMA0
 c00033c:	e24dd004 	sub	sp, sp, #4
 c000340:	e52d0004 	push	{r0}		; (str r0, [sp, #-4]!)
 c000344:	e59f0318 	ldr	r0, [pc, #792]	; c000664 <U0+0xe4>
 c000348:	e5900000 	ldr	r0, [r0]
 c00034c:	e58d0004 	str	r0, [sp, #4]
 c000350:	e8bd8001 	pop	{r0, pc}

0c000354 <HandlerTICK>:
HandlerTICK:	HANDLER HandleTICK
 c000354:	e24dd004 	sub	sp, sp, #4
 c000358:	e52d0004 	push	{r0}		; (str r0, [sp, #-4]!)
 c00035c:	e59f0304 	ldr	r0, [pc, #772]	; c000668 <U0+0xe8>
 c000360:	e5900000 	ldr	r0, [r0]
 c000364:	e58d0004 	str	r0, [sp, #4]
 c000368:	e8bd8001 	pop	{r0, pc}

0c00036c <HandlerEINT4567>:
HandlerEINT4567:HANDLER HandleEINT4567
 c00036c:	e24dd004 	sub	sp, sp, #4
 c000370:	e52d0004 	push	{r0}		; (str r0, [sp, #-4]!)
 c000374:	e59f02f0 	ldr	r0, [pc, #752]	; c00066c <U0+0xec>
 c000378:	e5900000 	ldr	r0, [r0]
 c00037c:	e58d0004 	str	r0, [sp, #4]
 c000380:	e8bd8001 	pop	{r0, pc}

0c000384 <HandlerEINT3>:
HandlerEINT3:	HANDLER HandleEINT3
 c000384:	e24dd004 	sub	sp, sp, #4
 c000388:	e52d0004 	push	{r0}		; (str r0, [sp, #-4]!)
 c00038c:	e59f02dc 	ldr	r0, [pc, #732]	; c000670 <U0+0xf0>
 c000390:	e5900000 	ldr	r0, [r0]
 c000394:	e58d0004 	str	r0, [sp, #4]
 c000398:	e8bd8001 	pop	{r0, pc}

0c00039c <HandlerEINT2>:
HandlerEINT2:	HANDLER HandleEINT2
 c00039c:	e24dd004 	sub	sp, sp, #4
 c0003a0:	e52d0004 	push	{r0}		; (str r0, [sp, #-4]!)
 c0003a4:	e59f02c8 	ldr	r0, [pc, #712]	; c000674 <U0+0xf4>
 c0003a8:	e5900000 	ldr	r0, [r0]
 c0003ac:	e58d0004 	str	r0, [sp, #4]
 c0003b0:	e8bd8001 	pop	{r0, pc}

0c0003b4 <HandlerEINT1>:
HandlerEINT1:	HANDLER HandleEINT1
 c0003b4:	e24dd004 	sub	sp, sp, #4
 c0003b8:	e52d0004 	push	{r0}		; (str r0, [sp, #-4]!)
 c0003bc:	e59f02b4 	ldr	r0, [pc, #692]	; c000678 <U0+0xf8>
 c0003c0:	e5900000 	ldr	r0, [r0]
 c0003c4:	e58d0004 	str	r0, [sp, #4]
 c0003c8:	e8bd8001 	pop	{r0, pc}

0c0003cc <HandlerEINT0>:
HandlerEINT0:	HANDLER HandleEINT0
 c0003cc:	e24dd004 	sub	sp, sp, #4
 c0003d0:	e52d0004 	push	{r0}		; (str r0, [sp, #-4]!)
 c0003d4:	e59f02a0 	ldr	r0, [pc, #672]	; c00067c <U0+0xfc>
 c0003d8:	e5900000 	ldr	r0, [r0]
 c0003dc:	e58d0004 	str	r0, [sp, #4]
 c0003e0:	e8bd8001 	pop	{r0, pc}

0c0003e4 <IsrIRQ>:

#One of the following two routines can be used for non-vectored interrupt.

IsrIRQ:						/* using I_ISPR register. */
    sub	    sp,sp,#4       	/* reserved for PC	  */
 c0003e4:	e24dd004 	sub	sp, sp, #4
    stmfd   sp!,{r8-r9}   
 c0003e8:	e92d0300 	push	{r8, r9}

#IMPORTANT CAUTION
# when I_ISPC isn't used properly, I_ISPR can be 0 in this routine.

    ldr	    r9,=I_ISPR
 c0003ec:	e59f928c 	ldr	r9, [pc, #652]	; c000680 <U0+0x100>
    ldr	    r9,[r9]
 c0003f0:	e5999000 	ldr	r9, [r9]

	cmp		r9, #0x0		/* If the IDLE mode work-around is used, 	*/
 c0003f4:	e3590000 	cmp	r9, #0
							/* r9 may be 0 sometimes.			*/
	beq		l2
 c0003f8:	0a000009 	beq	c000424 <l2>

    mov	    r8,#0x0
 c0003fc:	e3a08000 	mov	r8, #0

0c000400 <l0>:
l0:
    movs    r9,r9,lsr #1
 c000400:	e1b090a9 	lsrs	r9, r9, #1
    bcs	    l1
 c000404:	2a000001 	bcs	c000410 <l1>
    add	    r8,r8,#4
 c000408:	e2888004 	add	r8, r8, #4
    b	    l0
 c00040c:	eafffffb 	b	c000400 <l0>

0c000410 <l1>:

l1:
    ldr	    r9,=HandleADC
 c000410:	e59f9200 	ldr	r9, [pc, #512]	; c000618 <U0+0x98>
    add	    r9,r9,r8
 c000414:	e0899008 	add	r9, r9, r8
    ldr	    r9,[r9]
 c000418:	e5999000 	ldr	r9, [r9]
    str	    r9,[sp,#8]
 c00041c:	e58d9008 	str	r9, [sp, #8]
    ldmfd   sp!,{r8-r9,pc}
 c000420:	e8bd8300 	pop	{r8, r9, pc}

0c000424 <l2>:

l2:
	ldmfd	sp!,{r8-r9}
 c000424:	e8bd0300 	pop	{r8, r9}
	add		sp,sp,#4
 c000428:	e28dd004 	add	sp, sp, #4
	subs	pc,lr,#4
 c00042c:	e25ef004 	subs	pc, lr, #4

0c000430 <ResetHandler>:

#****************************************************
#*	START											*
#****************************************************
ResetHandler:
    ldr	    r0,=WTCON	    	/* watch dog disable*/
 c000430:	e59f024c 	ldr	r0, [pc, #588]	; c000684 <U0+0x104>
    ldr	    r1,=0x0 		
 c000434:	e3a01000 	mov	r1, #0
    str	    r1,[r0]
 c000438:	e5801000 	str	r1, [r0]

    ldr	    r0,=INTMSK
 c00043c:	e59f0244 	ldr	r0, [pc, #580]	; c000688 <U0+0x108>
    ldr	    r1,=0x07ffffff  	/* all interrupt disable */
 c000440:	e3e0133e 	mvn	r1, #-134217728	; 0xf8000000
    str	    r1,[r0]
 c000444:	e5801000 	str	r1, [r0]

    #****************************************************
    #*	Set clock control registers						*
    #****************************************************
    ldr		r0,=LOCKTIME
 c000448:	e59f023c 	ldr	r0, [pc, #572]	; c00068c <U0+0x10c>
    ldr		r1,=0xfff
 c00044c:	e59f123c 	ldr	r1, [pc, #572]	; c000690 <U0+0x110>
    str		r1,[r0]
 c000450:	e5801000 	str	r1, [r0]

.if PLLONSTART
	ldr		r0,=PLLCON			/* temporary setting of PLL */
 c000454:	e3a00776 	mov	r0, #30932992	; 0x1d80000
	ldr		r1,=((M_DIV<<12)+(P_DIV<<4)+S_DIV)	/* Fin=8MHz,Fout=64MHz     */
 c000458:	e59f1234 	ldr	r1, [pc, #564]	; c000694 <U0+0x114>
	str		r1,[r0]
 c00045c:	e5801000 	str	r1, [r0]
.endif

    ldr	    r0,=CLKCON		
 c000460:	e59f0230 	ldr	r0, [pc, #560]	; c000698 <U0+0x118>
    ldr	    r1,=0x7ff8	    	/* All unit block CLK enable */
 c000464:	e59f1230 	ldr	r1, [pc, #560]	; c00069c <U0+0x11c>
    str	    r1,[r0]
 c000468:	e5801000 	str	r1, [r0]

    #****************************************
    #*  change BDMACON reset value for BDMA *   
    #****************************************
    ldr     r0,=BDIDES0      
 c00046c:	e59f022c 	ldr	r0, [pc, #556]	; c0006a0 <U0+0x120>
    ldr     r1,=0x40000000   	/* BDIDESn reset value should be 0x40000000 */
 c000470:	e3a01101 	mov	r1, #1073741824	; 0x40000000
    str     r1,[r0]
 c000474:	e5801000 	str	r1, [r0]

    ldr     r0,=BDIDES1      
 c000478:	e59f0224 	ldr	r0, [pc, #548]	; c0006a4 <U0+0x124>
    ldr     r1,=0x40000000   	/* BDIDESn reset value should be 0x40000000 */	 
 c00047c:	e3a01101 	mov	r1, #1073741824	; 0x40000000
    str     r1,[r0]
 c000480:	e5801000 	str	r1, [r0]

    #****************************************************
    #*	Set memory control registers					* 	
    #****************************************************
    ldr	    r0,=SMRDATA
 c000484:	e59f021c 	ldr	r0, [pc, #540]	; c0006a8 <U0+0x128>
    ldmia   r0,{r1-r13}
 c000488:	e8903ffe 	ldm	r0, {r1, r2, r3, r4, r5, r6, r7, r8, r9, sl, fp, ip, sp}
    ldr	    r0,=0x01c80000  	/* BWSCON Address */
 c00048c:	e3a00772 	mov	r0, #29884416	; 0x1c80000
    stmia   r0,{r1-r13}
 c000490:	e8803ffe 	stm	r0, {r1, r2, r3, r4, r5, r6, r7, r8, r9, sl, fp, ip, sp}

    #;****************************************************
    #;*	Initialize stacks								* 
    #;****************************************************
    ldr	    sp, =SVCStack		/* Why	*/		
 c000494:	e59fd210 	ldr	sp, [pc, #528]	; c0006ac <U0+0x12c>
    bl	    InitStacks
 c000498:	eb000015 	bl	c0004f4 <InitStacks>

    #;****************************************************
    #;*	Setup IRQ handler								*
    #;****************************************************
    ldr	    r0,=HandleIRQ		/* This routine is needed */
 c00049c:	e59f0160 	ldr	r0, [pc, #352]	; c000604 <U0+0x84>
    ldr	    r1,=IsrIRQ			/* if there isn't 'subs pc,lr,#4' at 0x18, 0x1c */
 c0004a0:	e59f1208 	ldr	r1, [pc, #520]	; c0006b0 <U0+0x130>
    str	    r1,[r0]
 c0004a4:	e5801000 	str	r1, [r0]

    #********************************************************
    #*	Copy and paste RW data/zero initialized data	    *
    #********************************************************
    LDR	    r0, =Image_RO_Limit	/* Get pointer to ROM data */
 c0004a8:	e59f0204 	ldr	r0, [pc, #516]	; c0006b4 <U0+0x134>
    LDR	    r1, =Image_RW_Base	/* and RAM copy	*/
 c0004ac:	e59f1204 	ldr	r1, [pc, #516]	; c0006b8 <U0+0x138>
    LDR	    r3, =Image_ZI_Base	
 c0004b0:	e59f3204 	ldr	r3, [pc, #516]	; c0006bc <U0+0x13c>
	/* Zero init base => top of initialised data */
			
    CMP	    r0, r1	    		/* Check that they are different */
 c0004b4:	e1500001 	cmp	r0, r1
    BEQ	    F1
 c0004b8:	0a000003 	beq	c0004cc <F1>

0c0004bc <F0>:
F0:
    CMP	    r1, r3				/* Copy init data                        */
 c0004bc:	e1510003 	cmp	r1, r3
    LDRCC   r2, [r0], #4        /* --> LDRCC r2, [r0] + ADD r0, r0, #4	 */
 c0004c0:	34902004 	ldrcc	r2, [r0], #4
    STRCC   r2, [r1], #4        /* --> STRCC r2, [r1] + ADD r1, r1, #4   */ 
 c0004c4:	34812004 	strcc	r2, [r1], #4
    BCC	    F0
 c0004c8:	3afffffb 	bcc	c0004bc <F0>

0c0004cc <F1>:
F1:
    LDR	    r1, =Image_ZI_Limit	/* Top of zero init segment */
 c0004cc:	e59f11ec 	ldr	r1, [pc, #492]	; c0006c0 <U0+0x140>
    MOV	    r2, #0
 c0004d0:	e3a02000 	mov	r2, #0

0c0004d4 <F2>:
F2:
    CMP	    r3, r1	    		/* Zero init */
 c0004d4:	e1530001 	cmp	r3, r1
    STRCC   r2, [r3], #4
 c0004d8:	34832004 	strcc	r2, [r3], #4
    BCC	    F2
 c0004dc:	3afffffc 	bcc	c0004d4 <F2>

	MRS	r0, CPSR
 c0004e0:	e10f0000 	mrs	r0, CPSR
	BIC	r0, r0, #NOINT /* enable interrupt */
 c0004e4:	e3c000c0 	bic	r0, r0, #192	; 0xc0
	MSR	CPSR_cxsf, r0
 c0004e8:	e12ff000 	msr	CPSR_fsxc, r0
	/* jump to main() */
   	BL	Main
 c0004ec:	eb0011b5 	bl	c004bc8 <Main>
   	B   .	    
 c0004f0:	eafffffe 	b	c0004f0 <F2+0x1c>

0c0004f4 <InitStacks>:
InitStacks:
	#Don't use DRAM,such as stmfd,ldmfd......
	#SVCstack is initialized before
	#Under toolkit ver 2.50, 'msr cpsr,r1' can be used instead of 'msr cpsr_cxsf,r1'

    mrs	    r0,cpsr
 c0004f4:	e10f0000 	mrs	r0, CPSR
    bic	    r0,r0,#MODEMASK
 c0004f8:	e3c0001f 	bic	r0, r0, #31
    orr	    r1,r0,#UNDEFMODE
 c0004fc:	e380101b 	orr	r1, r0, #27
    msr	    cpsr_cxsf,r1		/* UndefMode */
 c000500:	e12ff001 	msr	CPSR_fsxc, r1
    ldr	    sp,=UndefStack
 c000504:	e59fd1b8 	ldr	sp, [pc, #440]	; c0006c4 <U0+0x144>
	
    orr	    r1,r0,#ABORTMODE|NOINT
 c000508:	e38010d7 	orr	r1, r0, #215	; 0xd7
    msr	    cpsr_cxsf,r1 	    /* AbortMode */	
 c00050c:	e12ff001 	msr	CPSR_fsxc, r1
    ldr	    sp,=AbortStack
 c000510:	e59fd1b0 	ldr	sp, [pc, #432]	; c0006c8 <U0+0x148>

    orr	    r1,r0,#IRQMODE|FIQ_MODE
 c000514:	e3801092 	orr	r1, r0, #146	; 0x92
    msr	    cpsr_cxsf,r1 	    /* IRQMode */
 c000518:	e12ff001 	msr	CPSR_fsxc, r1
    ldr	    sp,=IRQStack
 c00051c:	e59fd1a8 	ldr	sp, [pc, #424]	; c0006cc <U0+0x14c>
	
    orr	    r1,r0,#FIQMODE|IRQ_MODE
 c000520:	e3801051 	orr	r1, r0, #81	; 0x51
    msr	    cpsr_cxsf,r1 	    /* FIQMode */
 c000524:	e12ff001 	msr	CPSR_fsxc, r1
    ldr	    sp,=FIQStack
 c000528:	e59fd1a0 	ldr	sp, [pc, #416]	; c0006d0 <U0+0x150>

    bic	    r0,r0,#MODEMASK
 c00052c:	e3c0001f 	bic	r0, r0, #31
    orr	    r1,r0,#SVCMODE
 c000530:	e3801013 	orr	r1, r0, #19
    msr	    cpsr_cxsf,r1 	    /* SVCMode */
 c000534:	e12ff001 	msr	CPSR_fsxc, r1
    ldr	    sp,=SVCStack
 c000538:	e59fd16c 	ldr	sp, [pc, #364]	; c0006ac <U0+0x12c>

	#USER mode is not initialized.
    mov	    pc,lr 				/* The LR register may be not valid for the mode changes. */
 c00053c:	e1a0f00e 	mov	pc, lr

0c000540 <EnterPWDN>:
#****************************************************
#*	The function for entering power down mode		*
#****************************************************
#void EnterPWDN(int CLKCON);
EnterPWDN:
    mov	    r2,r0               /* r0=CLKCON */
 c000540:	e1a02000 	mov	r2, r0
    ldr	    r0,=REFRESH		
 c000544:	e59f0188 	ldr	r0, [pc, #392]	; c0006d4 <U0+0x154>
    ldr	    r3,[r0]
 c000548:	e5903000 	ldr	r3, [r0]
    mov	    r1, r3
 c00054c:	e1a01003 	mov	r1, r3
    orr	    r1, r1, #0x400000   /* self-refresh enable */
 c000550:	e3811501 	orr	r1, r1, #4194304	; 0x400000
    str	    r1, [r0]
 c000554:	e5801000 	str	r1, [r0]

    nop     /* Wait until self-refresh is issued. May not be needed. */
 c000558:	e1a00000 	nop			; (mov r0, r0)
    nop     /* If the other bus master holds the bus, ... */
 c00055c:	e1a00000 	nop			; (mov r0, r0)
    nop	    /* mov r0, r0 */
 c000560:	e1a00000 	nop			; (mov r0, r0)
    nop
 c000564:	e1a00000 	nop			; (mov r0, r0)
    nop
 c000568:	e1a00000 	nop			; (mov r0, r0)
    nop
 c00056c:	e1a00000 	nop			; (mov r0, r0)
    nop
 c000570:	e1a00000 	nop			; (mov r0, r0)

#enter POWERDN mode
    ldr	    r0,=CLKCON
 c000574:	e59f011c 	ldr	r0, [pc, #284]	; c000698 <U0+0x118>
    str	    r2,[r0]
 c000578:	e5802000 	str	r2, [r0]

#wait until enter SL_IDLE,STOP mode and until wake-up
    ldr	    r0,=0x10
 c00057c:	e3a00010 	mov	r0, #16

0c000580 <U0>:
U0: subs    r0,r0,#1
 c000580:	e2500001 	subs	r0, r0, #1
    bne	    U0
 c000584:	1afffffd 	bne	c000580 <U0>

#exit from DRAM/SDRAM self refresh mode.
    ldr	    r0,=REFRESH
 c000588:	e59f0144 	ldr	r0, [pc, #324]	; c0006d4 <U0+0x154>
    str	    r3,[r0]
 c00058c:	e5803000 	str	r3, [r0]
    mov	    pc,lr
 c000590:	e1a0f00e 	mov	pc, lr
 c000594:	0c0003cc 	.word	0x0c0003cc
 c000598:	0c0003b4 	.word	0x0c0003b4
 c00059c:	0c00039c 	.word	0x0c00039c
 c0005a0:	0c000384 	.word	0x0c000384
 c0005a4:	0c00036c 	.word	0x0c00036c
 c0005a8:	0c000354 	.word	0x0c000354
 c0005ac:	0c00033c 	.word	0x0c00033c
 c0005b0:	0c000324 	.word	0x0c000324
 c0005b4:	0c00030c 	.word	0x0c00030c
 c0005b8:	0c0002f4 	.word	0x0c0002f4
 c0005bc:	0c0002dc 	.word	0x0c0002dc
 c0005c0:	0c0002c4 	.word	0x0c0002c4
 c0005c4:	0c0002ac 	.word	0x0c0002ac
 c0005c8:	0c000294 	.word	0x0c000294
 c0005cc:	0c00027c 	.word	0x0c00027c
 c0005d0:	0c000264 	.word	0x0c000264
 c0005d4:	0c00024c 	.word	0x0c00024c
 c0005d8:	0c000234 	.word	0x0c000234
 c0005dc:	0c00021c 	.word	0x0c00021c
 c0005e0:	0c000204 	.word	0x0c000204
 c0005e4:	0c0001ec 	.word	0x0c0001ec
 c0005e8:	0c0001d4 	.word	0x0c0001d4
 c0005ec:	0c0001bc 	.word	0x0c0001bc
 c0005f0:	0c0001a4 	.word	0x0c0001a4
 c0005f4:	0c00018c 	.word	0x0c00018c
 c0005f8:	0c000174 	.word	0x0c000174
 c0005fc:	0c000540 	.word	0x0c000540
 c000600:	0c7fff1c 	.word	0x0c7fff1c
 c000604:	0c7fff18 	.word	0x0c7fff18
 c000608:	0c7fff04 	.word	0x0c7fff04
 c00060c:	0c7fff08 	.word	0x0c7fff08
 c000610:	0c7fff10 	.word	0x0c7fff10
 c000614:	0c7fff0c 	.word	0x0c7fff0c
 c000618:	0c7fff20 	.word	0x0c7fff20
 c00061c:	0c7fff24 	.word	0x0c7fff24
 c000620:	0c7fff28 	.word	0x0c7fff28
 c000624:	0c7fff2c 	.word	0x0c7fff2c
 c000628:	0c7fff30 	.word	0x0c7fff30
 c00062c:	0c7fff34 	.word	0x0c7fff34
 c000630:	0c7fff38 	.word	0x0c7fff38
 c000634:	0c7fff3c 	.word	0x0c7fff3c
 c000638:	0c7fff40 	.word	0x0c7fff40
 c00063c:	0c7fff44 	.word	0x0c7fff44
 c000640:	0c7fff48 	.word	0x0c7fff48
 c000644:	0c7fff4c 	.word	0x0c7fff4c
 c000648:	0c7fff50 	.word	0x0c7fff50
 c00064c:	0c7fff54 	.word	0x0c7fff54
 c000650:	0c7fff58 	.word	0x0c7fff58
 c000654:	0c7fff5c 	.word	0x0c7fff5c
 c000658:	0c7fff60 	.word	0x0c7fff60
 c00065c:	0c7fff64 	.word	0x0c7fff64
 c000660:	0c7fff68 	.word	0x0c7fff68
 c000664:	0c7fff6c 	.word	0x0c7fff6c
 c000668:	0c7fff70 	.word	0x0c7fff70
 c00066c:	0c7fff74 	.word	0x0c7fff74
 c000670:	0c7fff78 	.word	0x0c7fff78
 c000674:	0c7fff7c 	.word	0x0c7fff7c
 c000678:	0c7fff80 	.word	0x0c7fff80
 c00067c:	0c7fff84 	.word	0x0c7fff84
 c000680:	01e00020 	.word	0x01e00020
 c000684:	01d30000 	.word	0x01d30000
 c000688:	01e0000c 	.word	0x01e0000c
 c00068c:	01d8000c 	.word	0x01d8000c
 c000690:	00000fff 	.word	0x00000fff
 c000694:	00038021 	.word	0x00038021
 c000698:	01d80004 	.word	0x01d80004
 c00069c:	00007ff8 	.word	0x00007ff8
 c0006a0:	01f80008 	.word	0x01f80008
 c0006a4:	01f80028 	.word	0x01f80028
 c0006a8:	0c0006d8 	.word	0x0c0006d8
 c0006ac:	0c7ff100 	.word	0x0c7ff100
 c0006b0:	0c0003e4 	.word	0x0c0003e4
 c0006b4:	0c007750 	.word	0x0c007750
 c0006b8:	0c007750 	.word	0x0c007750
 c0006bc:	0c009ad4 	.word	0x0c009ad4
 c0006c0:	0c009bbc 	.word	0x0c009bbc
 c0006c4:	0c7ff200 	.word	0x0c7ff200
 c0006c8:	0c7ff300 	.word	0x0c7ff300
 c0006cc:	0c7ff400 	.word	0x0c7ff400
 c0006d0:	0c7ff500 	.word	0x0c7ff500
 c0006d4:	01c80024 	.word	0x01c80024

0c0006d8 <SMRDATA>:
 c0006d8:	11110102 	.word	0x11110102
 c0006dc:	00000600 	.word	0x00000600
 c0006e0:	00007ffc 	.word	0x00007ffc
 c0006e4:	00007ffc 	.word	0x00007ffc
 c0006e8:	00007ffc 	.word	0x00007ffc
 c0006ec:	00007ffc 	.word	0x00007ffc
 c0006f0:	00007ffc 	.word	0x00007ffc
 c0006f4:	00018000 	.word	0x00018000
 c0006f8:	00018000 	.word	0x00018000
 c0006fc:	00860459 	.word	0x00860459
 c000700:	00000010 	.word	0x00000010
 c000704:	00000020 	.word	0x00000020
 c000708:	00000020 	.word	0x00000020

0c00070c <Delay>:
void Delay(int time)
// time=0: adjust the Delay function by WatchDog timer
// time>0: the number of loop time
// 100us resolution
// Delay(10) -> 10*100us resolution
{
 c00070c:	e1a0c00d 	mov	ip, sp
 c000710:	e92dd800 	push	{fp, ip, lr, pc}
 c000714:	e24cb004 	sub	fp, ip, #4
 c000718:	e24dd010 	sub	sp, sp, #16
 c00071c:	e50b0018 	str	r0, [fp, #-24]	; 0xffffffe8
	int i,adjust=0;
 c000720:	e3a03000 	mov	r3, #0
 c000724:	e50b3014 	str	r3, [fp, #-20]	; 0xffffffec
	if(time==0)
 c000728:	e51b3018 	ldr	r3, [fp, #-24]	; 0xffffffe8
 c00072c:	e3530000 	cmp	r3, #0
 c000730:	1a000021 	bne	c0007bc <Delay+0xb0>
	{
		time=200;
 c000734:	e3a030c8 	mov	r3, #200	; 0xc8
 c000738:	e50b3018 	str	r3, [fp, #-24]	; 0xffffffe8
		adjust=1;
 c00073c:	e3a03001 	mov	r3, #1
 c000740:	e50b3014 	str	r3, [fp, #-20]	; 0xffffffec
		delayLoopCount=400;
 c000744:	e59f30d8 	ldr	r3, [pc, #216]	; c000824 <Delay+0x118>
 c000748:	e3a02e19 	mov	r2, #400	; 0x190
 c00074c:	e5832000 	str	r2, [r3]
		rWTCON=((MCLK/1000000-1)<<8)|(2<<3);	// 1M/64,Watch-dog,nRESET,interrupt disable//
 c000750:	e59f30d0 	ldr	r3, [pc, #208]	; c000828 <Delay+0x11c>
 c000754:	e59f20d0 	ldr	r2, [pc, #208]	; c00082c <Delay+0x120>
 c000758:	e5832000 	str	r2, [r3]
		rWTDAT=0xffff;
 c00075c:	e59f30cc 	ldr	r3, [pc, #204]	; c000830 <Delay+0x124>
 c000760:	e59f20cc 	ldr	r2, [pc, #204]	; c000834 <Delay+0x128>
 c000764:	e5832000 	str	r2, [r3]
		rWTCNT=0xffff;	 
 c000768:	e59f30c8 	ldr	r3, [pc, #200]	; c000838 <Delay+0x12c>
 c00076c:	e59f20c0 	ldr	r2, [pc, #192]	; c000834 <Delay+0x128>
 c000770:	e5832000 	str	r2, [r3]
		rWTCON=((MCLK/1000000-1)<<8)|(2<<3)|(1<<5); // 1M/64,Watch-dog enable,nRESET,interrupt disable //
 c000774:	e59f30ac 	ldr	r3, [pc, #172]	; c000828 <Delay+0x11c>
 c000778:	e59f20bc 	ldr	r2, [pc, #188]	; c00083c <Delay+0x130>
 c00077c:	e5832000 	str	r2, [r3]
	}
	for(;time>0;time--)
 c000780:	ea00000d 	b	c0007bc <Delay+0xb0>
		for(i=0;i<delayLoopCount;i++);
 c000784:	e3a03000 	mov	r3, #0
 c000788:	e50b3010 	str	r3, [fp, #-16]
 c00078c:	ea000002 	b	c00079c <Delay+0x90>
 c000790:	e51b3010 	ldr	r3, [fp, #-16]
 c000794:	e2833001 	add	r3, r3, #1
 c000798:	e50b3010 	str	r3, [fp, #-16]
 c00079c:	e59f3080 	ldr	r3, [pc, #128]	; c000824 <Delay+0x118>
 c0007a0:	e5933000 	ldr	r3, [r3]
 c0007a4:	e51b2010 	ldr	r2, [fp, #-16]
 c0007a8:	e1520003 	cmp	r2, r3
 c0007ac:	bafffff7 	blt	c000790 <Delay+0x84>
		rWTCON=((MCLK/1000000-1)<<8)|(2<<3);	// 1M/64,Watch-dog,nRESET,interrupt disable//
		rWTDAT=0xffff;
		rWTCNT=0xffff;	 
		rWTCON=((MCLK/1000000-1)<<8)|(2<<3)|(1<<5); // 1M/64,Watch-dog enable,nRESET,interrupt disable //
	}
	for(;time>0;time--)
 c0007b0:	e51b3018 	ldr	r3, [fp, #-24]	; 0xffffffe8
 c0007b4:	e2433001 	sub	r3, r3, #1
 c0007b8:	e50b3018 	str	r3, [fp, #-24]	; 0xffffffe8
 c0007bc:	e51b3018 	ldr	r3, [fp, #-24]	; 0xffffffe8
 c0007c0:	e3530000 	cmp	r3, #0
 c0007c4:	caffffee 	bgt	c000784 <Delay+0x78>
		for(i=0;i<delayLoopCount;i++);
	if(adjust==1)
 c0007c8:	e51b3014 	ldr	r3, [fp, #-20]	; 0xffffffec
 c0007cc:	e3530001 	cmp	r3, #1
 c0007d0:	1a000010 	bne	c000818 <Delay+0x10c>
	{
		rWTCON=((MCLK/1000000-1)<<8)|(2<<3);
 c0007d4:	e59f304c 	ldr	r3, [pc, #76]	; c000828 <Delay+0x11c>
 c0007d8:	e59f204c 	ldr	r2, [pc, #76]	; c00082c <Delay+0x120>
 c0007dc:	e5832000 	str	r2, [r3]
		i=0xffff-rWTCNT;   //  1count/16us?????????//
 c0007e0:	e59f3050 	ldr	r3, [pc, #80]	; c000838 <Delay+0x12c>
 c0007e4:	e5933000 	ldr	r3, [r3]
 c0007e8:	e2633cff 	rsb	r3, r3, #65280	; 0xff00
 c0007ec:	e28330ff 	add	r3, r3, #255	; 0xff
 c0007f0:	e50b3010 	str	r3, [fp, #-16]
		delayLoopCount=8000000/(i*64);	//400*100/(i*64/200)   //
 c0007f4:	e51b3010 	ldr	r3, [fp, #-16]
 c0007f8:	e1a03303 	lsl	r3, r3, #6
 c0007fc:	e59f003c 	ldr	r0, [pc, #60]	; c000840 <Delay+0x134>
 c000800:	e1a01003 	mov	r1, r3
 c000804:	eb001921 	bl	c006c90 <__aeabi_idiv>
 c000808:	e1a03000 	mov	r3, r0
 c00080c:	e1a02003 	mov	r2, r3
 c000810:	e59f300c 	ldr	r3, [pc, #12]	; c000824 <Delay+0x118>
 c000814:	e5832000 	str	r2, [r3]
	}
}
 c000818:	e24bd00c 	sub	sp, fp, #12
 c00081c:	e89d6800 	ldm	sp, {fp, sp, lr}
 c000820:	e12fff1e 	bx	lr
 c000824:	0c007770 	.word	0x0c007770
 c000828:	01d30000 	.word	0x01d30000
 c00082c:	00003f10 	.word	0x00003f10
 c000830:	01d30004 	.word	0x01d30004
 c000834:	0000ffff 	.word	0x0000ffff
 c000838:	01d30008 	.word	0x01d30008
 c00083c:	00003f30 	.word	0x00003f30
 c000840:	007a1200 	.word	0x007a1200

0c000844 <DelayMs>:

void DelayMs(int ms_time)
{
 c000844:	e1a0c00d 	mov	ip, sp
 c000848:	e92dd800 	push	{fp, ip, lr, pc}
 c00084c:	e24cb004 	sub	fp, ip, #4
 c000850:	e24dd010 	sub	sp, sp, #16
 c000854:	e50b0018 	str	r0, [fp, #-24]	; 0xffffffe8
	int i;
	
	for( i = 0 ; i < 1000*ms_time ; i++ )
 c000858:	e3a03000 	mov	r3, #0
 c00085c:	e50b3010 	str	r3, [fp, #-16]
 c000860:	ea000002 	b	c000870 <DelayMs+0x2c>
 c000864:	e51b3010 	ldr	r3, [fp, #-16]
 c000868:	e2833001 	add	r3, r3, #1
 c00086c:	e50b3010 	str	r3, [fp, #-16]
 c000870:	e51b2018 	ldr	r2, [fp, #-24]	; 0xffffffe8
 c000874:	e1a03002 	mov	r3, r2
 c000878:	e1a03283 	lsl	r3, r3, #5
 c00087c:	e0623003 	rsb	r3, r2, r3
 c000880:	e1a03103 	lsl	r3, r3, #2
 c000884:	e0833002 	add	r3, r3, r2
 c000888:	e1a03183 	lsl	r3, r3, #3
 c00088c:	e1a02003 	mov	r2, r3
 c000890:	e51b3010 	ldr	r3, [fp, #-16]
 c000894:	e1520003 	cmp	r2, r3
 c000898:	cafffff1 	bgt	c000864 <DelayMs+0x20>
		;
}
 c00089c:	e24bd00c 	sub	sp, fp, #12
 c0008a0:	e89d6800 	ldm	sp, {fp, sp, lr}
 c0008a4:	e12fff1e 	bx	lr

0c0008a8 <DelayTime>:

void DelayTime(int num)
{
 c0008a8:	e1a0c00d 	mov	ip, sp
 c0008ac:	e92dd800 	push	{fp, ip, lr, pc}
 c0008b0:	e24cb004 	sub	fp, ip, #4
 c0008b4:	e24dd010 	sub	sp, sp, #16
 c0008b8:	e50b0018 	str	r0, [fp, #-24]	; 0xffffffe8
	int i;
	
	for( i = 0 ; i < num ; i++ )
 c0008bc:	e3a03000 	mov	r3, #0
 c0008c0:	e50b3010 	str	r3, [fp, #-16]
 c0008c4:	ea000002 	b	c0008d4 <DelayTime+0x2c>
 c0008c8:	e51b3010 	ldr	r3, [fp, #-16]
 c0008cc:	e2833001 	add	r3, r3, #1
 c0008d0:	e50b3010 	str	r3, [fp, #-16]
 c0008d4:	e51b2010 	ldr	r2, [fp, #-16]
 c0008d8:	e51b3018 	ldr	r3, [fp, #-24]	; 0xffffffe8
 c0008dc:	e1520003 	cmp	r2, r3
 c0008e0:	bafffff8 	blt	c0008c8 <DelayTime+0x20>
		;
}
 c0008e4:	e24bd00c 	sub	sp, fp, #12
 c0008e8:	e89d6800 	ldm	sp, {fp, sp, lr}
 c0008ec:	e12fff1e 	bx	lr

0c0008f0 <Port_Init>:

//------------------------PORTS------------------------------//
void Port_Init(void)
{
 c0008f0:	e1a0c00d 	mov	ip, sp
 c0008f4:	e92dd800 	push	{fp, ip, lr, pc}
 c0008f8:	e24cb004 	sub	fp, ip, #4

	// PORT A GROUP
	// BIT 	9	8	7	6	5	4	3	2	1	0
	// 		A24	A23	A22	A21	A20	A19	A18	A17	A16	A0
	//		0	1	1	1	1	1	1	1	1	1
	rPCONA = 0x1ff;	
 c0008fc:	e59f3100 	ldr	r3, [pc, #256]	; c000a04 <Port_Init+0x114>
 c000900:	e59f2100 	ldr	r2, [pc, #256]	; c000a08 <Port_Init+0x118>
 c000904:	e5832000 	str	r2, [r3]
	// PORT B GROUP
	// BIT 	10		9		8		7		6		5		4		3		2		1		0
	//		/CS5	/CS4	/CS3	/CS2	/CS1	GPB5	GPB4	/SRAS	/SCAS	SCLK	SCKE
	//		EXT		NIC		USB		IDE		SMC		NC		NC		Sdram	Sdram	Sdram	Sdram
	//      1, 		1,   	1,   	1,    	1,    	0,       0,     1,    	1,    	1,   	1	
	rPDATB = 0x7ff;				// P9-LED1 P10-LED2
 c000908:	e59f30fc 	ldr	r3, [pc, #252]	; c000a0c <Port_Init+0x11c>
 c00090c:	e59f20fc 	ldr	r2, [pc, #252]	; c000a10 <Port_Init+0x120>
 c000910:	e5832000 	str	r2, [r3]
	rPCONB = 0x1cf;
 c000914:	e59f30f8 	ldr	r3, [pc, #248]	; c000a14 <Port_Init+0x124>
 c000918:	e59f20f8 	ldr	r2, [pc, #248]	; c000a18 <Port_Init+0x128>
 c00091c:	e5832000 	str	r2, [r3]

	//  PC7		6		5		4		3		2		1		0
	//   I		I		I		I		I		I		I		I
	//   NC		NC		NC		NC		IISCLK	IISDI	IISDO	IISLRCK
	//   00		00		00		00		11		11		11		11
	rPDATC = 0xff00;
 c000920:	e59f30f4 	ldr	r3, [pc, #244]	; c000a1c <Port_Init+0x12c>
 c000924:	e3a02cff 	mov	r2, #65280	; 0xff00
 c000928:	e5832000 	str	r2, [r3]
	rPCONC = 0x0ff0ffff;	
 c00092c:	e59f30ec 	ldr	r3, [pc, #236]	; c000a20 <Port_Init+0x130>
 c000930:	e59f20ec 	ldr	r2, [pc, #236]	; c000a24 <Port_Init+0x134>
 c000934:	e5832000 	str	r2, [r3]
	rPUPC  = 0x30ff;	//PULL UP RESISTOR should be enabled to I/O
 c000938:	e59f30e8 	ldr	r3, [pc, #232]	; c000a28 <Port_Init+0x138>
 c00093c:	e59f20e8 	ldr	r2, [pc, #232]	; c000a2c <Port_Init+0x13c>
 c000940:	e5832000 	str	r2, [r3]
	// PORT D GROUP
	// PORT D GROUP(I/O OR LCD)
	// BIT7		6		5		4		3		2		1		0
	//	VF		VM		VLINE	VCLK	VD3		VD2		VD1		VD0
	//	00		00		00		00		00		00		00		00
	rPDATD= 0xff;
 c000944:	e59f30e4 	ldr	r3, [pc, #228]	; c000a30 <Port_Init+0x140>
 c000948:	e3a020ff 	mov	r2, #255	; 0xff
 c00094c:	e5832000 	str	r2, [r3]
	rPCOND= 0xaaaa;	
 c000950:	e59f30dc 	ldr	r3, [pc, #220]	; c000a34 <Port_Init+0x144>
 c000954:	e59f20dc 	ldr	r2, [pc, #220]	; c000a38 <Port_Init+0x148>
 c000958:	e5832000 	str	r2, [r3]
	rPUPD = 0x0;
 c00095c:	e59f30d8 	ldr	r3, [pc, #216]	; c000a3c <Port_Init+0x14c>
 c000960:	e3a02000 	mov	r2, #0
 c000964:	e5832000 	str	r2, [r3]
	
	// PORT E GROUP 
	// Bit	8		7		6		5		4		3		2		1		0
	//  	CODECLK	LED4	LED5	LED6	LED7	BEEP	RXD0	TXD0	LcdDisp
	//  	10		01		01		01		01		01		10		10		01
	rPDATE	= 0x1ff;
 c000968:	e59f30d0 	ldr	r3, [pc, #208]	; c000a40 <Port_Init+0x150>
 c00096c:	e59f2094 	ldr	r2, [pc, #148]	; c000a08 <Port_Init+0x118>
 c000970:	e5832000 	str	r2, [r3]
	rPCONE	= 0x25529;	
 c000974:	e59f30c8 	ldr	r3, [pc, #200]	; c000a44 <Port_Init+0x154>
 c000978:	e59f20c8 	ldr	r2, [pc, #200]	; c000a48 <Port_Init+0x158>
 c00097c:	e5832000 	str	r2, [r3]
	rPUPE	= 0x6;
 c000980:	e59f30c4 	ldr	r3, [pc, #196]	; c000a4c <Port_Init+0x15c>
 c000984:	e3a02006 	mov	r2, #6
 c000988:	e5832000 	str	r2, [r3]
	
	// PORT F GROUP
	// Bit8		7		6		5		 4		3		2		1		0
	// IISCLK	IISDI	IISDO	IISLRCK	Input	Input	Input	IICSDA	IICSCL
	// 100		100		100		100		00		00		00		10		10
	rPDATF = 0x0;
 c00098c:	e59f30bc 	ldr	r3, [pc, #188]	; c000a50 <Port_Init+0x160>
 c000990:	e3a02000 	mov	r2, #0
 c000994:	e5832000 	str	r2, [r3]
	rPCONF = 0x252a;
 c000998:	e59f30b4 	ldr	r3, [pc, #180]	; c000a54 <Port_Init+0x164>
 c00099c:	e59f20b4 	ldr	r2, [pc, #180]	; c000a58 <Port_Init+0x168>
 c0009a0:	e5832000 	str	r2, [r3]
	rPUPF  = 0x0;
 c0009a4:	e59f30b0 	ldr	r3, [pc, #176]	; c000a5c <Port_Init+0x16c>
 c0009a8:	e3a02000 	mov	r2, #0
 c0009ac:	e5832000 	str	r2, [r3]
	// PORT G GROUP
	// BIT7		6		5		4		3		2		1		0
	// 	INT7	INT6	INT5	INT4	INT3	INT2	INT1	INT0
	//	S3		S4		S5		S6		NIC		EXT		IDE		USB
	//	11      11      11      11      11      11      11      11
	rPDATG = 0xff;
 c0009b0:	e59f30a8 	ldr	r3, [pc, #168]	; c000a60 <Port_Init+0x170>
 c0009b4:	e3a020ff 	mov	r2, #255	; 0xff
 c0009b8:	e5832000 	str	r2, [r3]
	rPCONG = 0xffff;
 c0009bc:	e59f30a0 	ldr	r3, [pc, #160]	; c000a64 <Port_Init+0x174>
 c0009c0:	e59f20a0 	ldr	r2, [pc, #160]	; c000a68 <Port_Init+0x178>
 c0009c4:	e5832000 	str	r2, [r3]
	rPUPG  = 0x0;		//should be enabled  
 c0009c8:	e59f309c 	ldr	r3, [pc, #156]	; c000a6c <Port_Init+0x17c>
 c0009cc:	e3a02000 	mov	r2, #0
 c0009d0:	e5832000 	str	r2, [r3]
	rSPUCR = 0x7;  		//D15-D0 pull-up disable
 c0009d4:	e59f3094 	ldr	r3, [pc, #148]	; c000a70 <Port_Init+0x180>
 c0009d8:	e3a02007 	mov	r2, #7
 c0009dc:	e5832000 	str	r2, [r3]

	/* Non Cache area */
	rNCACHBE0=((Non_Cache_End>>12)<<16)|(Non_Cache_Start>>12); 
 c0009e0:	e59f308c 	ldr	r3, [pc, #140]	; c000a74 <Port_Init+0x184>
 c0009e4:	e59f208c 	ldr	r2, [pc, #140]	; c000a78 <Port_Init+0x188>
 c0009e8:	e5832000 	str	r2, [r3]
	/* Low level default */
	rEXTINT=0x0;
 c0009ec:	e59f3088 	ldr	r3, [pc, #136]	; c000a7c <Port_Init+0x18c>
 c0009f0:	e3a02000 	mov	r2, #0
 c0009f4:	e5832000 	str	r2, [r3]
}
 c0009f8:	e24bd00c 	sub	sp, fp, #12
 c0009fc:	e89d6800 	ldm	sp, {fp, sp, lr}
 c000a00:	e12fff1e 	bx	lr
 c000a04:	01d20000 	.word	0x01d20000
 c000a08:	000001ff 	.word	0x000001ff
 c000a0c:	01d2000c 	.word	0x01d2000c
 c000a10:	000007ff 	.word	0x000007ff
 c000a14:	01d20008 	.word	0x01d20008
 c000a18:	000001cf 	.word	0x000001cf
 c000a1c:	01d20014 	.word	0x01d20014
 c000a20:	01d20010 	.word	0x01d20010
 c000a24:	0ff0ffff 	.word	0x0ff0ffff
 c000a28:	01d20018 	.word	0x01d20018
 c000a2c:	000030ff 	.word	0x000030ff
 c000a30:	01d20020 	.word	0x01d20020
 c000a34:	01d2001c 	.word	0x01d2001c
 c000a38:	0000aaaa 	.word	0x0000aaaa
 c000a3c:	01d20024 	.word	0x01d20024
 c000a40:	01d2002c 	.word	0x01d2002c
 c000a44:	01d20028 	.word	0x01d20028
 c000a48:	00025529 	.word	0x00025529
 c000a4c:	01d20030 	.word	0x01d20030
 c000a50:	01d20038 	.word	0x01d20038
 c000a54:	01d20034 	.word	0x01d20034
 c000a58:	0000252a 	.word	0x0000252a
 c000a5c:	01d2003c 	.word	0x01d2003c
 c000a60:	01d20044 	.word	0x01d20044
 c000a64:	01d20040 	.word	0x01d20040
 c000a68:	0000ffff 	.word	0x0000ffff
 c000a6c:	01d20048 	.word	0x01d20048
 c000a70:	01d2004c 	.word	0x01d2004c
 c000a74:	01c00004 	.word	0x01c00004
 c000a78:	c0002000 	.word	0xc0002000
 c000a7c:	01d20050 	.word	0x01d20050

0c000a80 <Uart_Init>:

//------------------------UART------------------------------//
void Uart_Init(int mclk,int baud)
{
 c000a80:	e1a0c00d 	mov	ip, sp
 c000a84:	e92dd8f0 	push	{r4, r5, r6, r7, fp, ip, lr, pc}
 c000a88:	e24cb004 	sub	fp, ip, #4
 c000a8c:	e24dd010 	sub	sp, sp, #16
 c000a90:	e50b0028 	str	r0, [fp, #-40]	; 0xffffffd8
 c000a94:	e50b102c 	str	r1, [fp, #-44]	; 0xffffffd4
    int i;
    if(mclk==0)
 c000a98:	e51b3028 	ldr	r3, [fp, #-40]	; 0xffffffd8
 c000a9c:	e3530000 	cmp	r3, #0
 c000aa0:	1a000001 	bne	c000aac <Uart_Init+0x2c>
		mclk=MCLK;
 c000aa4:	e59f31d0 	ldr	r3, [pc, #464]	; c000c7c <Uart_Init+0x1fc>
 c000aa8:	e50b3028 	str	r3, [fp, #-40]	; 0xffffffd8

    rUFCON0=0x0;     //FIFO disable
 c000aac:	e59f31cc 	ldr	r3, [pc, #460]	; c000c80 <Uart_Init+0x200>
 c000ab0:	e3a02000 	mov	r2, #0
 c000ab4:	e5832000 	str	r2, [r3]
    rUFCON1=0x0;
 c000ab8:	e59f31c4 	ldr	r3, [pc, #452]	; c000c84 <Uart_Init+0x204>
 c000abc:	e3a02000 	mov	r2, #0
 c000ac0:	e5832000 	str	r2, [r3]
    rUMCON0=0x0;
 c000ac4:	e59f31bc 	ldr	r3, [pc, #444]	; c000c88 <Uart_Init+0x208>
 c000ac8:	e3a02000 	mov	r2, #0
 c000acc:	e5832000 	str	r2, [r3]
    rUMCON1=0x0;
 c000ad0:	e59f31b4 	ldr	r3, [pc, #436]	; c000c8c <Uart_Init+0x20c>
 c000ad4:	e3a02000 	mov	r2, #0
 c000ad8:	e5832000 	str	r2, [r3]
//UART0
    rULCON0=0x3;     //Normal,No parity,1 stop,8 bit
 c000adc:	e3a0361d 	mov	r3, #30408704	; 0x1d00000
 c000ae0:	e3a02003 	mov	r2, #3
 c000ae4:	e5832000 	str	r2, [r3]
    rUCON0=0x245;    //rx=edge,tx=level,disable timeout int.,enable rx error int.,normal,interrupt or polling
 c000ae8:	e59f31a0 	ldr	r3, [pc, #416]	; c000c90 <Uart_Init+0x210>
 c000aec:	e59f21a0 	ldr	r2, [pc, #416]	; c000c94 <Uart_Init+0x214>
 c000af0:	e5832000 	str	r2, [r3]
    rUBRDIV0=( (int)(mclk/16./baud + 0.5) -1 );
 c000af4:	e59f719c 	ldr	r7, [pc, #412]	; c000c98 <Uart_Init+0x218>
 c000af8:	e51b0028 	ldr	r0, [fp, #-40]	; 0xffffffd8
 c000afc:	eb001986 	bl	c00711c <__aeabi_i2d>
 c000b00:	e1a03000 	mov	r3, r0
 c000b04:	e1a04001 	mov	r4, r1
 c000b08:	e1a00003 	mov	r0, r3
 c000b0c:	e1a01004 	mov	r1, r4
 c000b10:	e3a02000 	mov	r2, #0
 c000b14:	e3a03101 	mov	r3, #1073741824	; 0x40000000
 c000b18:	e2833603 	add	r3, r3, #3145728	; 0x300000
 c000b1c:	eb001a59 	bl	c007488 <__aeabi_ddiv>
 c000b20:	e1a03000 	mov	r3, r0
 c000b24:	e1a04001 	mov	r4, r1
 c000b28:	e1a05003 	mov	r5, r3
 c000b2c:	e1a06004 	mov	r6, r4
 c000b30:	e51b002c 	ldr	r0, [fp, #-44]	; 0xffffffd4
 c000b34:	eb001978 	bl	c00711c <__aeabi_i2d>
 c000b38:	e1a03000 	mov	r3, r0
 c000b3c:	e1a04001 	mov	r4, r1
 c000b40:	e1a00005 	mov	r0, r5
 c000b44:	e1a01006 	mov	r1, r6
 c000b48:	e1a02003 	mov	r2, r3
 c000b4c:	e1a03004 	mov	r3, r4
 c000b50:	eb001a4c 	bl	c007488 <__aeabi_ddiv>
 c000b54:	e1a03000 	mov	r3, r0
 c000b58:	e1a04001 	mov	r4, r1
 c000b5c:	e1a00003 	mov	r0, r3
 c000b60:	e1a01004 	mov	r1, r4
 c000b64:	e3a02000 	mov	r2, #0
 c000b68:	e3a035ff 	mov	r3, #1069547520	; 0x3fc00000
 c000b6c:	e2833602 	add	r3, r3, #2097152	; 0x200000
 c000b70:	eb00189c 	bl	c006de8 <__adddf3>
 c000b74:	e1a03000 	mov	r3, r0
 c000b78:	e1a04001 	mov	r4, r1
 c000b7c:	e1a00003 	mov	r0, r3
 c000b80:	e1a01004 	mov	r1, r4
 c000b84:	eb001ac2 	bl	c007694 <__aeabi_d2iz>
 c000b88:	e1a03000 	mov	r3, r0
 c000b8c:	e2433001 	sub	r3, r3, #1
 c000b90:	e5873000 	str	r3, [r7]
//UART1
    rULCON1=0x3;
 c000b94:	e59f3100 	ldr	r3, [pc, #256]	; c000c9c <Uart_Init+0x21c>
 c000b98:	e3a02003 	mov	r2, #3
 c000b9c:	e5832000 	str	r2, [r3]
    rUCON1=0x245;
 c000ba0:	e59f30f8 	ldr	r3, [pc, #248]	; c000ca0 <Uart_Init+0x220>
 c000ba4:	e59f20e8 	ldr	r2, [pc, #232]	; c000c94 <Uart_Init+0x214>
 c000ba8:	e5832000 	str	r2, [r3]
    rUBRDIV1=( (int)(mclk/16./baud + 0.5) -1 );
 c000bac:	e59f70f0 	ldr	r7, [pc, #240]	; c000ca4 <Uart_Init+0x224>
 c000bb0:	e51b0028 	ldr	r0, [fp, #-40]	; 0xffffffd8
 c000bb4:	eb001958 	bl	c00711c <__aeabi_i2d>
 c000bb8:	e1a03000 	mov	r3, r0
 c000bbc:	e1a04001 	mov	r4, r1
 c000bc0:	e1a00003 	mov	r0, r3
 c000bc4:	e1a01004 	mov	r1, r4
 c000bc8:	e3a02000 	mov	r2, #0
 c000bcc:	e3a03101 	mov	r3, #1073741824	; 0x40000000
 c000bd0:	e2833603 	add	r3, r3, #3145728	; 0x300000
 c000bd4:	eb001a2b 	bl	c007488 <__aeabi_ddiv>
 c000bd8:	e1a03000 	mov	r3, r0
 c000bdc:	e1a04001 	mov	r4, r1
 c000be0:	e1a05003 	mov	r5, r3
 c000be4:	e1a06004 	mov	r6, r4
 c000be8:	e51b002c 	ldr	r0, [fp, #-44]	; 0xffffffd4
 c000bec:	eb00194a 	bl	c00711c <__aeabi_i2d>
 c000bf0:	e1a03000 	mov	r3, r0
 c000bf4:	e1a04001 	mov	r4, r1
 c000bf8:	e1a00005 	mov	r0, r5
 c000bfc:	e1a01006 	mov	r1, r6
 c000c00:	e1a02003 	mov	r2, r3
 c000c04:	e1a03004 	mov	r3, r4
 c000c08:	eb001a1e 	bl	c007488 <__aeabi_ddiv>
 c000c0c:	e1a03000 	mov	r3, r0
 c000c10:	e1a04001 	mov	r4, r1
 c000c14:	e1a00003 	mov	r0, r3
 c000c18:	e1a01004 	mov	r1, r4
 c000c1c:	e3a02000 	mov	r2, #0
 c000c20:	e3a035ff 	mov	r3, #1069547520	; 0x3fc00000
 c000c24:	e2833602 	add	r3, r3, #2097152	; 0x200000
 c000c28:	eb00186e 	bl	c006de8 <__adddf3>
 c000c2c:	e1a03000 	mov	r3, r0
 c000c30:	e1a04001 	mov	r4, r1
 c000c34:	e1a00003 	mov	r0, r3
 c000c38:	e1a01004 	mov	r1, r4
 c000c3c:	eb001a94 	bl	c007694 <__aeabi_d2iz>
 c000c40:	e1a03000 	mov	r3, r0
 c000c44:	e2433001 	sub	r3, r3, #1
 c000c48:	e5873000 	str	r3, [r7]

    for(i=0;i<100;i++);
 c000c4c:	e3a03000 	mov	r3, #0
 c000c50:	e50b3020 	str	r3, [fp, #-32]	; 0xffffffe0
 c000c54:	ea000002 	b	c000c64 <Uart_Init+0x1e4>
 c000c58:	e51b3020 	ldr	r3, [fp, #-32]	; 0xffffffe0
 c000c5c:	e2833001 	add	r3, r3, #1
 c000c60:	e50b3020 	str	r3, [fp, #-32]	; 0xffffffe0
 c000c64:	e51b3020 	ldr	r3, [fp, #-32]	; 0xffffffe0
 c000c68:	e3530063 	cmp	r3, #99	; 0x63
 c000c6c:	dafffff9 	ble	c000c58 <Uart_Init+0x1d8>
}
 c000c70:	e24bd01c 	sub	sp, fp, #28
 c000c74:	e89d68f0 	ldm	sp, {r4, r5, r6, r7, fp, sp, lr}
 c000c78:	e12fff1e 	bx	lr
 c000c7c:	03d09000 	.word	0x03d09000
 c000c80:	01d00008 	.word	0x01d00008
 c000c84:	01d04008 	.word	0x01d04008
 c000c88:	01d0000c 	.word	0x01d0000c
 c000c8c:	01d0400c 	.word	0x01d0400c
 c000c90:	01d00004 	.word	0x01d00004
 c000c94:	00000245 	.word	0x00000245
 c000c98:	01d00028 	.word	0x01d00028
 c000c9c:	01d04000 	.word	0x01d04000
 c000ca0:	01d04004 	.word	0x01d04004
 c000ca4:	01d04028 	.word	0x01d04028

0c000ca8 <Timer_Start>:

//------------------------ Timer ------------------------------//
void Timer_Start(int divider)  //0:16us,1:32us 2:64us 3:128us
{
 c000ca8:	e1a0c00d 	mov	ip, sp
 c000cac:	e92dd800 	push	{fp, ip, lr, pc}
 c000cb0:	e24cb004 	sub	fp, ip, #4
 c000cb4:	e24dd008 	sub	sp, sp, #8
 c000cb8:	e50b0010 	str	r0, [fp, #-16]
    rWTCON=((MCLK/1000000-1)<<8)|(divider<<3);
 c000cbc:	e59f3048 	ldr	r3, [pc, #72]	; c000d0c <Timer_Start+0x64>
 c000cc0:	e51b2010 	ldr	r2, [fp, #-16]
 c000cc4:	e1a02182 	lsl	r2, r2, #3
 c000cc8:	e3822c3f 	orr	r2, r2, #16128	; 0x3f00
 c000ccc:	e5832000 	str	r2, [r3]
    rWTDAT=0xffff;
 c000cd0:	e59f3038 	ldr	r3, [pc, #56]	; c000d10 <Timer_Start+0x68>
 c000cd4:	e59f2038 	ldr	r2, [pc, #56]	; c000d14 <Timer_Start+0x6c>
 c000cd8:	e5832000 	str	r2, [r3]
    rWTCNT=0xffff;   
 c000cdc:	e59f3034 	ldr	r3, [pc, #52]	; c000d18 <Timer_Start+0x70>
 c000ce0:	e59f202c 	ldr	r2, [pc, #44]	; c000d14 <Timer_Start+0x6c>
 c000ce4:	e5832000 	str	r2, [r3]

    // 1/16/(65+1),nRESET & interrupt  disable
    rWTCON=((MCLK/1000000-1)<<8)|(divider<<3)|(1<<5);	
 c000ce8:	e59f201c 	ldr	r2, [pc, #28]	; c000d0c <Timer_Start+0x64>
 c000cec:	e51b3010 	ldr	r3, [fp, #-16]
 c000cf0:	e1a03183 	lsl	r3, r3, #3
 c000cf4:	e3833c3f 	orr	r3, r3, #16128	; 0x3f00
 c000cf8:	e3833020 	orr	r3, r3, #32
 c000cfc:	e5823000 	str	r3, [r2]
}
 c000d00:	e24bd00c 	sub	sp, fp, #12
 c000d04:	e89d6800 	ldm	sp, {fp, sp, lr}
 c000d08:	e12fff1e 	bx	lr
 c000d0c:	01d30000 	.word	0x01d30000
 c000d10:	01d30004 	.word	0x01d30004
 c000d14:	0000ffff 	.word	0x0000ffff
 c000d18:	01d30008 	.word	0x01d30008

0c000d1c <Timer_Stop>:


int Timer_Stop(void)
{
 c000d1c:	e1a0c00d 	mov	ip, sp
 c000d20:	e92dd800 	push	{fp, ip, lr, pc}
 c000d24:	e24cb004 	sub	fp, ip, #4
    rWTCON=((MCLK/1000000-1)<<8);
 c000d28:	e59f3024 	ldr	r3, [pc, #36]	; c000d54 <Timer_Stop+0x38>
 c000d2c:	e3a02c3f 	mov	r2, #16128	; 0x3f00
 c000d30:	e5832000 	str	r2, [r3]
    return (0xffff-rWTCNT);
 c000d34:	e59f301c 	ldr	r3, [pc, #28]	; c000d58 <Timer_Stop+0x3c>
 c000d38:	e5933000 	ldr	r3, [r3]
 c000d3c:	e2633cff 	rsb	r3, r3, #65280	; 0xff00
 c000d40:	e28330ff 	add	r3, r3, #255	; 0xff
}
 c000d44:	e1a00003 	mov	r0, r3
 c000d48:	e24bd00c 	sub	sp, fp, #12
 c000d4c:	e89d6800 	ldm	sp, {fp, sp, lr}
 c000d50:	e12fff1e 	bx	lr
 c000d54:	01d30000 	.word	0x01d30000
 c000d58:	01d30008 	.word	0x01d30008

0c000d5c <Beep>:

void Beep(int BeepStatus)
{
 c000d5c:	e1a0c00d 	mov	ip, sp
 c000d60:	e92dd800 	push	{fp, ip, lr, pc}
 c000d64:	e24cb004 	sub	fp, ip, #4
 c000d68:	e24dd008 	sub	sp, sp, #8
 c000d6c:	e50b0010 	str	r0, [fp, #-16]
	if (BeepStatus==0)
 c000d70:	e51b3010 	ldr	r3, [fp, #-16]
 c000d74:	e3530000 	cmp	r3, #0
 c000d78:	1a000005 	bne	c000d94 <Beep+0x38>
		rPDATE=rPDATE|0x8;
 c000d7c:	e59f3034 	ldr	r3, [pc, #52]	; c000db8 <Beep+0x5c>
 c000d80:	e59f2030 	ldr	r2, [pc, #48]	; c000db8 <Beep+0x5c>
 c000d84:	e5922000 	ldr	r2, [r2]
 c000d88:	e3822008 	orr	r2, r2, #8
 c000d8c:	e5832000 	str	r2, [r3]
 c000d90:	ea000005 	b	c000dac <Beep+0x50>
	else
		rPDATE=rPDATE&0x1f7;
 c000d94:	e59f201c 	ldr	r2, [pc, #28]	; c000db8 <Beep+0x5c>
 c000d98:	e59f3018 	ldr	r3, [pc, #24]	; c000db8 <Beep+0x5c>
 c000d9c:	e5931000 	ldr	r1, [r3]
 c000da0:	e59f3014 	ldr	r3, [pc, #20]	; c000dbc <Beep+0x60>
 c000da4:	e0013003 	and	r3, r1, r3
 c000da8:	e5823000 	str	r3, [r2]

}
 c000dac:	e24bd00c 	sub	sp, fp, #12
 c000db0:	e89d6800 	ldm	sp, {fp, sp, lr}
 c000db4:	e12fff1e 	bx	lr
 c000db8:	01d2002c 	.word	0x01d2002c
 c000dbc:	000001f7 	.word	0x000001f7

0c000dc0 <ChangePllValue>:

//------------------------ PLL ------------------------------//
void ChangePllValue(int mdiv,int pdiv,int sdiv)
{
 c000dc0:	e1a0c00d 	mov	ip, sp
 c000dc4:	e92dd800 	push	{fp, ip, lr, pc}
 c000dc8:	e24cb004 	sub	fp, ip, #4
 c000dcc:	e24dd010 	sub	sp, sp, #16
 c000dd0:	e50b0010 	str	r0, [fp, #-16]
 c000dd4:	e50b1014 	str	r1, [fp, #-20]	; 0xffffffec
 c000dd8:	e50b2018 	str	r2, [fp, #-24]	; 0xffffffe8
    rPLLCON=(mdiv<<12)|(pdiv<<4)|sdiv;
 c000ddc:	e3a03776 	mov	r3, #30932992	; 0x1d80000
 c000de0:	e51b2010 	ldr	r2, [fp, #-16]
 c000de4:	e1a01602 	lsl	r1, r2, #12
 c000de8:	e51b2014 	ldr	r2, [fp, #-20]	; 0xffffffec
 c000dec:	e1a02202 	lsl	r2, r2, #4
 c000df0:	e1811002 	orr	r1, r1, r2
 c000df4:	e51b2018 	ldr	r2, [fp, #-24]	; 0xffffffe8
 c000df8:	e1812002 	orr	r2, r1, r2
 c000dfc:	e5832000 	str	r2, [r3]
}
 c000e00:	e24bd00c 	sub	sp, fp, #12
 c000e04:	e89d6800 	ldm	sp, {fp, sp, lr}
 c000e08:	e12fff1e 	bx	lr

0c000e0c <malloc>:

//------------------------ General Library ------------------------------//
void * malloc(unsigned nbyte) 
/*Very simple; Use malloc() & free() like Stack*/
//void *mallocPt=Image$$RW$$Limit;
{
 c000e0c:	e1a0c00d 	mov	ip, sp
 c000e10:	e92dd800 	push	{fp, ip, lr, pc}
 c000e14:	e24cb004 	sub	fp, ip, #4
 c000e18:	e24dd010 	sub	sp, sp, #16
 c000e1c:	e50b0018 	str	r0, [fp, #-24]	; 0xffffffe8
    void *returnPt=mallocPt;
 c000e20:	e59f307c 	ldr	r3, [pc, #124]	; c000ea4 <malloc+0x98>
 c000e24:	e5933000 	ldr	r3, [r3]
 c000e28:	e50b3010 	str	r3, [fp, #-16]

    mallocPt= (int *)mallocPt+nbyte/4+((nbyte%4)>0); //to align 4byte
 c000e2c:	e59f3070 	ldr	r3, [pc, #112]	; c000ea4 <malloc+0x98>
 c000e30:	e5932000 	ldr	r2, [r3]
 c000e34:	e51b3018 	ldr	r3, [fp, #-24]	; 0xffffffe8
 c000e38:	e1a01123 	lsr	r1, r3, #2
 c000e3c:	e51b3018 	ldr	r3, [fp, #-24]	; 0xffffffe8
 c000e40:	e2033003 	and	r3, r3, #3
 c000e44:	e3530000 	cmp	r3, #0
 c000e48:	03a03000 	moveq	r3, #0
 c000e4c:	13a03001 	movne	r3, #1
 c000e50:	e0813003 	add	r3, r1, r3
 c000e54:	e1a03103 	lsl	r3, r3, #2
 c000e58:	e0822003 	add	r2, r2, r3
 c000e5c:	e59f3040 	ldr	r3, [pc, #64]	; c000ea4 <malloc+0x98>
 c000e60:	e5832000 	str	r2, [r3]

    if( (int)mallocPt > HEAPEND )
 c000e64:	e59f3038 	ldr	r3, [pc, #56]	; c000ea4 <malloc+0x98>
 c000e68:	e5933000 	ldr	r3, [r3]
 c000e6c:	e1a02003 	mov	r2, r3
 c000e70:	e59f3030 	ldr	r3, [pc, #48]	; c000ea8 <malloc+0x9c>
 c000e74:	e1520003 	cmp	r2, r3
 c000e78:	da000004 	ble	c000e90 <malloc+0x84>
    {
		mallocPt=returnPt;
 c000e7c:	e59f3020 	ldr	r3, [pc, #32]	; c000ea4 <malloc+0x98>
 c000e80:	e51b2010 	ldr	r2, [fp, #-16]
 c000e84:	e5832000 	str	r2, [r3]
		return NULL;
 c000e88:	e3a03000 	mov	r3, #0
 c000e8c:	ea000000 	b	c000e94 <malloc+0x88>
    }
    return returnPt;
 c000e90:	e51b3010 	ldr	r3, [fp, #-16]
}
 c000e94:	e1a00003 	mov	r0, r3
 c000e98:	e24bd00c 	sub	sp, fp, #12
 c000e9c:	e89d6800 	ldm	sp, {fp, sp, lr}
 c000ea0:	e12fff1e 	bx	lr
 c000ea4:	0c007768 	.word	0x0c007768
 c000ea8:	0c7ff000 	.word	0x0c7ff000

0c000eac <free>:

void free(void *pt)
{
 c000eac:	e1a0c00d 	mov	ip, sp
 c000eb0:	e92dd800 	push	{fp, ip, lr, pc}
 c000eb4:	e24cb004 	sub	fp, ip, #4
 c000eb8:	e24dd008 	sub	sp, sp, #8
 c000ebc:	e50b0010 	str	r0, [fp, #-16]
    mallocPt=pt;
 c000ec0:	e59f3010 	ldr	r3, [pc, #16]	; c000ed8 <free+0x2c>
 c000ec4:	e51b2010 	ldr	r2, [fp, #-16]
 c000ec8:	e5832000 	str	r2, [r3]
}
 c000ecc:	e24bd00c 	sub	sp, fp, #12
 c000ed0:	e89d6800 	ldm	sp, {fp, sp, lr}
 c000ed4:	e12fff1e 	bx	lr
 c000ed8:	0c007768 	.word	0x0c007768

0c000edc <Cache_Flush>:

void Cache_Flush(void)
{
 c000edc:	e1a0c00d 	mov	ip, sp
 c000ee0:	e92dd800 	push	{fp, ip, lr, pc}
 c000ee4:	e24cb004 	sub	fp, ip, #4
 c000ee8:	e24dd008 	sub	sp, sp, #8
    int i,saveSyscfg;
    
    saveSyscfg=rSYSCFG;
 c000eec:	e3a03507 	mov	r3, #29360128	; 0x1c00000
 c000ef0:	e5933000 	ldr	r3, [r3]
 c000ef4:	e50b3014 	str	r3, [fp, #-20]	; 0xffffffec

    rSYSCFG=SYSCFG_0KB; 		      
 c000ef8:	e3a03507 	mov	r3, #29360128	; 0x1c00000
 c000efc:	e3a02008 	mov	r2, #8
 c000f00:	e5832000 	str	r2, [r3]
    for(i=0x10004000;i<0x10004800;i+=16)    
 c000f04:	e59f3044 	ldr	r3, [pc, #68]	; c000f50 <Cache_Flush+0x74>
 c000f08:	e50b3010 	str	r3, [fp, #-16]
 c000f0c:	ea000005 	b	c000f28 <Cache_Flush+0x4c>
    {					   
		*((int *)i)=0x0;		   
 c000f10:	e51b3010 	ldr	r3, [fp, #-16]
 c000f14:	e3a02000 	mov	r2, #0
 c000f18:	e5832000 	str	r2, [r3]
    int i,saveSyscfg;
    
    saveSyscfg=rSYSCFG;

    rSYSCFG=SYSCFG_0KB; 		      
    for(i=0x10004000;i<0x10004800;i+=16)    
 c000f1c:	e51b3010 	ldr	r3, [fp, #-16]
 c000f20:	e2833010 	add	r3, r3, #16
 c000f24:	e50b3010 	str	r3, [fp, #-16]
 c000f28:	e51b2010 	ldr	r2, [fp, #-16]
 c000f2c:	e59f3020 	ldr	r3, [pc, #32]	; c000f54 <Cache_Flush+0x78>
 c000f30:	e1520003 	cmp	r2, r3
 c000f34:	dafffff5 	ble	c000f10 <Cache_Flush+0x34>
    {					   
		*((int *)i)=0x0;		   
    }
    rSYSCFG=saveSyscfg; 			    
 c000f38:	e3a03507 	mov	r3, #29360128	; 0x1c00000
 c000f3c:	e51b2014 	ldr	r2, [fp, #-20]	; 0xffffffec
 c000f40:	e5832000 	str	r2, [r3]
}
 c000f44:	e24bd00c 	sub	sp, fp, #12
 c000f48:	e89d6800 	ldm	sp, {fp, sp, lr}
 c000f4c:	e12fff1e 	bx	lr
 c000f50:	10004000 	.word	0x10004000
 c000f54:	100047ff 	.word	0x100047ff

0c000f58 <sys_init>:

void sys_init()// Interrupt,Port and UART
{
 c000f58:	e1a0c00d 	mov	ip, sp
 c000f5c:	e92dd800 	push	{fp, ip, lr, pc}
 c000f60:	e24cb004 	sub	fp, ip, #4
	/* enable interrupt */
	rINTMOD = 0x0;
 c000f64:	e59f304c 	ldr	r3, [pc, #76]	; c000fb8 <sys_init+0x60>
 c000f68:	e3a02000 	mov	r2, #0
 c000f6c:	e5832000 	str	r2, [r3]
	rINTCON = 0x1;
 c000f70:	e3a0361e 	mov	r3, #31457280	; 0x1e00000
 c000f74:	e3a02001 	mov	r2, #1
 c000f78:	e5832000 	str	r2, [r3]
	rI_ISPC = 0xffffffff;			// clear all interrupt pend
 c000f7c:	e59f3038 	ldr	r3, [pc, #56]	; c000fbc <sys_init+0x64>
 c000f80:	e3e02000 	mvn	r2, #0
 c000f84:	e5832000 	str	r2, [r3]
	rEXTINTPND = 0xf;				  // clear EXTINTPND reg
 c000f88:	e59f3030 	ldr	r3, [pc, #48]	; c000fc0 <sys_init+0x68>
 c000f8c:	e3a0200f 	mov	r2, #15
 c000f90:	e5832000 	str	r2, [r3]
	Port_Init();					    // Initial 44B0X's I/O port
 c000f94:	ebfffe55 	bl	c0008f0 <Port_Init>
	Delay(0);						      // delay time				
 c000f98:	e3a00000 	mov	r0, #0
 c000f9c:	ebfffdda 	bl	c00070c <Delay>
	rINTMSK = ~(BIT_GLOBAL);  //enable interrupt mask vector
 c000fa0:	e59f301c 	ldr	r3, [pc, #28]	; c000fc4 <sys_init+0x6c>
 c000fa4:	e3e02301 	mvn	r2, #67108864	; 0x4000000
 c000fa8:	e5832000 	str	r2, [r3]
}
 c000fac:	e24bd00c 	sub	sp, fp, #12
 c000fb0:	e89d6800 	ldm	sp, {fp, sp, lr}
 c000fb4:	e12fff1e 	bx	lr
 c000fb8:	01e00008 	.word	0x01e00008
 c000fbc:	01e00024 	.word	0x01e00024
 c000fc0:	01d20054 	.word	0x01d20054
 c000fc4:	01e0000c 	.word	0x01e0000c

0c000fc8 <D8Led_init>:
static int
Symbol[size_8led] = { cero, uno, dos, tres, cuatro, cinco, seis, siete, ocho, nueve, A, B, C, D, E, F, blank};

/*--- cdigo de las funciones ---*/
void D8Led_init(void)
{
 c000fc8:	e1a0c00d 	mov	ip, sp
 c000fcc:	e92dd800 	push	{fp, ip, lr, pc}
 c000fd0:	e24cb004 	sub	fp, ip, #4
	/* Estado inicial del display con todos los segmentos iluminados
	   (buscar en los ficheros de cabecera la direccion implicada) */
	LED8ADDR = (unsigned char) cero;
 c000fd4:	e3a03785 	mov	r3, #34865152	; 0x2140000
 c000fd8:	e3a02012 	mov	r2, #18
 c000fdc:	e5c32000 	strb	r2, [r3]
}
 c000fe0:	e24bd00c 	sub	sp, fp, #12
 c000fe4:	e89d6800 	ldm	sp, {fp, sp, lr}
 c000fe8:	e12fff1e 	bx	lr

0c000fec <D8Led_symbol>:

void D8Led_symbol(int value)
{
 c000fec:	e1a0c00d 	mov	ip, sp
 c000ff0:	e92dd800 	push	{fp, ip, lr, pc}
 c000ff4:	e24cb004 	sub	fp, ip, #4
 c000ff8:	e24dd008 	sub	sp, sp, #8
 c000ffc:	e50b0010 	str	r0, [fp, #-16]
	/* muestra el Symbol[value] en el display (analogo al caso anterior) */
	if ((value >= 0) && (value < size_8led)) {
 c001000:	e51b3010 	ldr	r3, [fp, #-16]
 c001004:	e3530000 	cmp	r3, #0
 c001008:	ba000008 	blt	c001030 <D8Led_symbol+0x44>
 c00100c:	e51b3010 	ldr	r3, [fp, #-16]
 c001010:	e3530010 	cmp	r3, #16
 c001014:	ca000005 	bgt	c001030 <D8Led_symbol+0x44>
		LED8ADDR = (unsigned char) Symbol[value];
 c001018:	e3a03785 	mov	r3, #34865152	; 0x2140000
 c00101c:	e59f2018 	ldr	r2, [pc, #24]	; c00103c <D8Led_symbol+0x50>
 c001020:	e51b1010 	ldr	r1, [fp, #-16]
 c001024:	e7922101 	ldr	r2, [r2, r1, lsl #2]
 c001028:	e20220ff 	and	r2, r2, #255	; 0xff
 c00102c:	e5c32000 	strb	r2, [r3]
	}
}
 c001030:	e24bd00c 	sub	sp, fp, #12
 c001034:	e89d6800 	ldm	sp, {fp, sp, lr}
 c001038:	e12fff1e 	bx	lr
 c00103c:	0c007774 	.word	0x0c007774

0c001040 <BitmapView>:
* ret:		none
* modify:
* comment:		
*********************************************************************************************/
void BitmapView (INT16U x, INT16U y, STRU_BITMAP Stru_Bitmap)
{
 c001040:	e1a0c00d 	mov	ip, sp
 c001044:	e24dd008 	sub	sp, sp, #8
 c001048:	e92dd800 	push	{fp, ip, lr, pc}
 c00104c:	e24cb00c 	sub	fp, ip, #12
 c001050:	e24dd018 	sub	sp, sp, #24
 c001054:	e28bc004 	add	ip, fp, #4
 c001058:	e88c000c 	stm	ip, {r2, r3}
 c00105c:	e14b01be 	strh	r0, [fp, #-30]	; 0xffffffe2
 c001060:	e14b12b0 	strh	r1, [fp, #-32]	; 0xffffffe0
	INT32U i, j;
	INT8U ucColor;
	
	for (i =  0; i < Stru_Bitmap.usHeight; i++)
 c001064:	e3a03000 	mov	r3, #0
 c001068:	e50b3010 	str	r3, [fp, #-16]
 c00106c:	ea00004e 	b	c0011ac <BitmapView+0x16c>
	{
		for (j = 0; j <Stru_Bitmap.usWidth; j++)
 c001070:	e3a03000 	mov	r3, #0
 c001074:	e50b3014 	str	r3, [fp, #-20]	; 0xffffffec
 c001078:	ea000043 	b	c00118c <BitmapView+0x14c>
		{
			if ((ucColor = *(INT8U*)(Stru_Bitmap.pucStart + i * Stru_Bitmap.usWidth + j)) != TRANSPARENCY)
 c00107c:	e59b2010 	ldr	r2, [fp, #16]
 c001080:	e1db30b6 	ldrh	r3, [fp, #6]
 c001084:	e51b1010 	ldr	r1, [fp, #-16]
 c001088:	e0010193 	mul	r1, r3, r1
 c00108c:	e51b3014 	ldr	r3, [fp, #-20]	; 0xffffffec
 c001090:	e0813003 	add	r3, r1, r3
 c001094:	e0823003 	add	r3, r2, r3
 c001098:	e5d33000 	ldrb	r3, [r3]
 c00109c:	e54b3015 	strb	r3, [fp, #-21]	; 0xffffffeb
 c0010a0:	e55b3015 	ldrb	r3, [fp, #-21]	; 0xffffffeb
 c0010a4:	e35300ff 	cmp	r3, #255	; 0xff
 c0010a8:	0a000034 	beq	c001180 <BitmapView+0x140>
			{
				LCD_PutPixel(x + j, y + i, ucColor); 
 c0010ac:	e15b22b0 	ldrh	r2, [fp, #-32]	; 0xffffffe0
 c0010b0:	e51b3010 	ldr	r3, [fp, #-16]
 c0010b4:	e0822003 	add	r2, r2, r3
 c0010b8:	e1a03002 	mov	r3, r2
 c0010bc:	e1a03103 	lsl	r3, r3, #2
 c0010c0:	e0833002 	add	r3, r3, r2
 c0010c4:	e1a03303 	lsl	r3, r3, #6
 c0010c8:	e1a020a3 	lsr	r2, r3, #1
 c0010cc:	e15b11be 	ldrh	r1, [fp, #-30]	; 0xffffffe2
 c0010d0:	e51b3014 	ldr	r3, [fp, #-20]	; 0xffffffec
 c0010d4:	e0813003 	add	r3, r1, r3
 c0010d8:	e1a031a3 	lsr	r3, r3, #3
 c0010dc:	e1a03103 	lsl	r3, r3, #2
 c0010e0:	e0823003 	add	r3, r2, r3
 c0010e4:	e28336c3 	add	r3, r3, #204472320	; 0xc300000
 c0010e8:	e2833c96 	add	r3, r3, #38400	; 0x9600
 c0010ec:	e1a01003 	mov	r1, r3
 c0010f0:	e15b22b0 	ldrh	r2, [fp, #-32]	; 0xffffffe0
 c0010f4:	e51b3010 	ldr	r3, [fp, #-16]
 c0010f8:	e0822003 	add	r2, r2, r3
 c0010fc:	e1a03002 	mov	r3, r2
 c001100:	e1a03103 	lsl	r3, r3, #2
 c001104:	e0833002 	add	r3, r3, r2
 c001108:	e1a03303 	lsl	r3, r3, #6
 c00110c:	e1a020a3 	lsr	r2, r3, #1
 c001110:	e15b01be 	ldrh	r0, [fp, #-30]	; 0xffffffe2
 c001114:	e51b3014 	ldr	r3, [fp, #-20]	; 0xffffffec
 c001118:	e0803003 	add	r3, r0, r3
 c00111c:	e1a031a3 	lsr	r3, r3, #3
 c001120:	e1a03103 	lsl	r3, r3, #2
 c001124:	e0823003 	add	r3, r2, r3
 c001128:	e28336c3 	add	r3, r3, #204472320	; 0xc300000
 c00112c:	e2833c96 	add	r3, r3, #38400	; 0x9600
 c001130:	e5932000 	ldr	r2, [r3]
 c001134:	e15b01be 	ldrh	r0, [fp, #-30]	; 0xffffffe2
 c001138:	e51b3014 	ldr	r3, [fp, #-20]	; 0xffffffec
 c00113c:	e0803003 	add	r3, r0, r3
 c001140:	e2033007 	and	r3, r3, #7
 c001144:	e1a03103 	lsl	r3, r3, #2
 c001148:	e3a0020f 	mov	r0, #-268435456	; 0xf0000000
 c00114c:	e1a03330 	lsr	r3, r0, r3
 c001150:	e1e03003 	mvn	r3, r3
 c001154:	e0022003 	and	r2, r2, r3
 c001158:	e55b0015 	ldrb	r0, [fp, #-21]	; 0xffffffeb
 c00115c:	e15bc1be 	ldrh	ip, [fp, #-30]	; 0xffffffe2
 c001160:	e51b3014 	ldr	r3, [fp, #-20]	; 0xffffffec
 c001164:	e08c3003 	add	r3, ip, r3
 c001168:	e1e03003 	mvn	r3, r3
 c00116c:	e2033007 	and	r3, r3, #7
 c001170:	e1a03103 	lsl	r3, r3, #2
 c001174:	e1a03310 	lsl	r3, r0, r3
 c001178:	e1823003 	orr	r3, r2, r3
 c00117c:	e5813000 	str	r3, [r1]
	INT32U i, j;
	INT8U ucColor;
	
	for (i =  0; i < Stru_Bitmap.usHeight; i++)
	{
		for (j = 0; j <Stru_Bitmap.usWidth; j++)
 c001180:	e51b3014 	ldr	r3, [fp, #-20]	; 0xffffffec
 c001184:	e2833001 	add	r3, r3, #1
 c001188:	e50b3014 	str	r3, [fp, #-20]	; 0xffffffec
 c00118c:	e1db30b6 	ldrh	r3, [fp, #6]
 c001190:	e1a02003 	mov	r2, r3
 c001194:	e51b3014 	ldr	r3, [fp, #-20]	; 0xffffffec
 c001198:	e1520003 	cmp	r2, r3
 c00119c:	8affffb6 	bhi	c00107c <BitmapView+0x3c>
void BitmapView (INT16U x, INT16U y, STRU_BITMAP Stru_Bitmap)
{
	INT32U i, j;
	INT8U ucColor;
	
	for (i =  0; i < Stru_Bitmap.usHeight; i++)
 c0011a0:	e51b3010 	ldr	r3, [fp, #-16]
 c0011a4:	e2833001 	add	r3, r3, #1
 c0011a8:	e50b3010 	str	r3, [fp, #-16]
 c0011ac:	e1db30b8 	ldrh	r3, [fp, #8]
 c0011b0:	e1a02003 	mov	r2, r3
 c0011b4:	e51b3010 	ldr	r3, [fp, #-16]
 c0011b8:	e1520003 	cmp	r2, r3
 c0011bc:	8affffab 	bhi	c001070 <BitmapView+0x30>
			{
				LCD_PutPixel(x + j, y + i, ucColor); 
			}
		}
	}
}
 c0011c0:	e24bd00c 	sub	sp, fp, #12
 c0011c4:	e89d6800 	ldm	sp, {fp, sp, lr}
 c0011c8:	e12fff1e 	bx	lr

0c0011cc <BitmapPush>:
* ret:		none
* modify:
* comment:		
*********************************************************************************************/
void BitmapPush (INT16U x, INT16U y, STRU_BITMAP Stru_Bitmap)
{
 c0011cc:	e1a0c00d 	mov	ip, sp
 c0011d0:	e24dd008 	sub	sp, sp, #8
 c0011d4:	e92dd800 	push	{fp, ip, lr, pc}
 c0011d8:	e24cb00c 	sub	fp, ip, #12
 c0011dc:	e24dd010 	sub	sp, sp, #16
 c0011e0:	e28bc004 	add	ip, fp, #4
 c0011e4:	e88c000c 	stm	ip, {r2, r3}
 c0011e8:	e14b01b6 	strh	r0, [fp, #-22]	; 0xffffffea
 c0011ec:	e14b11b8 	strh	r1, [fp, #-24]	; 0xffffffe8
	INT32U i, j;

	ulMouseX = x; 
 c0011f0:	e59f3234 	ldr	r3, [pc, #564]	; c00142c <BitmapPush+0x260>
 c0011f4:	e15b21b6 	ldrh	r2, [fp, #-22]	; 0xffffffea
 c0011f8:	e1c320b0 	strh	r2, [r3]
	ulMouseY = y;
 c0011fc:	e59f322c 	ldr	r3, [pc, #556]	; c001430 <BitmapPush+0x264>
 c001200:	e15b21b8 	ldrh	r2, [fp, #-24]	; 0xffffffe8
 c001204:	e1c320b0 	strh	r2, [r3]
	for (i =  0; i < Stru_Bitmap.usHeight; i++)
 c001208:	e3a03000 	mov	r3, #0
 c00120c:	e50b3010 	str	r3, [fp, #-16]
 c001210:	ea00007d 	b	c00140c <BitmapPush+0x240>
	{
		for (j = 0; j < Stru_Bitmap.usWidth; j+=2)
 c001214:	e3a03000 	mov	r3, #0
 c001218:	e50b3014 	str	r3, [fp, #-20]	; 0xffffffec
 c00121c:	ea000072 	b	c0013ec <BitmapPush+0x220>
		{
			if ((x + j)%2)
 c001220:	e15b21b6 	ldrh	r2, [fp, #-22]	; 0xffffffea
 c001224:	e51b3014 	ldr	r3, [fp, #-20]	; 0xffffffec
 c001228:	e0823003 	add	r3, r2, r3
 c00122c:	e2033001 	and	r3, r3, #1
 c001230:	e20330ff 	and	r3, r3, #255	; 0xff
 c001234:	e3530000 	cmp	r3, #0
 c001238:	0a000044 	beq	c001350 <BitmapPush+0x184>
			{
				ucCursorBackUp[i][j/2] =
 c00123c:	e51b3014 	ldr	r3, [fp, #-20]	; 0xffffffec
 c001240:	e1a0c0a3 	lsr	ip, r3, #1
				(((*(INT8U*)(LCD_ACTIVE_BUFFER + (y + i) * SCR_XSIZE / 2 + (x + j) / 8 * 4  + 3 - ((x + j)%8) / 2)) << 4) & 0xf0) + 
 c001244:	e15b21b8 	ldrh	r2, [fp, #-24]	; 0xffffffe8
 c001248:	e51b3010 	ldr	r3, [fp, #-16]
 c00124c:	e0822003 	add	r2, r2, r3
 c001250:	e1a03002 	mov	r3, r2
 c001254:	e1a03103 	lsl	r3, r3, #2
 c001258:	e0833002 	add	r3, r3, r2
 c00125c:	e1a03303 	lsl	r3, r3, #6
 c001260:	e1a020a3 	lsr	r2, r3, #1
 c001264:	e15b11b6 	ldrh	r1, [fp, #-22]	; 0xffffffea
 c001268:	e51b3014 	ldr	r3, [fp, #-20]	; 0xffffffec
 c00126c:	e0813003 	add	r3, r1, r3
 c001270:	e1a031a3 	lsr	r3, r3, #3
 c001274:	e1a03103 	lsl	r3, r3, #2
 c001278:	e0822003 	add	r2, r2, r3
 c00127c:	e15b11b6 	ldrh	r1, [fp, #-22]	; 0xffffffea
 c001280:	e51b3014 	ldr	r3, [fp, #-20]	; 0xffffffec
 c001284:	e0813003 	add	r3, r1, r3
 c001288:	e2033007 	and	r3, r3, #7
 c00128c:	e1a030a3 	lsr	r3, r3, #1
 c001290:	e2633000 	rsb	r3, r3, #0
 c001294:	e0823003 	add	r3, r2, r3
 c001298:	e28336c3 	add	r3, r3, #204472320	; 0xc300000
 c00129c:	e2833003 	add	r3, r3, #3
 c0012a0:	e5d33000 	ldrb	r3, [r3]
 c0012a4:	e1a03203 	lsl	r3, r3, #4
	{
		for (j = 0; j < Stru_Bitmap.usWidth; j+=2)
		{
			if ((x + j)%2)
			{
				ucCursorBackUp[i][j/2] =
 c0012a8:	e20310ff 	and	r1, r3, #255	; 0xff
				(((*(INT8U*)(LCD_ACTIVE_BUFFER + (y + i) * SCR_XSIZE / 2 + (x + j) / 8 * 4  + 3 - ((x + j)%8) / 2)) << 4) & 0xf0) + 
				(((*(INT8U*)(LCD_ACTIVE_BUFFER + (y + i) * SCR_XSIZE / 2 + (x + j+1) / 8 * 4  + 3 - ((x + j+1)%8) / 2)) >> 4) & 0x0f);
 c0012ac:	e15b21b8 	ldrh	r2, [fp, #-24]	; 0xffffffe8
 c0012b0:	e51b3010 	ldr	r3, [fp, #-16]
 c0012b4:	e0822003 	add	r2, r2, r3
 c0012b8:	e1a03002 	mov	r3, r2
 c0012bc:	e1a03103 	lsl	r3, r3, #2
 c0012c0:	e0833002 	add	r3, r3, r2
 c0012c4:	e1a03303 	lsl	r3, r3, #6
 c0012c8:	e1a020a3 	lsr	r2, r3, #1
 c0012cc:	e15b01b6 	ldrh	r0, [fp, #-22]	; 0xffffffea
 c0012d0:	e51b3014 	ldr	r3, [fp, #-20]	; 0xffffffec
 c0012d4:	e0803003 	add	r3, r0, r3
 c0012d8:	e2833001 	add	r3, r3, #1
 c0012dc:	e1a031a3 	lsr	r3, r3, #3
 c0012e0:	e1a03103 	lsl	r3, r3, #2
 c0012e4:	e0822003 	add	r2, r2, r3
 c0012e8:	e15b01b6 	ldrh	r0, [fp, #-22]	; 0xffffffea
 c0012ec:	e51b3014 	ldr	r3, [fp, #-20]	; 0xffffffec
 c0012f0:	e0803003 	add	r3, r0, r3
 c0012f4:	e2833001 	add	r3, r3, #1
 c0012f8:	e2033007 	and	r3, r3, #7
 c0012fc:	e1a030a3 	lsr	r3, r3, #1
 c001300:	e2633000 	rsb	r3, r3, #0
 c001304:	e0823003 	add	r3, r2, r3
 c001308:	e28336c3 	add	r3, r3, #204472320	; 0xc300000
 c00130c:	e2833003 	add	r3, r3, #3
 c001310:	e5d33000 	ldrb	r3, [r3]
	{
		for (j = 0; j < Stru_Bitmap.usWidth; j+=2)
		{
			if ((x + j)%2)
			{
				ucCursorBackUp[i][j/2] =
 c001314:	e1a03223 	lsr	r3, r3, #4
 c001318:	e20330ff 	and	r3, r3, #255	; 0xff
 c00131c:	e0813003 	add	r3, r1, r3
 c001320:	e20310ff 	and	r1, r3, #255	; 0xff
 c001324:	e59f0108 	ldr	r0, [pc, #264]	; c001434 <BitmapPush+0x268>
 c001328:	e51b2010 	ldr	r2, [fp, #-16]
 c00132c:	e1a03002 	mov	r3, r2
 c001330:	e1a03083 	lsl	r3, r3, #1
 c001334:	e0833002 	add	r3, r3, r2
 c001338:	e1a03083 	lsl	r3, r3, #1
 c00133c:	e083300c 	add	r3, r3, ip
 c001340:	e0803003 	add	r3, r0, r3
 c001344:	e1a02001 	mov	r2, r1
 c001348:	e5c32000 	strb	r2, [r3]
 c00134c:	ea000023 	b	c0013e0 <BitmapPush+0x214>
				(((*(INT8U*)(LCD_ACTIVE_BUFFER + (y + i) * SCR_XSIZE / 2 + (x + j) / 8 * 4  + 3 - ((x + j)%8) / 2)) << 4) & 0xf0) + 
				(((*(INT8U*)(LCD_ACTIVE_BUFFER + (y + i) * SCR_XSIZE / 2 + (x + j+1) / 8 * 4  + 3 - ((x + j+1)%8) / 2)) >> 4) & 0x0f);
			}
			else
			{
				ucCursorBackUp[i][j/2] = (*(INT8U*)(LCD_ACTIVE_BUFFER + (y + i) * SCR_XSIZE / 2 + (x + j) / 8 * 4  + 3 - ((x + j)%8) / 2));
 c001350:	e51b3014 	ldr	r3, [fp, #-20]	; 0xffffffec
 c001354:	e1a0c0a3 	lsr	ip, r3, #1
 c001358:	e15b21b8 	ldrh	r2, [fp, #-24]	; 0xffffffe8
 c00135c:	e51b3010 	ldr	r3, [fp, #-16]
 c001360:	e0822003 	add	r2, r2, r3
 c001364:	e1a03002 	mov	r3, r2
 c001368:	e1a03103 	lsl	r3, r3, #2
 c00136c:	e0833002 	add	r3, r3, r2
 c001370:	e1a03303 	lsl	r3, r3, #6
 c001374:	e1a020a3 	lsr	r2, r3, #1
 c001378:	e15b11b6 	ldrh	r1, [fp, #-22]	; 0xffffffea
 c00137c:	e51b3014 	ldr	r3, [fp, #-20]	; 0xffffffec
 c001380:	e0813003 	add	r3, r1, r3
 c001384:	e1a031a3 	lsr	r3, r3, #3
 c001388:	e1a03103 	lsl	r3, r3, #2
 c00138c:	e0822003 	add	r2, r2, r3
 c001390:	e15b11b6 	ldrh	r1, [fp, #-22]	; 0xffffffea
 c001394:	e51b3014 	ldr	r3, [fp, #-20]	; 0xffffffec
 c001398:	e0813003 	add	r3, r1, r3
 c00139c:	e2033007 	and	r3, r3, #7
 c0013a0:	e1a030a3 	lsr	r3, r3, #1
 c0013a4:	e2633000 	rsb	r3, r3, #0
 c0013a8:	e0823003 	add	r3, r2, r3
 c0013ac:	e28336c3 	add	r3, r3, #204472320	; 0xc300000
 c0013b0:	e2833003 	add	r3, r3, #3
 c0013b4:	e5d31000 	ldrb	r1, [r3]
 c0013b8:	e59f0074 	ldr	r0, [pc, #116]	; c001434 <BitmapPush+0x268>
 c0013bc:	e51b2010 	ldr	r2, [fp, #-16]
 c0013c0:	e1a03002 	mov	r3, r2
 c0013c4:	e1a03083 	lsl	r3, r3, #1
 c0013c8:	e0833002 	add	r3, r3, r2
 c0013cc:	e1a03083 	lsl	r3, r3, #1
 c0013d0:	e083300c 	add	r3, r3, ip
 c0013d4:	e0803003 	add	r3, r0, r3
 c0013d8:	e1a02001 	mov	r2, r1
 c0013dc:	e5c32000 	strb	r2, [r3]

	ulMouseX = x; 
	ulMouseY = y;
	for (i =  0; i < Stru_Bitmap.usHeight; i++)
	{
		for (j = 0; j < Stru_Bitmap.usWidth; j+=2)
 c0013e0:	e51b3014 	ldr	r3, [fp, #-20]	; 0xffffffec
 c0013e4:	e2833002 	add	r3, r3, #2
 c0013e8:	e50b3014 	str	r3, [fp, #-20]	; 0xffffffec
 c0013ec:	e1db30b6 	ldrh	r3, [fp, #6]
 c0013f0:	e1a02003 	mov	r2, r3
 c0013f4:	e51b3014 	ldr	r3, [fp, #-20]	; 0xffffffec
 c0013f8:	e1520003 	cmp	r2, r3
 c0013fc:	8affff87 	bhi	c001220 <BitmapPush+0x54>
{
	INT32U i, j;

	ulMouseX = x; 
	ulMouseY = y;
	for (i =  0; i < Stru_Bitmap.usHeight; i++)
 c001400:	e51b3010 	ldr	r3, [fp, #-16]
 c001404:	e2833001 	add	r3, r3, #1
 c001408:	e50b3010 	str	r3, [fp, #-16]
 c00140c:	e1db30b8 	ldrh	r3, [fp, #8]
 c001410:	e1a02003 	mov	r2, r3
 c001414:	e51b3010 	ldr	r3, [fp, #-16]
 c001418:	e1520003 	cmp	r2, r3
 c00141c:	8affff7c 	bhi	c001214 <BitmapPush+0x48>
			{
				ucCursorBackUp[i][j/2] = (*(INT8U*)(LCD_ACTIVE_BUFFER + (y + i) * SCR_XSIZE / 2 + (x + j) / 8 * 4  + 3 - ((x + j)%8) / 2));
			}
		}
	}
}
 c001420:	e24bd00c 	sub	sp, fp, #12
 c001424:	e89d6800 	ldm	sp, {fp, sp, lr}
 c001428:	e12fff1e 	bx	lr
 c00142c:	0c009b96 	.word	0x0c009b96
 c001430:	0c009b94 	.word	0x0c009b94
 c001434:	0c009b1c 	.word	0x0c009b1c

0c001438 <BitmapPop>:
* ret:		none
* modify:
* comment:		
*********************************************************************************************/
void BitmapPop(INT16U x, INT16U y, STRU_BITMAP Stru_Bitmap)
{
 c001438:	e1a0c00d 	mov	ip, sp
 c00143c:	e24dd008 	sub	sp, sp, #8
 c001440:	e92dd810 	push	{r4, fp, ip, lr, pc}
 c001444:	e24cb00c 	sub	fp, ip, #12
 c001448:	e24dd01c 	sub	sp, sp, #28
 c00144c:	e28bc004 	add	ip, fp, #4
 c001450:	e88c000c 	stm	ip, {r2, r3}
 c001454:	e14b02b6 	strh	r0, [fp, #-38]	; 0xffffffda
 c001458:	e14b12b8 	strh	r1, [fp, #-40]	; 0xffffffd8
	INT32U i, j;
	INT32U ulAddr, ulAddr1;

	for (i =  0; i < Stru_Bitmap.usHeight; i++)
 c00145c:	e3a03000 	mov	r3, #0
 c001460:	e50b3018 	str	r3, [fp, #-24]	; 0xffffffe8
 c001464:	ea00008d 	b	c0016a0 <BitmapPop+0x268>
	{
		for (j = 0; j <Stru_Bitmap.usWidth; j+=2)
 c001468:	e3a03000 	mov	r3, #0
 c00146c:	e50b301c 	str	r3, [fp, #-28]	; 0xffffffe4
 c001470:	ea000082 	b	c001680 <BitmapPop+0x248>
		{
			ulAddr = LCD_ACTIVE_BUFFER + (y + i) * SCR_XSIZE / 2 + (x + j) / 8 * 4 + 3 - ((x + j)%8) / 2;
 c001474:	e15b22b8 	ldrh	r2, [fp, #-40]	; 0xffffffd8
 c001478:	e51b3018 	ldr	r3, [fp, #-24]	; 0xffffffe8
 c00147c:	e0822003 	add	r2, r2, r3
 c001480:	e1a03002 	mov	r3, r2
 c001484:	e1a03103 	lsl	r3, r3, #2
 c001488:	e0833002 	add	r3, r3, r2
 c00148c:	e1a03303 	lsl	r3, r3, #6
 c001490:	e1a020a3 	lsr	r2, r3, #1
 c001494:	e15b12b6 	ldrh	r1, [fp, #-38]	; 0xffffffda
 c001498:	e51b301c 	ldr	r3, [fp, #-28]	; 0xffffffe4
 c00149c:	e0813003 	add	r3, r1, r3
 c0014a0:	e1a031a3 	lsr	r3, r3, #3
 c0014a4:	e1a03103 	lsl	r3, r3, #2
 c0014a8:	e0822003 	add	r2, r2, r3
 c0014ac:	e15b12b6 	ldrh	r1, [fp, #-38]	; 0xffffffda
 c0014b0:	e51b301c 	ldr	r3, [fp, #-28]	; 0xffffffe4
 c0014b4:	e0813003 	add	r3, r1, r3
 c0014b8:	e2033007 	and	r3, r3, #7
 c0014bc:	e1a030a3 	lsr	r3, r3, #1
 c0014c0:	e2633000 	rsb	r3, r3, #0
 c0014c4:	e0823003 	add	r3, r2, r3
 c0014c8:	e28336c3 	add	r3, r3, #204472320	; 0xc300000
 c0014cc:	e2833003 	add	r3, r3, #3
 c0014d0:	e50b3020 	str	r3, [fp, #-32]	; 0xffffffe0
			ulAddr1 =LCD_ACTIVE_BUFFER + (y + i) * SCR_XSIZE / 2 + (x + j + 1) / 8 * 4 + 3 - ((x + j + 1)%8) / 2;
 c0014d4:	e15b22b8 	ldrh	r2, [fp, #-40]	; 0xffffffd8
 c0014d8:	e51b3018 	ldr	r3, [fp, #-24]	; 0xffffffe8
 c0014dc:	e0822003 	add	r2, r2, r3
 c0014e0:	e1a03002 	mov	r3, r2
 c0014e4:	e1a03103 	lsl	r3, r3, #2
 c0014e8:	e0833002 	add	r3, r3, r2
 c0014ec:	e1a03303 	lsl	r3, r3, #6
 c0014f0:	e1a020a3 	lsr	r2, r3, #1
 c0014f4:	e15b12b6 	ldrh	r1, [fp, #-38]	; 0xffffffda
 c0014f8:	e51b301c 	ldr	r3, [fp, #-28]	; 0xffffffe4
 c0014fc:	e0813003 	add	r3, r1, r3
 c001500:	e2833001 	add	r3, r3, #1
 c001504:	e1a031a3 	lsr	r3, r3, #3
 c001508:	e1a03103 	lsl	r3, r3, #2
 c00150c:	e0822003 	add	r2, r2, r3
 c001510:	e15b12b6 	ldrh	r1, [fp, #-38]	; 0xffffffda
 c001514:	e51b301c 	ldr	r3, [fp, #-28]	; 0xffffffe4
 c001518:	e0813003 	add	r3, r1, r3
 c00151c:	e2833001 	add	r3, r3, #1
 c001520:	e2033007 	and	r3, r3, #7
 c001524:	e1a030a3 	lsr	r3, r3, #1
 c001528:	e2633000 	rsb	r3, r3, #0
 c00152c:	e0823003 	add	r3, r2, r3
 c001530:	e28336c3 	add	r3, r3, #204472320	; 0xc300000
 c001534:	e2833003 	add	r3, r3, #3
 c001538:	e50b3024 	str	r3, [fp, #-36]	; 0xffffffdc
			if ((x + j)%2)
 c00153c:	e15b22b6 	ldrh	r2, [fp, #-38]	; 0xffffffda
 c001540:	e51b301c 	ldr	r3, [fp, #-28]	; 0xffffffe4
 c001544:	e0823003 	add	r3, r2, r3
 c001548:	e2033001 	and	r3, r3, #1
 c00154c:	e20330ff 	and	r3, r3, #255	; 0xff
 c001550:	e3530000 	cmp	r3, #0
 c001554:	0a000039 	beq	c001640 <BitmapPop+0x208>
			{
				
				(*(INT8U*)ulAddr) &= 0xf0;
 c001558:	e51b3020 	ldr	r3, [fp, #-32]	; 0xffffffe0
 c00155c:	e51b2020 	ldr	r2, [fp, #-32]	; 0xffffffe0
 c001560:	e5d22000 	ldrb	r2, [r2]
 c001564:	e3c2200f 	bic	r2, r2, #15
 c001568:	e20220ff 	and	r2, r2, #255	; 0xff
 c00156c:	e5c32000 	strb	r2, [r3]
				(*(INT8U*)ulAddr) |= ((ucCursorBackUp[i][j/2] >> 4) & 0x0f);
 c001570:	e51b1020 	ldr	r1, [fp, #-32]	; 0xffffffe0
 c001574:	e51b3020 	ldr	r3, [fp, #-32]	; 0xffffffe0
 c001578:	e5d33000 	ldrb	r3, [r3]
 c00157c:	e20300ff 	and	r0, r3, #255	; 0xff
 c001580:	e51b301c 	ldr	r3, [fp, #-28]	; 0xffffffe4
 c001584:	e1a040a3 	lsr	r4, r3, #1
 c001588:	e59fc130 	ldr	ip, [pc, #304]	; c0016c0 <BitmapPop+0x288>
 c00158c:	e51b2018 	ldr	r2, [fp, #-24]	; 0xffffffe8
 c001590:	e1a03002 	mov	r3, r2
 c001594:	e1a03083 	lsl	r3, r3, #1
 c001598:	e0833002 	add	r3, r3, r2
 c00159c:	e1a03083 	lsl	r3, r3, #1
 c0015a0:	e0833004 	add	r3, r3, r4
 c0015a4:	e08c3003 	add	r3, ip, r3
 c0015a8:	e5d33000 	ldrb	r3, [r3]
 c0015ac:	e1a03223 	lsr	r3, r3, #4
 c0015b0:	e20330ff 	and	r3, r3, #255	; 0xff
 c0015b4:	e20330ff 	and	r3, r3, #255	; 0xff
 c0015b8:	e1a02000 	mov	r2, r0
 c0015bc:	e1823003 	orr	r3, r2, r3
 c0015c0:	e20330ff 	and	r3, r3, #255	; 0xff
 c0015c4:	e20330ff 	and	r3, r3, #255	; 0xff
 c0015c8:	e5c13000 	strb	r3, [r1]
				(*(INT8U*)ulAddr1) &= 0x0f;
 c0015cc:	e51b3024 	ldr	r3, [fp, #-36]	; 0xffffffdc
 c0015d0:	e51b2024 	ldr	r2, [fp, #-36]	; 0xffffffdc
 c0015d4:	e5d22000 	ldrb	r2, [r2]
 c0015d8:	e202200f 	and	r2, r2, #15
 c0015dc:	e20220ff 	and	r2, r2, #255	; 0xff
 c0015e0:	e5c32000 	strb	r2, [r3]
				(*(INT8U*)ulAddr1) |= ((ucCursorBackUp[i][j/2] << 4) & 0xf0);
 c0015e4:	e51b1024 	ldr	r1, [fp, #-36]	; 0xffffffdc
 c0015e8:	e51b3024 	ldr	r3, [fp, #-36]	; 0xffffffdc
 c0015ec:	e5d33000 	ldrb	r3, [r3]
 c0015f0:	e20300ff 	and	r0, r3, #255	; 0xff
 c0015f4:	e51b301c 	ldr	r3, [fp, #-28]	; 0xffffffe4
 c0015f8:	e1a040a3 	lsr	r4, r3, #1
 c0015fc:	e59fc0bc 	ldr	ip, [pc, #188]	; c0016c0 <BitmapPop+0x288>
 c001600:	e51b2018 	ldr	r2, [fp, #-24]	; 0xffffffe8
 c001604:	e1a03002 	mov	r3, r2
 c001608:	e1a03083 	lsl	r3, r3, #1
 c00160c:	e0833002 	add	r3, r3, r2
 c001610:	e1a03083 	lsl	r3, r3, #1
 c001614:	e0833004 	add	r3, r3, r4
 c001618:	e08c3003 	add	r3, ip, r3
 c00161c:	e5d33000 	ldrb	r3, [r3]
 c001620:	e1a03203 	lsl	r3, r3, #4
 c001624:	e20330ff 	and	r3, r3, #255	; 0xff
 c001628:	e1a02000 	mov	r2, r0
 c00162c:	e1823003 	orr	r3, r2, r3
 c001630:	e20330ff 	and	r3, r3, #255	; 0xff
 c001634:	e20330ff 	and	r3, r3, #255	; 0xff
 c001638:	e5c13000 	strb	r3, [r1]
 c00163c:	ea00000c 	b	c001674 <BitmapPop+0x23c>
			}
			else
			{
				(*(INT8U*)ulAddr) = ucCursorBackUp[i][j/2];
 c001640:	e51b1020 	ldr	r1, [fp, #-32]	; 0xffffffe0
 c001644:	e51b301c 	ldr	r3, [fp, #-28]	; 0xffffffe4
 c001648:	e1a0c0a3 	lsr	ip, r3, #1
 c00164c:	e59f006c 	ldr	r0, [pc, #108]	; c0016c0 <BitmapPop+0x288>
 c001650:	e51b2018 	ldr	r2, [fp, #-24]	; 0xffffffe8
 c001654:	e1a03002 	mov	r3, r2
 c001658:	e1a03083 	lsl	r3, r3, #1
 c00165c:	e0833002 	add	r3, r3, r2
 c001660:	e1a03083 	lsl	r3, r3, #1
 c001664:	e083300c 	add	r3, r3, ip
 c001668:	e0803003 	add	r3, r0, r3
 c00166c:	e5d33000 	ldrb	r3, [r3]
 c001670:	e5c13000 	strb	r3, [r1]
	INT32U i, j;
	INT32U ulAddr, ulAddr1;

	for (i =  0; i < Stru_Bitmap.usHeight; i++)
	{
		for (j = 0; j <Stru_Bitmap.usWidth; j+=2)
 c001674:	e51b301c 	ldr	r3, [fp, #-28]	; 0xffffffe4
 c001678:	e2833002 	add	r3, r3, #2
 c00167c:	e50b301c 	str	r3, [fp, #-28]	; 0xffffffe4
 c001680:	e1db30b6 	ldrh	r3, [fp, #6]
 c001684:	e1a02003 	mov	r2, r3
 c001688:	e51b301c 	ldr	r3, [fp, #-28]	; 0xffffffe4
 c00168c:	e1520003 	cmp	r2, r3
 c001690:	8affff77 	bhi	c001474 <BitmapPop+0x3c>
void BitmapPop(INT16U x, INT16U y, STRU_BITMAP Stru_Bitmap)
{
	INT32U i, j;
	INT32U ulAddr, ulAddr1;

	for (i =  0; i < Stru_Bitmap.usHeight; i++)
 c001694:	e51b3018 	ldr	r3, [fp, #-24]	; 0xffffffe8
 c001698:	e2833001 	add	r3, r3, #1
 c00169c:	e50b3018 	str	r3, [fp, #-24]	; 0xffffffe8
 c0016a0:	e1db30b8 	ldrh	r3, [fp, #8]
 c0016a4:	e1a02003 	mov	r2, r3
 c0016a8:	e51b3018 	ldr	r3, [fp, #-24]	; 0xffffffe8
 c0016ac:	e1520003 	cmp	r2, r3
 c0016b0:	8affff6c 	bhi	c001468 <BitmapPop+0x30>
				(*(INT8U*)ulAddr) = ucCursorBackUp[i][j/2];
			}
			
		}
	}
}
 c0016b4:	e24bd010 	sub	sp, fp, #16
 c0016b8:	e89d6810 	ldm	sp, {r4, fp, sp, lr}
 c0016bc:	e12fff1e 	bx	lr
 c0016c0:	0c009b1c 	.word	0x0c009b1c

0c0016c4 <CursorInit>:
* ret:		none
* modify:
* comment:		
*********************************************************************************************/
void CursorInit(void)
{
 c0016c4:	e1a0c00d 	mov	ip, sp
 c0016c8:	e92dd800 	push	{fp, ip, lr, pc}
 c0016cc:	e24cb004 	sub	fp, ip, #4
	ulMouseX = 0;
 c0016d0:	e59f3038 	ldr	r3, [pc, #56]	; c001710 <CursorInit+0x4c>
 c0016d4:	e3a02000 	mov	r2, #0
 c0016d8:	e1c320b0 	strh	r2, [r3]
	ulMouseY = 0;
 c0016dc:	e59f3030 	ldr	r3, [pc, #48]	; c001714 <CursorInit+0x50>
 c0016e0:	e3a02000 	mov	r2, #0
 c0016e4:	e1c320b0 	strh	r2, [r3]
	CursorView(ulMouseX, ulMouseY);
 c0016e8:	e59f3020 	ldr	r3, [pc, #32]	; c001710 <CursorInit+0x4c>
 c0016ec:	e1d320b0 	ldrh	r2, [r3]
 c0016f0:	e59f301c 	ldr	r3, [pc, #28]	; c001714 <CursorInit+0x50>
 c0016f4:	e1d330b0 	ldrh	r3, [r3]
 c0016f8:	e1a00002 	mov	r0, r2
 c0016fc:	e1a01003 	mov	r1, r3
 c001700:	eb000032 	bl	c0017d0 <CursorView>
}
 c001704:	e24bd00c 	sub	sp, fp, #12
 c001708:	e89d6800 	ldm	sp, {fp, sp, lr}
 c00170c:	e12fff1e 	bx	lr
 c001710:	0c009b96 	.word	0x0c009b96
 c001714:	0c009b94 	.word	0x0c009b94

0c001718 <CursorPush>:
* ret:		none
* modify:
* comment:		
*********************************************************************************************/
void CursorPush(INT16U x, INT16U y)
{
 c001718:	e1a0c00d 	mov	ip, sp
 c00171c:	e92dd800 	push	{fp, ip, lr, pc}
 c001720:	e24cb004 	sub	fp, ip, #4
 c001724:	e24dd010 	sub	sp, sp, #16
 c001728:	e1a02000 	mov	r2, r0
 c00172c:	e1a03001 	mov	r3, r1
 c001730:	e14b20be 	strh	r2, [fp, #-14]
 c001734:	e14b31b0 	strh	r3, [fp, #-16]
	BitmapPush(x, y, Stru_Bitmap_gbMouse);
 c001738:	e15be0be 	ldrh	lr, [fp, #-14]
 c00173c:	e15bc1b0 	ldrh	ip, [fp, #-16]
 c001740:	e59f3028 	ldr	r3, [pc, #40]	; c001770 <CursorPush+0x58>
 c001744:	e1a0200d 	mov	r2, sp
 c001748:	e2831008 	add	r1, r3, #8
 c00174c:	e8910003 	ldm	r1, {r0, r1}
 c001750:	e8820003 	stm	r2, {r0, r1}
 c001754:	e893000c 	ldm	r3, {r2, r3}
 c001758:	e1a0000e 	mov	r0, lr
 c00175c:	e1a0100c 	mov	r1, ip
 c001760:	ebfffe99 	bl	c0011cc <BitmapPush>
}
 c001764:	e24bd00c 	sub	sp, fp, #12
 c001768:	e89d6800 	ldm	sp, {fp, sp, lr}
 c00176c:	e12fff1e 	bx	lr
 c001770:	0c0077b8 	.word	0x0c0077b8

0c001774 <CursorPop>:
* ret:		none
* modify:
* comment:		
*********************************************************************************************/
void CursorPop()
{
 c001774:	e1a0c00d 	mov	ip, sp
 c001778:	e92dd800 	push	{fp, ip, lr, pc}
 c00177c:	e24cb004 	sub	fp, ip, #4
 c001780:	e24dd008 	sub	sp, sp, #8
	BitmapPop(ulMouseX, ulMouseY, Stru_Bitmap_gbMouse);
 c001784:	e59f3038 	ldr	r3, [pc, #56]	; c0017c4 <CursorPop+0x50>
 c001788:	e1d3e0b0 	ldrh	lr, [r3]
 c00178c:	e59f3034 	ldr	r3, [pc, #52]	; c0017c8 <CursorPop+0x54>
 c001790:	e1d3c0b0 	ldrh	ip, [r3]
 c001794:	e59f3030 	ldr	r3, [pc, #48]	; c0017cc <CursorPop+0x58>
 c001798:	e1a0200d 	mov	r2, sp
 c00179c:	e2831008 	add	r1, r3, #8
 c0017a0:	e8910003 	ldm	r1, {r0, r1}
 c0017a4:	e8820003 	stm	r2, {r0, r1}
 c0017a8:	e893000c 	ldm	r3, {r2, r3}
 c0017ac:	e1a0000e 	mov	r0, lr
 c0017b0:	e1a0100c 	mov	r1, ip
 c0017b4:	ebffff1f 	bl	c001438 <BitmapPop>
}
 c0017b8:	e24bd00c 	sub	sp, fp, #12
 c0017bc:	e89d6800 	ldm	sp, {fp, sp, lr}
 c0017c0:	e12fff1e 	bx	lr
 c0017c4:	0c009b96 	.word	0x0c009b96
 c0017c8:	0c009b94 	.word	0x0c009b94
 c0017cc:	0c0077b8 	.word	0x0c0077b8

0c0017d0 <CursorView>:
* ret:		none
* modify:
* comment:		
*********************************************************************************************/
void CursorView(INT16U x, INT16U y)
{
 c0017d0:	e1a0c00d 	mov	ip, sp
 c0017d4:	e92dd800 	push	{fp, ip, lr, pc}
 c0017d8:	e24cb004 	sub	fp, ip, #4
 c0017dc:	e24dd010 	sub	sp, sp, #16
 c0017e0:	e1a02000 	mov	r2, r0
 c0017e4:	e1a03001 	mov	r3, r1
 c0017e8:	e14b20be 	strh	r2, [fp, #-14]
 c0017ec:	e14b31b0 	strh	r3, [fp, #-16]
	CursorPush(x, y);
 c0017f0:	e15b20be 	ldrh	r2, [fp, #-14]
 c0017f4:	e15b31b0 	ldrh	r3, [fp, #-16]
 c0017f8:	e1a00002 	mov	r0, r2
 c0017fc:	e1a01003 	mov	r1, r3
 c001800:	ebffffc4 	bl	c001718 <CursorPush>
	BitmapView(x, y, Stru_Bitmap_gbMouse);
 c001804:	e15be0be 	ldrh	lr, [fp, #-14]
 c001808:	e15bc1b0 	ldrh	ip, [fp, #-16]
 c00180c:	e59f3028 	ldr	r3, [pc, #40]	; c00183c <CursorView+0x6c>
 c001810:	e1a0200d 	mov	r2, sp
 c001814:	e2831008 	add	r1, r3, #8
 c001818:	e8910003 	ldm	r1, {r0, r1}
 c00181c:	e8820003 	stm	r2, {r0, r1}
 c001820:	e893000c 	ldm	r3, {r2, r3}
 c001824:	e1a0000e 	mov	r0, lr
 c001828:	e1a0100c 	mov	r1, ip
 c00182c:	ebfffe03 	bl	c001040 <BitmapView>
}
 c001830:	e24bd00c 	sub	sp, fp, #12
 c001834:	e89d6800 	ldm	sp, {fp, sp, lr}
 c001838:	e12fff1e 	bx	lr
 c00183c:	0c0077b8 	.word	0x0c0077b8

0c001840 <celda_poner_valor>:
	
	/* *****************************************************************************
	 * modifica el valor almacenado en la celda indicada */
	__inline static void
	celda_poner_valor(CELDA *celdaptr, uint8_t val)
	{
 c001840:	e1a0c00d 	mov	ip, sp
 c001844:	e92dd800 	push	{fp, ip, lr, pc}
 c001848:	e24cb004 	sub	fp, ip, #4
 c00184c:	e24dd008 	sub	sp, sp, #8
 c001850:	e50b0010 	str	r0, [fp, #-16]
 c001854:	e1a03001 	mov	r3, r1
 c001858:	e54b3011 	strb	r3, [fp, #-17]	; 0xffffffef
		*celdaptr = (*celdaptr & 0xFFF0) | (val & 0x000F);
 c00185c:	e51b3010 	ldr	r3, [fp, #-16]
 c001860:	e1d330b0 	ldrh	r3, [r3]
 c001864:	e1a03803 	lsl	r3, r3, #16
 c001868:	e1a03823 	lsr	r3, r3, #16
 c00186c:	e3c3300f 	bic	r3, r3, #15
 c001870:	e1a03803 	lsl	r3, r3, #16
 c001874:	e1a02823 	lsr	r2, r3, #16
 c001878:	e55b3011 	ldrb	r3, [fp, #-17]	; 0xffffffef
 c00187c:	e1a03803 	lsl	r3, r3, #16
 c001880:	e1a03823 	lsr	r3, r3, #16
 c001884:	e203300f 	and	r3, r3, #15
 c001888:	e1a03803 	lsl	r3, r3, #16
 c00188c:	e1a03823 	lsr	r3, r3, #16
 c001890:	e1823003 	orr	r3, r2, r3
 c001894:	e1a03803 	lsl	r3, r3, #16
 c001898:	e1a03823 	lsr	r3, r3, #16
 c00189c:	e1a03803 	lsl	r3, r3, #16
 c0018a0:	e1a02823 	lsr	r2, r3, #16
 c0018a4:	e51b3010 	ldr	r3, [fp, #-16]
 c0018a8:	e1c320b0 	strh	r2, [r3]
	}
 c0018ac:	e24bd00c 	sub	sp, fp, #12
 c0018b0:	e89d6800 	ldm	sp, {fp, sp, lr}
 c0018b4:	e12fff1e 	bx	lr

0c0018b8 <celda_leer_valor>:
	
	/* *****************************************************************************
	 * extrae el valor almacenado en los 16 bits de una celda */
        __inline static uint8_t
        celda_leer_valor(CELDA celda)
        {
 c0018b8:	e1a0c00d 	mov	ip, sp
 c0018bc:	e92dd800 	push	{fp, ip, lr, pc}
 c0018c0:	e24cb004 	sub	fp, ip, #4
 c0018c4:	e24dd008 	sub	sp, sp, #8
 c0018c8:	e1a03000 	mov	r3, r0
 c0018cc:	e14b30be 	strh	r3, [fp, #-14]
                return (celda & 0x000F);
 c0018d0:	e15b30be 	ldrh	r3, [fp, #-14]
 c0018d4:	e20330ff 	and	r3, r3, #255	; 0xff
 c0018d8:	e203300f 	and	r3, r3, #15
 c0018dc:	e20330ff 	and	r3, r3, #255	; 0xff
        }
 c0018e0:	e1a00003 	mov	r0, r3
 c0018e4:	e24bd00c 	sub	sp, fp, #12
 c0018e8:	e89d6800 	ldm	sp, {fp, sp, lr}
 c0018ec:	e12fff1e 	bx	lr

0c0018f0 <celda_es_candidato>:

        /* *****************************************************************************
         * comprueba si el valor es candidato en la celda indicada */
        __inline static int
        celda_es_candidato(CELDA celda, uint8_t valor)
        {
 c0018f0:	e1a0c00d 	mov	ip, sp
 c0018f4:	e92dd800 	push	{fp, ip, lr, pc}
 c0018f8:	e24cb004 	sub	fp, ip, #4
 c0018fc:	e24dd008 	sub	sp, sp, #8
 c001900:	e1a02000 	mov	r2, r0
 c001904:	e1a03001 	mov	r3, r1
 c001908:	e14b20be 	strh	r2, [fp, #-14]
 c00190c:	e54b300f 	strb	r3, [fp, #-15]
                return (celda & (0x0001 << (BIT_CANDIDATOS + valor - 1))) == 0;
 c001910:	e15b20be 	ldrh	r2, [fp, #-14]
 c001914:	e55b300f 	ldrb	r3, [fp, #-15]
 c001918:	e2833006 	add	r3, r3, #6
 c00191c:	e1a03352 	asr	r3, r2, r3
 c001920:	e2033001 	and	r3, r3, #1
 c001924:	e3530000 	cmp	r3, #0
 c001928:	13a03000 	movne	r3, #0
 c00192c:	03a03001 	moveq	r3, #1
        }
 c001930:	e1a00003 	mov	r0, r3
 c001934:	e24bd00c 	sub	sp, fp, #12
 c001938:	e89d6800 	ldm	sp, {fp, sp, lr}
 c00193c:	e12fff1e 	bx	lr

0c001940 <celda_es_pista>:

        /* *****************************************************************************
         * comprueba si la celda es una pista */
        __inline static int
        celda_es_pista(CELDA celda)
        {
 c001940:	e1a0c00d 	mov	ip, sp
 c001944:	e92dd800 	push	{fp, ip, lr, pc}
 c001948:	e24cb004 	sub	fp, ip, #4
 c00194c:	e24dd008 	sub	sp, sp, #8
 c001950:	e1a03000 	mov	r3, r0
 c001954:	e14b30be 	strh	r3, [fp, #-14]
                return (celda & (1 << BIT_PISTA)) != 0;
 c001958:	e15b30be 	ldrh	r3, [fp, #-14]
 c00195c:	e2033010 	and	r3, r3, #16
 c001960:	e3530000 	cmp	r3, #0
 c001964:	03a03000 	moveq	r3, #0
 c001968:	13a03001 	movne	r3, #1
        }
 c00196c:	e1a00003 	mov	r0, r3
 c001970:	e24bd00c 	sub	sp, fp, #12
 c001974:	e89d6800 	ldm	sp, {fp, sp, lr}
 c001978:	e12fff1e 	bx	lr

0c00197c <celda_marcar_error>:

        /* *****************************************************************************
         * marca o limpia el bit de error de la celda */
        __inline static void
        celda_marcar_error(CELDA *celdaptr)
        {
 c00197c:	e1a0c00d 	mov	ip, sp
 c001980:	e92dd800 	push	{fp, ip, lr, pc}
 c001984:	e24cb004 	sub	fp, ip, #4
 c001988:	e24dd008 	sub	sp, sp, #8
 c00198c:	e50b0010 	str	r0, [fp, #-16]
                *celdaptr |= (1 << BIT_ERROR);
 c001990:	e51b3010 	ldr	r3, [fp, #-16]
 c001994:	e1d330b0 	ldrh	r3, [r3]
 c001998:	e3833020 	orr	r3, r3, #32
 c00199c:	e1a03803 	lsl	r3, r3, #16
 c0019a0:	e1a02823 	lsr	r2, r3, #16
 c0019a4:	e51b3010 	ldr	r3, [fp, #-16]
 c0019a8:	e1c320b0 	strh	r2, [r3]
        }
 c0019ac:	e24bd00c 	sub	sp, fp, #12
 c0019b0:	e89d6800 	ldm	sp, {fp, sp, lr}
 c0019b4:	e12fff1e 	bx	lr

0c0019b8 <celda_limpiar_error>:

        __inline static void
        celda_limpiar_error(CELDA *celdaptr)
        {
 c0019b8:	e1a0c00d 	mov	ip, sp
 c0019bc:	e92dd800 	push	{fp, ip, lr, pc}
 c0019c0:	e24cb004 	sub	fp, ip, #4
 c0019c4:	e24dd008 	sub	sp, sp, #8
 c0019c8:	e50b0010 	str	r0, [fp, #-16]
                *celdaptr &= ~(1 << BIT_ERROR);
 c0019cc:	e51b3010 	ldr	r3, [fp, #-16]
 c0019d0:	e1d330b0 	ldrh	r3, [r3]
 c0019d4:	e3c33020 	bic	r3, r3, #32
 c0019d8:	e1a03803 	lsl	r3, r3, #16
 c0019dc:	e1a02823 	lsr	r2, r3, #16
 c0019e0:	e51b3010 	ldr	r3, [fp, #-16]
 c0019e4:	e1c320b0 	strh	r2, [r3]
        }
 c0019e8:	e24bd00c 	sub	sp, fp, #12
 c0019ec:	e89d6800 	ldm	sp, {fp, sp, lr}
 c0019f0:	e12fff1e 	bx	lr

0c0019f4 <boton_confirmado>:
extern CELDA (*cuadricula)[NUM_COLUMNAS];
extern int celdas_vacias;

/* Callback para recibir la confirmacin de pulsaciones filtradas por el timer3 */
static void boton_confirmado(uint8_t boton_id) // MODIFICAR FUNCIONES ACTUALIZAR Y PROPAGAR SEGUN LA VERSIN A PROBAR
{
 c0019f4:	e1a0c00d 	mov	ip, sp
 c0019f8:	e92dd800 	push	{fp, ip, lr, pc}
 c0019fc:	e24cb004 	sub	fp, ip, #4
 c001a00:	e24dd008 	sub	sp, sp, #8
 c001a04:	e1a03000 	mov	r3, r0
 c001a08:	e54b300d 	strb	r3, [fp, #-13]
        cola_depuracion(timer2_count(), boton_id, estado_juego);
 c001a0c:	eb000fd2 	bl	c00595c <timer2_count>
 c001a10:	e1a01000 	mov	r1, r0
 c001a14:	e59f362c 	ldr	r3, [pc, #1580]	; c002048 <boton_confirmado+0x654>
 c001a18:	e5d33000 	ldrb	r3, [r3]
 c001a1c:	e20330ff 	and	r3, r3, #255	; 0xff
 c001a20:	e55b200d 	ldrb	r2, [fp, #-13]
 c001a24:	e1a00001 	mov	r0, r1
 c001a28:	e1a01002 	mov	r1, r2
 c001a2c:	e1a02003 	mov	r2, r3
 c001a30:	eb000231 	bl	c0022fc <cola_depuracion>
        
        switch (estado_juego)
 c001a34:	e59f360c 	ldr	r3, [pc, #1548]	; c002048 <boton_confirmado+0x654>
 c001a38:	e5d33000 	ldrb	r3, [r3]
 c001a3c:	e20330ff 	and	r3, r3, #255	; 0xff
 c001a40:	e3530005 	cmp	r3, #5
 c001a44:	979ff103 	ldrls	pc, [pc, r3, lsl #2]
 c001a48:	ea00017b 	b	c00203c <boton_confirmado+0x648>
 c001a4c:	0c001a64 	.word	0x0c001a64
 c001a50:	0c001aa4 	.word	0x0c001aa4
 c001a54:	0c001b54 	.word	0x0c001b54
 c001a58:	0c001c14 	.word	0x0c001c14
 c001a5c:	0c001c9c 	.word	0x0c001c9c
 c001a60:	0c001d3c 	.word	0x0c001d3c
        {
                case ESPERANDO_INICIO:
                        /* Cualquier botn inicia el juego */
                        /* Calcular candidatos por primera vez */
                        celdas_vacias = candidatos_actualizar_all(cuadricula);
 c001a64:	e59f35e0 	ldr	r3, [pc, #1504]	; c00204c <boton_confirmado+0x658>
 c001a68:	e5933000 	ldr	r3, [r3]
 c001a6c:	e1a00003 	mov	r0, r3
 c001a70:	eb000336 	bl	c002750 <candidatos_actualizar_all>
 c001a74:	e1a02000 	mov	r2, r0
 c001a78:	e59f35d0 	ldr	r3, [pc, #1488]	; c002050 <boton_confirmado+0x65c>
 c001a7c:	e5832000 	str	r2, [r3]
                        /* Pasar a introducir fila */
                        estado_juego = INTRODUCIR_FILA;
 c001a80:	e59f35c0 	ldr	r3, [pc, #1472]	; c002048 <boton_confirmado+0x654>
 c001a84:	e3a02001 	mov	r2, #1
 c001a88:	e5c32000 	strb	r2, [r3]
                        int_count = 0;
 c001a8c:	e59f35c0 	ldr	r3, [pc, #1472]	; c002054 <boton_confirmado+0x660>
 c001a90:	e3a02000 	mov	r2, #0
 c001a94:	e5c32000 	strb	r2, [r3]
                        D8Led_symbol(15);  /* Mostrar 'F' de Fila (ndice 15 en el array Symbol) */
 c001a98:	e3a0000f 	mov	r0, #15
 c001a9c:	ebfffd52 	bl	c000fec <D8Led_symbol>
                        break;
 c001aa0:	ea000165 	b	c00203c <boton_confirmado+0x648>
                
                case INTRODUCIR_FILA:
                        if (boton_id == EVENTO_BOTON_DERECHO)
 c001aa4:	e55b300d 	ldrb	r3, [fp, #-13]
 c001aa8:	e3530008 	cmp	r3, #8
 c001aac:	1a000015 	bne	c001b08 <boton_confirmado+0x114>
                        {
                                /* Incrementar fila */
                                int_count++;
 c001ab0:	e59f359c 	ldr	r3, [pc, #1436]	; c002054 <boton_confirmado+0x660>
 c001ab4:	e5d33000 	ldrb	r3, [r3]
 c001ab8:	e20330ff 	and	r3, r3, #255	; 0xff
 c001abc:	e2833001 	add	r3, r3, #1
 c001ac0:	e20320ff 	and	r2, r3, #255	; 0xff
 c001ac4:	e59f3588 	ldr	r3, [pc, #1416]	; c002054 <boton_confirmado+0x660>
 c001ac8:	e5c32000 	strb	r2, [r3]
                                if (int_count > 9)
 c001acc:	e59f3580 	ldr	r3, [pc, #1408]	; c002054 <boton_confirmado+0x660>
 c001ad0:	e5d33000 	ldrb	r3, [r3]
 c001ad4:	e20330ff 	and	r3, r3, #255	; 0xff
 c001ad8:	e3530009 	cmp	r3, #9
 c001adc:	9a000002 	bls	c001aec <boton_confirmado+0xf8>
                                {
                                        int_count = 1;
 c001ae0:	e59f356c 	ldr	r3, [pc, #1388]	; c002054 <boton_confirmado+0x660>
 c001ae4:	e3a02001 	mov	r2, #1
 c001ae8:	e5c32000 	strb	r2, [r3]
                                }
                                D8Led_symbol(int_count & 0x000f);
 c001aec:	e59f3560 	ldr	r3, [pc, #1376]	; c002054 <boton_confirmado+0x660>
 c001af0:	e5d33000 	ldrb	r3, [r3]
 c001af4:	e20330ff 	and	r3, r3, #255	; 0xff
 c001af8:	e203300f 	and	r3, r3, #15
 c001afc:	e1a00003 	mov	r0, r3
 c001b00:	ebfffd39 	bl	c000fec <D8Led_symbol>
                                fila = int_count - 1;  /* Convertir a ndice 0-8 */
                                estado_juego = INTRODUCIR_COLUMNA;
                                int_count = 0;
                                D8Led_symbol(12);  /* Mostrar 'C' de Columna (ndice 12 en el array Symbol) */
                        }
                        break;
 c001b04:	ea00014c 	b	c00203c <boton_confirmado+0x648>
                                {
                                        int_count = 1;
                                }
                                D8Led_symbol(int_count & 0x000f);
                        }
                        else if (boton_id == EVENTO_BOTON_IZQUIERDO)
 c001b08:	e55b300d 	ldrb	r3, [fp, #-13]
 c001b0c:	e3530004 	cmp	r3, #4
 c001b10:	1a000144 	bne	c002028 <boton_confirmado+0x634>
                        {
                                /* Confirmar fila y pasar a introducir columna */
                                fila = int_count - 1;  /* Convertir a ndice 0-8 */
 c001b14:	e59f3538 	ldr	r3, [pc, #1336]	; c002054 <boton_confirmado+0x660>
 c001b18:	e5d33000 	ldrb	r3, [r3]
 c001b1c:	e20330ff 	and	r3, r3, #255	; 0xff
 c001b20:	e2433001 	sub	r3, r3, #1
 c001b24:	e20320ff 	and	r2, r3, #255	; 0xff
 c001b28:	e59f3528 	ldr	r3, [pc, #1320]	; c002058 <boton_confirmado+0x664>
 c001b2c:	e5c32000 	strb	r2, [r3]
                                estado_juego = INTRODUCIR_COLUMNA;
 c001b30:	e59f3510 	ldr	r3, [pc, #1296]	; c002048 <boton_confirmado+0x654>
 c001b34:	e3a02002 	mov	r2, #2
 c001b38:	e5c32000 	strb	r2, [r3]
                                int_count = 0;
 c001b3c:	e59f3510 	ldr	r3, [pc, #1296]	; c002054 <boton_confirmado+0x660>
 c001b40:	e3a02000 	mov	r2, #0
 c001b44:	e5c32000 	strb	r2, [r3]
                                D8Led_symbol(12);  /* Mostrar 'C' de Columna (ndice 12 en el array Symbol) */
 c001b48:	e3a0000c 	mov	r0, #12
 c001b4c:	ebfffd26 	bl	c000fec <D8Led_symbol>
                        }
                        break;
 c001b50:	ea000139 	b	c00203c <boton_confirmado+0x648>
                
                case INTRODUCIR_COLUMNA:
                        if (boton_id == EVENTO_BOTON_DERECHO)
 c001b54:	e55b300d 	ldrb	r3, [fp, #-13]
 c001b58:	e3530008 	cmp	r3, #8
 c001b5c:	1a000015 	bne	c001bb8 <boton_confirmado+0x1c4>
                        {
                                /* Incrementar columna */
                                int_count++;
 c001b60:	e59f34ec 	ldr	r3, [pc, #1260]	; c002054 <boton_confirmado+0x660>
 c001b64:	e5d33000 	ldrb	r3, [r3]
 c001b68:	e20330ff 	and	r3, r3, #255	; 0xff
 c001b6c:	e2833001 	add	r3, r3, #1
 c001b70:	e20320ff 	and	r2, r3, #255	; 0xff
 c001b74:	e59f34d8 	ldr	r3, [pc, #1240]	; c002054 <boton_confirmado+0x660>
 c001b78:	e5c32000 	strb	r2, [r3]
                                if (int_count > 9)
 c001b7c:	e59f34d0 	ldr	r3, [pc, #1232]	; c002054 <boton_confirmado+0x660>
 c001b80:	e5d33000 	ldrb	r3, [r3]
 c001b84:	e20330ff 	and	r3, r3, #255	; 0xff
 c001b88:	e3530009 	cmp	r3, #9
 c001b8c:	9a000002 	bls	c001b9c <boton_confirmado+0x1a8>
                                {
                                        int_count = 1;
 c001b90:	e59f34bc 	ldr	r3, [pc, #1212]	; c002054 <boton_confirmado+0x660>
 c001b94:	e3a02001 	mov	r2, #1
 c001b98:	e5c32000 	strb	r2, [r3]
                                }
                                D8Led_symbol(int_count & 0x000f);
 c001b9c:	e59f34b0 	ldr	r3, [pc, #1200]	; c002054 <boton_confirmado+0x660>
 c001ba0:	e5d33000 	ldrb	r3, [r3]
 c001ba4:	e20330ff 	and	r3, r3, #255	; 0xff
 c001ba8:	e203300f 	and	r3, r3, #15
 c001bac:	e1a00003 	mov	r0, r3
 c001bb0:	ebfffd0d 	bl	c000fec <D8Led_symbol>
                                columna = int_count - 1;  /* Convertir a ndice 0-8 */
                                estado_juego = VERIFICAR_CELDA;
                                int_count = 0;
                                D8Led_symbol(int_count & 0x000f);
                        }
                        break;
 c001bb4:	ea000120 	b	c00203c <boton_confirmado+0x648>
                                {
                                        int_count = 1;
                                }
                                D8Led_symbol(int_count & 0x000f);
                        }
                        else if (boton_id == EVENTO_BOTON_IZQUIERDO)
 c001bb8:	e55b300d 	ldrb	r3, [fp, #-13]
 c001bbc:	e3530004 	cmp	r3, #4
 c001bc0:	1a00011a 	bne	c002030 <boton_confirmado+0x63c>
                        {
                                /* Confirmar columna y pasar a introducir valor */
                                columna = int_count - 1;  /* Convertir a ndice 0-8 */
 c001bc4:	e59f3488 	ldr	r3, [pc, #1160]	; c002054 <boton_confirmado+0x660>
 c001bc8:	e5d33000 	ldrb	r3, [r3]
 c001bcc:	e20330ff 	and	r3, r3, #255	; 0xff
 c001bd0:	e2433001 	sub	r3, r3, #1
 c001bd4:	e20320ff 	and	r2, r3, #255	; 0xff
 c001bd8:	e59f347c 	ldr	r3, [pc, #1148]	; c00205c <boton_confirmado+0x668>
 c001bdc:	e5c32000 	strb	r2, [r3]
                                estado_juego = VERIFICAR_CELDA;
 c001be0:	e59f3460 	ldr	r3, [pc, #1120]	; c002048 <boton_confirmado+0x654>
 c001be4:	e3a02003 	mov	r2, #3
 c001be8:	e5c32000 	strb	r2, [r3]
                                int_count = 0;
 c001bec:	e59f3460 	ldr	r3, [pc, #1120]	; c002054 <boton_confirmado+0x660>
 c001bf0:	e3a02000 	mov	r2, #0
 c001bf4:	e5c32000 	strb	r2, [r3]
                                D8Led_symbol(int_count & 0x000f);
 c001bf8:	e59f3454 	ldr	r3, [pc, #1108]	; c002054 <boton_confirmado+0x660>
 c001bfc:	e5d33000 	ldrb	r3, [r3]
 c001c00:	e20330ff 	and	r3, r3, #255	; 0xff
 c001c04:	e203300f 	and	r3, r3, #15
 c001c08:	e1a00003 	mov	r0, r3
 c001c0c:	ebfffcf6 	bl	c000fec <D8Led_symbol>
                        }
                        break;
 c001c10:	ea000109 	b	c00203c <boton_confirmado+0x648>
                
                case VERIFICAR_CELDA:
                        /* Primero se verifica si la celda[fila][columna] no es una pista */
                        if (celda_es_pista(cuadricula[fila][columna]))
 c001c14:	e59f3430 	ldr	r3, [pc, #1072]	; c00204c <boton_confirmado+0x658>
 c001c18:	e5932000 	ldr	r2, [r3]
 c001c1c:	e59f3434 	ldr	r3, [pc, #1076]	; c002058 <boton_confirmado+0x664>
 c001c20:	e5d33000 	ldrb	r3, [r3]
 c001c24:	e20330ff 	and	r3, r3, #255	; 0xff
 c001c28:	e1a03283 	lsl	r3, r3, #5
 c001c2c:	e0822003 	add	r2, r2, r3
 c001c30:	e59f3424 	ldr	r3, [pc, #1060]	; c00205c <boton_confirmado+0x668>
 c001c34:	e5d33000 	ldrb	r3, [r3]
 c001c38:	e20330ff 	and	r3, r3, #255	; 0xff
 c001c3c:	e1a03083 	lsl	r3, r3, #1
 c001c40:	e0823003 	add	r3, r2, r3
 c001c44:	e1d330b0 	ldrh	r3, [r3]
 c001c48:	e1a00003 	mov	r0, r3
 c001c4c:	ebffff3b 	bl	c001940 <celda_es_pista>
 c001c50:	e1a03000 	mov	r3, r0
 c001c54:	e3530000 	cmp	r3, #0
 c001c58:	0a000008 	beq	c001c80 <boton_confirmado+0x28c>
                        {
                                // Se vuelve al estado INTRODUCIR_FILA
                                estado_juego = INTRODUCIR_FILA;
 c001c5c:	e59f33e4 	ldr	r3, [pc, #996]	; c002048 <boton_confirmado+0x654>
 c001c60:	e3a02001 	mov	r2, #1
 c001c64:	e5c32000 	strb	r2, [r3]
                                int_count = 0;
 c001c68:	e59f33e4 	ldr	r3, [pc, #996]	; c002054 <boton_confirmado+0x660>
 c001c6c:	e3a02000 	mov	r2, #0
 c001c70:	e5c32000 	strb	r2, [r3]
                                D8Led_symbol(15);  /* Mostrar 'F' de Fila (ndice 15 en el array Symbol) */
 c001c74:	e3a0000f 	mov	r0, #15
 c001c78:	ebfffcdb 	bl	c000fec <D8Led_symbol>
                        {
                                // Si no es pista, se pasa a INTRODUCIR_VALOR
                                estado_juego = INTRODUCIR_VALOR;
                                int_count = 0;
                        }
                        break;
 c001c7c:	ea0000ee 	b	c00203c <boton_confirmado+0x648>
                                D8Led_symbol(15);  /* Mostrar 'F' de Fila (ndice 15 en el array Symbol) */
                        } 
                        else
                        {
                                // Si no es pista, se pasa a INTRODUCIR_VALOR
                                estado_juego = INTRODUCIR_VALOR;
 c001c80:	e59f33c0 	ldr	r3, [pc, #960]	; c002048 <boton_confirmado+0x654>
 c001c84:	e3a02004 	mov	r2, #4
 c001c88:	e5c32000 	strb	r2, [r3]
                                int_count = 0;
 c001c8c:	e59f33c0 	ldr	r3, [pc, #960]	; c002054 <boton_confirmado+0x660>
 c001c90:	e3a02000 	mov	r2, #0
 c001c94:	e5c32000 	strb	r2, [r3]
                        }
                        break;
 c001c98:	ea0000e7 	b	c00203c <boton_confirmado+0x648>
                
                case INTRODUCIR_VALOR:
                        if (boton_id == EVENTO_BOTON_DERECHO)
 c001c9c:	e55b300d 	ldrb	r3, [fp, #-13]
 c001ca0:	e3530008 	cmp	r3, #8
 c001ca4:	1a000015 	bne	c001d00 <boton_confirmado+0x30c>
                        {
                                /* Incrementar valor */
                                int_count++;
 c001ca8:	e59f33a4 	ldr	r3, [pc, #932]	; c002054 <boton_confirmado+0x660>
 c001cac:	e5d33000 	ldrb	r3, [r3]
 c001cb0:	e20330ff 	and	r3, r3, #255	; 0xff
 c001cb4:	e2833001 	add	r3, r3, #1
 c001cb8:	e20320ff 	and	r2, r3, #255	; 0xff
 c001cbc:	e59f3390 	ldr	r3, [pc, #912]	; c002054 <boton_confirmado+0x660>
 c001cc0:	e5c32000 	strb	r2, [r3]
                                if (int_count > 9)
 c001cc4:	e59f3388 	ldr	r3, [pc, #904]	; c002054 <boton_confirmado+0x660>
 c001cc8:	e5d33000 	ldrb	r3, [r3]
 c001ccc:	e20330ff 	and	r3, r3, #255	; 0xff
 c001cd0:	e3530009 	cmp	r3, #9
 c001cd4:	9a000002 	bls	c001ce4 <boton_confirmado+0x2f0>
                                {
                                        int_count = 0;
 c001cd8:	e59f3374 	ldr	r3, [pc, #884]	; c002054 <boton_confirmado+0x660>
 c001cdc:	e3a02000 	mov	r2, #0
 c001ce0:	e5c32000 	strb	r2, [r3]
                                }
                                D8Led_symbol(int_count & 0x000f);
 c001ce4:	e59f3368 	ldr	r3, [pc, #872]	; c002054 <boton_confirmado+0x660>
 c001ce8:	e5d33000 	ldrb	r3, [r3]
 c001cec:	e20330ff 	and	r3, r3, #255	; 0xff
 c001cf0:	e203300f 	and	r3, r3, #15
 c001cf4:	e1a00003 	mov	r0, r3
 c001cf8:	ebfffcbb 	bl	c000fec <D8Led_symbol>
                                valor = int_count;  /* Valor a escribir (0-9) */
                                
                                estado_juego = VERIFICAR_VALOR;
                                int_count = 0;
                        }
                        break;
 c001cfc:	ea0000ce 	b	c00203c <boton_confirmado+0x648>
                                {
                                        int_count = 0;
                                }
                                D8Led_symbol(int_count & 0x000f);
                        }
                        else if (boton_id == EVENTO_BOTON_IZQUIERDO)
 c001d00:	e55b300d 	ldrb	r3, [fp, #-13]
 c001d04:	e3530004 	cmp	r3, #4
 c001d08:	1a0000ca 	bne	c002038 <boton_confirmado+0x644>
                        {
                                /* Confirmar valor e intentar escribir en la celda */
                                valor = int_count;  /* Valor a escribir (0-9) */
 c001d0c:	e59f3340 	ldr	r3, [pc, #832]	; c002054 <boton_confirmado+0x660>
 c001d10:	e5d33000 	ldrb	r3, [r3]
 c001d14:	e20320ff 	and	r2, r3, #255	; 0xff
 c001d18:	e59f3340 	ldr	r3, [pc, #832]	; c002060 <boton_confirmado+0x66c>
 c001d1c:	e5c32000 	strb	r2, [r3]
                                
                                estado_juego = VERIFICAR_VALOR;
 c001d20:	e59f3320 	ldr	r3, [pc, #800]	; c002048 <boton_confirmado+0x654>
 c001d24:	e3a02005 	mov	r2, #5
 c001d28:	e5c32000 	strb	r2, [r3]
                                int_count = 0;
 c001d2c:	e59f3320 	ldr	r3, [pc, #800]	; c002054 <boton_confirmado+0x660>
 c001d30:	e3a02000 	mov	r2, #0
 c001d34:	e5c32000 	strb	r2, [r3]
                        }
                        break;
 c001d38:	ea0000bf 	b	c00203c <boton_confirmado+0x648>
                
                case VERIFICAR_VALOR:
                        /* Guardar valor previo de la celda */
                        valor_previo = celda_leer_valor(cuadricula[fila][columna]);
 c001d3c:	e59f3308 	ldr	r3, [pc, #776]	; c00204c <boton_confirmado+0x658>
 c001d40:	e5932000 	ldr	r2, [r3]
 c001d44:	e59f330c 	ldr	r3, [pc, #780]	; c002058 <boton_confirmado+0x664>
 c001d48:	e5d33000 	ldrb	r3, [r3]
 c001d4c:	e20330ff 	and	r3, r3, #255	; 0xff
 c001d50:	e1a03283 	lsl	r3, r3, #5
 c001d54:	e0822003 	add	r2, r2, r3
 c001d58:	e59f32fc 	ldr	r3, [pc, #764]	; c00205c <boton_confirmado+0x668>
 c001d5c:	e5d33000 	ldrb	r3, [r3]
 c001d60:	e20330ff 	and	r3, r3, #255	; 0xff
 c001d64:	e1a03083 	lsl	r3, r3, #1
 c001d68:	e0823003 	add	r3, r2, r3
 c001d6c:	e1d330b0 	ldrh	r3, [r3]
 c001d70:	e1a00003 	mov	r0, r3
 c001d74:	ebfffecf 	bl	c0018b8 <celda_leer_valor>
 c001d78:	e1a03000 	mov	r3, r0
 c001d7c:	e1a02003 	mov	r2, r3
 c001d80:	e59f32dc 	ldr	r3, [pc, #732]	; c002064 <boton_confirmado+0x670>
 c001d84:	e5c32000 	strb	r2, [r3]
                        
                        if (valor == 0)
 c001d88:	e59f32d0 	ldr	r3, [pc, #720]	; c002060 <boton_confirmado+0x66c>
 c001d8c:	e5d33000 	ldrb	r3, [r3]
 c001d90:	e20330ff 	and	r3, r3, #255	; 0xff
 c001d94:	e3530000 	cmp	r3, #0
 c001d98:	1a00002e 	bne	c001e58 <boton_confirmado+0x464>
                        {
                                /* Valor 0 = borrar -> pasar a BORRAR_VALOR */
                                /* Borrar el valor de la celda */
                                celda_limpiar_error(&cuadricula[fila][columna]);
 c001d9c:	e59f32a8 	ldr	r3, [pc, #680]	; c00204c <boton_confirmado+0x658>
 c001da0:	e5933000 	ldr	r3, [r3]
 c001da4:	e1a02003 	mov	r2, r3
 c001da8:	e59f32a8 	ldr	r3, [pc, #680]	; c002058 <boton_confirmado+0x664>
 c001dac:	e5d33000 	ldrb	r3, [r3]
 c001db0:	e20330ff 	and	r3, r3, #255	; 0xff
 c001db4:	e1a01203 	lsl	r1, r3, #4
 c001db8:	e59f329c 	ldr	r3, [pc, #668]	; c00205c <boton_confirmado+0x668>
 c001dbc:	e5d33000 	ldrb	r3, [r3]
 c001dc0:	e20330ff 	and	r3, r3, #255	; 0xff
 c001dc4:	e0813003 	add	r3, r1, r3
 c001dc8:	e1a03083 	lsl	r3, r3, #1
 c001dcc:	e0823003 	add	r3, r2, r3
 c001dd0:	e1a00003 	mov	r0, r3
 c001dd4:	ebfffef7 	bl	c0019b8 <celda_limpiar_error>
                                celda_poner_valor(&cuadricula[fila][columna], 0);
 c001dd8:	e59f326c 	ldr	r3, [pc, #620]	; c00204c <boton_confirmado+0x658>
 c001ddc:	e5933000 	ldr	r3, [r3]
 c001de0:	e1a02003 	mov	r2, r3
 c001de4:	e59f326c 	ldr	r3, [pc, #620]	; c002058 <boton_confirmado+0x664>
 c001de8:	e5d33000 	ldrb	r3, [r3]
 c001dec:	e20330ff 	and	r3, r3, #255	; 0xff
 c001df0:	e1a01203 	lsl	r1, r3, #4
 c001df4:	e59f3260 	ldr	r3, [pc, #608]	; c00205c <boton_confirmado+0x668>
 c001df8:	e5d33000 	ldrb	r3, [r3]
 c001dfc:	e20330ff 	and	r3, r3, #255	; 0xff
 c001e00:	e0813003 	add	r3, r1, r3
 c001e04:	e1a03083 	lsl	r3, r3, #1
 c001e08:	e0823003 	add	r3, r2, r3
 c001e0c:	e1a00003 	mov	r0, r3
 c001e10:	e3a01000 	mov	r1, #0
 c001e14:	ebfffe89 	bl	c001840 <celda_poner_valor>
                                
                                /* Al borrar un valor, hay que recalcular todos los candidatos */
                                celdas_vacias = candidatos_actualizar_all(cuadricula);
 c001e18:	e59f322c 	ldr	r3, [pc, #556]	; c00204c <boton_confirmado+0x658>
 c001e1c:	e5933000 	ldr	r3, [r3]
 c001e20:	e1a00003 	mov	r0, r3
 c001e24:	eb000249 	bl	c002750 <candidatos_actualizar_all>
 c001e28:	e1a02000 	mov	r2, r0
 c001e2c:	e59f321c 	ldr	r3, [pc, #540]	; c002050 <boton_confirmado+0x65c>
 c001e30:	e5832000 	str	r2, [r3]
                                
                                /* Volver a introducir fila */
                                estado_juego = INTRODUCIR_FILA;
 c001e34:	e59f320c 	ldr	r3, [pc, #524]	; c002048 <boton_confirmado+0x654>
 c001e38:	e3a02001 	mov	r2, #1
 c001e3c:	e5c32000 	strb	r2, [r3]
                                int_count = 0;
 c001e40:	e59f320c 	ldr	r3, [pc, #524]	; c002054 <boton_confirmado+0x660>
 c001e44:	e3a02000 	mov	r2, #0
 c001e48:	e5c32000 	strb	r2, [r3]
                                D8Led_symbol(15);  /* Mostrar 'F' de Fila */
 c001e4c:	e3a0000f 	mov	r0, #15
 c001e50:	ebfffc65 	bl	c000fec <D8Led_symbol>
                                break;
 c001e54:	ea000078 	b	c00203c <boton_confirmado+0x648>
                        }
                        else
                        {
                                /* Verificar si el valor es candidato */
                                if (celda_es_candidato(cuadricula[fila][columna], valor))
 c001e58:	e59f31ec 	ldr	r3, [pc, #492]	; c00204c <boton_confirmado+0x658>
 c001e5c:	e5932000 	ldr	r2, [r3]
 c001e60:	e59f31f0 	ldr	r3, [pc, #496]	; c002058 <boton_confirmado+0x664>
 c001e64:	e5d33000 	ldrb	r3, [r3]
 c001e68:	e20330ff 	and	r3, r3, #255	; 0xff
 c001e6c:	e1a03283 	lsl	r3, r3, #5
 c001e70:	e0822003 	add	r2, r2, r3
 c001e74:	e59f31e0 	ldr	r3, [pc, #480]	; c00205c <boton_confirmado+0x668>
 c001e78:	e5d33000 	ldrb	r3, [r3]
 c001e7c:	e20330ff 	and	r3, r3, #255	; 0xff
 c001e80:	e1a03083 	lsl	r3, r3, #1
 c001e84:	e0823003 	add	r3, r2, r3
 c001e88:	e1d320b0 	ldrh	r2, [r3]
 c001e8c:	e59f31cc 	ldr	r3, [pc, #460]	; c002060 <boton_confirmado+0x66c>
 c001e90:	e5d33000 	ldrb	r3, [r3]
 c001e94:	e20330ff 	and	r3, r3, #255	; 0xff
 c001e98:	e1a00002 	mov	r0, r2
 c001e9c:	e1a01003 	mov	r1, r3
 c001ea0:	ebfffe92 	bl	c0018f0 <celda_es_candidato>
 c001ea4:	e1a03000 	mov	r3, r0
 c001ea8:	e3530000 	cmp	r3, #0
 c001eac:	0a000043 	beq	c001fc0 <boton_confirmado+0x5cc>
                                {
                                        /* Es candidato: escribir el valor en la celda */
                                        celda_limpiar_error(&cuadricula[fila][columna]);
 c001eb0:	e59f3194 	ldr	r3, [pc, #404]	; c00204c <boton_confirmado+0x658>
 c001eb4:	e5933000 	ldr	r3, [r3]
 c001eb8:	e1a02003 	mov	r2, r3
 c001ebc:	e59f3194 	ldr	r3, [pc, #404]	; c002058 <boton_confirmado+0x664>
 c001ec0:	e5d33000 	ldrb	r3, [r3]
 c001ec4:	e20330ff 	and	r3, r3, #255	; 0xff
 c001ec8:	e1a01203 	lsl	r1, r3, #4
 c001ecc:	e59f3188 	ldr	r3, [pc, #392]	; c00205c <boton_confirmado+0x668>
 c001ed0:	e5d33000 	ldrb	r3, [r3]
 c001ed4:	e20330ff 	and	r3, r3, #255	; 0xff
 c001ed8:	e0813003 	add	r3, r1, r3
 c001edc:	e1a03083 	lsl	r3, r3, #1
 c001ee0:	e0823003 	add	r3, r2, r3
 c001ee4:	e1a00003 	mov	r0, r3
 c001ee8:	ebfffeb2 	bl	c0019b8 <celda_limpiar_error>
                                        celda_poner_valor(&cuadricula[fila][columna], valor);
 c001eec:	e59f3158 	ldr	r3, [pc, #344]	; c00204c <boton_confirmado+0x658>
 c001ef0:	e5933000 	ldr	r3, [r3]
 c001ef4:	e1a02003 	mov	r2, r3
 c001ef8:	e59f3158 	ldr	r3, [pc, #344]	; c002058 <boton_confirmado+0x664>
 c001efc:	e5d33000 	ldrb	r3, [r3]
 c001f00:	e20330ff 	and	r3, r3, #255	; 0xff
 c001f04:	e1a01203 	lsl	r1, r3, #4
 c001f08:	e59f314c 	ldr	r3, [pc, #332]	; c00205c <boton_confirmado+0x668>
 c001f0c:	e5d33000 	ldrb	r3, [r3]
 c001f10:	e20330ff 	and	r3, r3, #255	; 0xff
 c001f14:	e0813003 	add	r3, r1, r3
 c001f18:	e1a03083 	lsl	r3, r3, #1
 c001f1c:	e0822003 	add	r2, r2, r3
 c001f20:	e59f3138 	ldr	r3, [pc, #312]	; c002060 <boton_confirmado+0x66c>
 c001f24:	e5d33000 	ldrb	r3, [r3]
 c001f28:	e20330ff 	and	r3, r3, #255	; 0xff
 c001f2c:	e1a00002 	mov	r0, r2
 c001f30:	e1a01003 	mov	r1, r3
 c001f34:	ebfffe41 	bl	c001840 <celda_poner_valor>
                                        
                                        /* Decidir si propagar o actualizar segn el caso */
                                        if (valor_previo != 0)
 c001f38:	e59f3124 	ldr	r3, [pc, #292]	; c002064 <boton_confirmado+0x670>
 c001f3c:	e5d33000 	ldrb	r3, [r3]
 c001f40:	e20330ff 	and	r3, r3, #255	; 0xff
 c001f44:	e3530000 	cmp	r3, #0
 c001f48:	0a000007 	beq	c001f6c <boton_confirmado+0x578>
                                        {
                                                /* Se modific un valor previo -> recalcular todo */
                                                celdas_vacias = candidatos_actualizar_all(cuadricula);
 c001f4c:	e59f30f8 	ldr	r3, [pc, #248]	; c00204c <boton_confirmado+0x658>
 c001f50:	e5933000 	ldr	r3, [r3]
 c001f54:	e1a00003 	mov	r0, r3
 c001f58:	eb0001fc 	bl	c002750 <candidatos_actualizar_all>
 c001f5c:	e1a02000 	mov	r2, r0
 c001f60:	e59f30e8 	ldr	r3, [pc, #232]	; c002050 <boton_confirmado+0x65c>
 c001f64:	e5832000 	str	r2, [r3]
 c001f68:	ea00000b 	b	c001f9c <boton_confirmado+0x5a8>
                                        }
                                        else
                                        {
                                                /* Celda vaca -> solo propagar el nuevo valor */
                                                candidatos_propagar_arm(cuadricula, fila, columna);
 c001f6c:	e59f30d8 	ldr	r3, [pc, #216]	; c00204c <boton_confirmado+0x658>
 c001f70:	e5931000 	ldr	r1, [r3]
 c001f74:	e59f30dc 	ldr	r3, [pc, #220]	; c002058 <boton_confirmado+0x664>
 c001f78:	e5d33000 	ldrb	r3, [r3]
 c001f7c:	e20320ff 	and	r2, r3, #255	; 0xff
 c001f80:	e59f30d4 	ldr	r3, [pc, #212]	; c00205c <boton_confirmado+0x668>
 c001f84:	e5d33000 	ldrb	r3, [r3]
 c001f88:	e20330ff 	and	r3, r3, #255	; 0xff
 c001f8c:	e1a00001 	mov	r0, r1
 c001f90:	e1a01002 	mov	r1, r2
 c001f94:	e1a02003 	mov	r2, r3
 c001f98:	eb000136 	bl	c002478 <candidatos_propagar_arm>
                                        }
                                        
                                        /* Volver a introducir fila */
                                        estado_juego = INTRODUCIR_FILA;
 c001f9c:	e59f30a4 	ldr	r3, [pc, #164]	; c002048 <boton_confirmado+0x654>
 c001fa0:	e3a02001 	mov	r2, #1
 c001fa4:	e5c32000 	strb	r2, [r3]
                                        int_count = 0;
 c001fa8:	e59f30a4 	ldr	r3, [pc, #164]	; c002054 <boton_confirmado+0x660>
 c001fac:	e3a02000 	mov	r2, #0
 c001fb0:	e5c32000 	strb	r2, [r3]
                                        D8Led_symbol(15);  /* Mostrar 'F' de Fila */
 c001fb4:	e3a0000f 	mov	r0, #15
 c001fb8:	ebfffc0b 	bl	c000fec <D8Led_symbol>
                                        estado_juego = INTRODUCIR_FILA;
                                        int_count = 0;
                                        D8Led_symbol(15);  /* Mostrar 'F' de Fila */
                                }
                        }
                        break;
 c001fbc:	ea00001e 	b	c00203c <boton_confirmado+0x648>
                                        D8Led_symbol(15);  /* Mostrar 'F' de Fila */
                                }
                                else
                                {
                                        /* No es candidato: marcar error y mostrar 'E' */
                                        celda_marcar_error(&cuadricula[fila][columna]);
 c001fc0:	e59f3084 	ldr	r3, [pc, #132]	; c00204c <boton_confirmado+0x658>
 c001fc4:	e5933000 	ldr	r3, [r3]
 c001fc8:	e1a02003 	mov	r2, r3
 c001fcc:	e59f3084 	ldr	r3, [pc, #132]	; c002058 <boton_confirmado+0x664>
 c001fd0:	e5d33000 	ldrb	r3, [r3]
 c001fd4:	e20330ff 	and	r3, r3, #255	; 0xff
 c001fd8:	e1a01203 	lsl	r1, r3, #4
 c001fdc:	e59f3078 	ldr	r3, [pc, #120]	; c00205c <boton_confirmado+0x668>
 c001fe0:	e5d33000 	ldrb	r3, [r3]
 c001fe4:	e20330ff 	and	r3, r3, #255	; 0xff
 c001fe8:	e0813003 	add	r3, r1, r3
 c001fec:	e1a03083 	lsl	r3, r3, #1
 c001ff0:	e0823003 	add	r3, r2, r3
 c001ff4:	e1a00003 	mov	r0, r3
 c001ff8:	ebfffe5f 	bl	c00197c <celda_marcar_error>
                                        D8Led_symbol(14);  /* Mostrar 'E' de Error */
 c001ffc:	e3a0000e 	mov	r0, #14
 c002000:	ebfffbf9 	bl	c000fec <D8Led_symbol>
                                        
                                        /* Volver a introducir fila */
                                        estado_juego = INTRODUCIR_FILA;
 c002004:	e59f303c 	ldr	r3, [pc, #60]	; c002048 <boton_confirmado+0x654>
 c002008:	e3a02001 	mov	r2, #1
 c00200c:	e5c32000 	strb	r2, [r3]
                                        int_count = 0;
 c002010:	e59f303c 	ldr	r3, [pc, #60]	; c002054 <boton_confirmado+0x660>
 c002014:	e3a02000 	mov	r2, #0
 c002018:	e5c32000 	strb	r2, [r3]
                                        D8Led_symbol(15);  /* Mostrar 'F' de Fila */
 c00201c:	e3a0000f 	mov	r0, #15
 c002020:	ebfffbf1 	bl	c000fec <D8Led_symbol>
                                }
                        }
                        break;
 c002024:	ea000004 	b	c00203c <boton_confirmado+0x648>
                                fila = int_count - 1;  /* Convertir a ndice 0-8 */
                                estado_juego = INTRODUCIR_COLUMNA;
                                int_count = 0;
                                D8Led_symbol(12);  /* Mostrar 'C' de Columna (ndice 12 en el array Symbol) */
                        }
                        break;
 c002028:	e1a00000 	nop			; (mov r0, r0)
 c00202c:	ea000002 	b	c00203c <boton_confirmado+0x648>
                                columna = int_count - 1;  /* Convertir a ndice 0-8 */
                                estado_juego = VERIFICAR_CELDA;
                                int_count = 0;
                                D8Led_symbol(int_count & 0x000f);
                        }
                        break;
 c002030:	e1a00000 	nop			; (mov r0, r0)
 c002034:	ea000000 	b	c00203c <boton_confirmado+0x648>
                                valor = int_count;  /* Valor a escribir (0-9) */
                                
                                estado_juego = VERIFICAR_VALOR;
                                int_count = 0;
                        }
                        break;
 c002038:	e1a00000 	nop			; (mov r0, r0)
                                        D8Led_symbol(15);  /* Mostrar 'F' de Fila */
                                }
                        }
                        break;
        }
}
 c00203c:	e24bd00c 	sub	sp, fp, #12
 c002040:	e89d6800 	ldm	sp, {fp, sp, lr}
 c002044:	e12fff1e 	bx	lr
 c002048:	0c009ad8 	.word	0x0c009ad8
 c00204c:	0c007ea0 	.word	0x0c007ea0
 c002050:	0c009ae4 	.word	0x0c009ae4
 c002054:	0c009ad9 	.word	0x0c009ad9
 c002058:	0c009ada 	.word	0x0c009ada
 c00205c:	0c009adb 	.word	0x0c009adb
 c002060:	0c009adc 	.word	0x0c009adc
 c002064:	0c009add 	.word	0x0c009add

0c002068 <Eint4567_ISR>:
 * https://gcc.gnu.org/onlinedocs/gcc/ARM-Function-Attributes.html */
void Eint4567_ISR(void) __attribute__((interrupt("IRQ")));

/*--- cdigo de funciones ---*/
void Eint4567_ISR(void)
{
 c002068:	e52dc004 	push	{ip}		; (str ip, [sp, #-4]!)
 c00206c:	e1a0c00d 	mov	ip, sp
 c002070:	e92dd80f 	push	{r0, r1, r2, r3, fp, ip, lr, pc}
 c002074:	e24cb004 	sub	fp, ip, #4
 c002078:	e24dd008 	sub	sp, sp, #8
        /* Identificar la interrupcin (hay dos pulsadores) */
        unsigned int pending = rEXTINTPND & 0xF;
 c00207c:	e59f308c 	ldr	r3, [pc, #140]	; c002110 <Eint4567_ISR+0xa8>
 c002080:	e5933000 	ldr	r3, [r3]
 c002084:	e203300f 	and	r3, r3, #15
 c002088:	e50b3024 	str	r3, [fp, #-36]	; 0xffffffdc
        uint8_t boton_id = 0;
 c00208c:	e3a03000 	mov	r3, #0
 c002090:	e54b301d 	strb	r3, [fp, #-29]	; 0xffffffe3

        if (pending & 0x4)
 c002094:	e51b3024 	ldr	r3, [fp, #-36]	; 0xffffffdc
 c002098:	e2033004 	and	r3, r3, #4
 c00209c:	e3530000 	cmp	r3, #0
 c0020a0:	0a000002 	beq	c0020b0 <Eint4567_ISR+0x48>
        {
                boton_id = EVENTO_BOTON_IZQUIERDO;
 c0020a4:	e3a03004 	mov	r3, #4
 c0020a8:	e54b301d 	strb	r3, [fp, #-29]	; 0xffffffe3
 c0020ac:	ea000005 	b	c0020c8 <Eint4567_ISR+0x60>
        }
        else if (pending & 0x8)
 c0020b0:	e51b3024 	ldr	r3, [fp, #-36]	; 0xffffffdc
 c0020b4:	e2033008 	and	r3, r3, #8
 c0020b8:	e3530000 	cmp	r3, #0
 c0020bc:	0a000001 	beq	c0020c8 <Eint4567_ISR+0x60>
        {
                boton_id = EVENTO_BOTON_DERECHO;
 c0020c0:	e3a03008 	mov	r3, #8
 c0020c4:	e54b301d 	strb	r3, [fp, #-29]	; 0xffffffe3
        }

        if (boton_id != 0U)
 c0020c8:	e55b301d 	ldrb	r3, [fp, #-29]	; 0xffffffe3
 c0020cc:	e3530000 	cmp	r3, #0
 c0020d0:	0a000002 	beq	c0020e0 <Eint4567_ISR+0x78>
        {
                /* No registrar la pulsacin inicial, solo las confirmadas */

                /* Iniciar la mquina de antirrebotes. Si est ocupada, no hacer nada */
                timer3_start_antirrebote(boton_id);
 c0020d4:	e55b301d 	ldrb	r3, [fp, #-29]	; 0xffffffe3
 c0020d8:	e1a00003 	mov	r0, r3
 c0020dc:	eb000ef6 	bl	c005cbc <timer3_start_antirrebote>
        }

        /* Finalizar ISR */
        rEXTINTPND = 0xf;                               // borra los bits en EXTINTPND
 c0020e0:	e59f3028 	ldr	r3, [pc, #40]	; c002110 <Eint4567_ISR+0xa8>
 c0020e4:	e3a0200f 	mov	r2, #15
 c0020e8:	e5832000 	str	r2, [r3]
        rI_ISPC   |= BIT_EINT4567;              // borra el bit pendiente en INTPND
 c0020ec:	e59f3020 	ldr	r3, [pc, #32]	; c002114 <Eint4567_ISR+0xac>
 c0020f0:	e59f201c 	ldr	r2, [pc, #28]	; c002114 <Eint4567_ISR+0xac>
 c0020f4:	e5922000 	ldr	r2, [r2]
 c0020f8:	e3822602 	orr	r2, r2, #2097152	; 0x200000
 c0020fc:	e5832000 	str	r2, [r3]
}
 c002100:	e24bd01c 	sub	sp, fp, #28
 c002104:	e89d680f 	ldm	sp, {r0, r1, r2, r3, fp, sp, lr}
 c002108:	e49dc004 	pop	{ip}		; (ldr ip, [sp], #4)
 c00210c:	e25ef004 	subs	pc, lr, #4
 c002110:	01d20054 	.word	0x01d20054
 c002114:	01e00024 	.word	0x01e00024

0c002118 <Eint4567_init>:

void Eint4567_init(void)
{
 c002118:	e1a0c00d 	mov	ip, sp
 c00211c:	e92dd800 	push	{fp, ip, lr, pc}
 c002120:	e24cb004 	sub	fp, ip, #4
        /* Inicializar el temporizador dedicado a la eliminacin de rebotes */
        timer3_init(boton_confirmado);
 c002124:	e59f00ac 	ldr	r0, [pc, #172]	; c0021d8 <Eint4567_init+0xc0>
 c002128:	eb000e98 	bl	c005b90 <timer3_init>

        /* Configuracion del controlador de interrupciones. Estos registros estn definidos en 44b.h */
        rI_ISPC    = 0x3ffffff;         // Borra INTPND escribiendo 1s en I_ISPC
 c00212c:	e59f30a8 	ldr	r3, [pc, #168]	; c0021dc <Eint4567_init+0xc4>
 c002130:	e3e0233f 	mvn	r2, #-67108864	; 0xfc000000
 c002134:	e5832000 	str	r2, [r3]
        rEXTINTPND = 0xf;               // Borra EXTINTPND escribiendo 1s en el propio registro
 c002138:	e59f30a0 	ldr	r3, [pc, #160]	; c0021e0 <Eint4567_init+0xc8>
 c00213c:	e3a0200f 	mov	r2, #15
 c002140:	e5832000 	str	r2, [r3]
        rINTMOD    = 0x0;               // Configura las lineas como de tipo IRQ
 c002144:	e59f3098 	ldr	r3, [pc, #152]	; c0021e4 <Eint4567_init+0xcc>
 c002148:	e3a02000 	mov	r2, #0
 c00214c:	e5832000 	str	r2, [r3]
        rINTCON    = 0x1;               // Habilita int. vectorizadas y la linea IRQ (FIQ no)
 c002150:	e3a0361e 	mov	r3, #31457280	; 0x1e00000
 c002154:	e3a02001 	mov	r2, #1
 c002158:	e5832000 	str	r2, [r3]
        rINTMSK    &= ~(BIT_EINT4567);  // habilitamos interrupcion linea eint4567 en vector de mascaras
 c00215c:	e59f3084 	ldr	r3, [pc, #132]	; c0021e8 <Eint4567_init+0xd0>
 c002160:	e59f2080 	ldr	r2, [pc, #128]	; c0021e8 <Eint4567_init+0xd0>
 c002164:	e5922000 	ldr	r2, [r2]
 c002168:	e3c22602 	bic	r2, r2, #2097152	; 0x200000
 c00216c:	e5832000 	str	r2, [r3]

        /* Establece la rutina de servicio para Eint4567 */
        pISR_EINT4567 = (int) Eint4567_ISR;
 c002170:	e59f3074 	ldr	r3, [pc, #116]	; c0021ec <Eint4567_init+0xd4>
 c002174:	e59f2074 	ldr	r2, [pc, #116]	; c0021f0 <Eint4567_init+0xd8>
 c002178:	e5832000 	str	r2, [r3]

        /* Configuracion del puerto G */
        rPCONG  = 0xffff;                       // Establece la funcion de los pines (EINT0-7)
 c00217c:	e59f3070 	ldr	r3, [pc, #112]	; c0021f4 <Eint4567_init+0xdc>
 c002180:	e59f2070 	ldr	r2, [pc, #112]	; c0021f8 <Eint4567_init+0xe0>
 c002184:	e5832000 	str	r2, [r3]
        rPUPG   = 0x0;                  // Habilita el "pull up" del puerto
 c002188:	e59f306c 	ldr	r3, [pc, #108]	; c0021fc <Eint4567_init+0xe4>
 c00218c:	e3a02000 	mov	r2, #0
 c002190:	e5832000 	str	r2, [r3]
        rEXTINT = rEXTINT | 0x22222222;   // Configura las lineas de int. como de flanco de bajada
 c002194:	e59f2064 	ldr	r2, [pc, #100]	; c002200 <Eint4567_init+0xe8>
 c002198:	e59f3060 	ldr	r3, [pc, #96]	; c002200 <Eint4567_init+0xe8>
 c00219c:	e5931000 	ldr	r1, [r3]
 c0021a0:	e59f305c 	ldr	r3, [pc, #92]	; c002204 <Eint4567_init+0xec>
 c0021a4:	e1813003 	orr	r3, r1, r3
 c0021a8:	e5823000 	str	r3, [r2]

        /* Por precaucion, se vuelven a borrar los bits de INTPND y EXTINTPND */
        rEXTINTPND = 0xf;                               // borra los bits en EXTINTPND
 c0021ac:	e59f302c 	ldr	r3, [pc, #44]	; c0021e0 <Eint4567_init+0xc8>
 c0021b0:	e3a0200f 	mov	r2, #15
 c0021b4:	e5832000 	str	r2, [r3]
        rI_ISPC   |= BIT_EINT4567;              // borra el bit pendiente en INTPND
 c0021b8:	e59f301c 	ldr	r3, [pc, #28]	; c0021dc <Eint4567_init+0xc4>
 c0021bc:	e59f2018 	ldr	r2, [pc, #24]	; c0021dc <Eint4567_init+0xc4>
 c0021c0:	e5922000 	ldr	r2, [r2]
 c0021c4:	e3822602 	orr	r2, r2, #2097152	; 0x200000
 c0021c8:	e5832000 	str	r2, [r3]
}
 c0021cc:	e24bd00c 	sub	sp, fp, #12
 c0021d0:	e89d6800 	ldm	sp, {fp, sp, lr}
 c0021d4:	e12fff1e 	bx	lr
 c0021d8:	0c0019f4 	.word	0x0c0019f4
 c0021dc:	01e00024 	.word	0x01e00024
 c0021e0:	01d20054 	.word	0x01d20054
 c0021e4:	01e00008 	.word	0x01e00008
 c0021e8:	01e0000c 	.word	0x01e0000c
 c0021ec:	0c7fff74 	.word	0x0c7fff74
 c0021f0:	0c002068 	.word	0x0c002068
 c0021f4:	01d20040 	.word	0x01d20040
 c0021f8:	0000ffff 	.word	0x0000ffff
 c0021fc:	01d20048 	.word	0x01d20048
 c002200:	01d20050 	.word	0x01d20050
 c002204:	22222222 	.word	0x22222222

0c002208 <cola_init>:
/**
 * Inicializa la cola de depuracin.
 * Pone a cero todos los contadores y limpia la estructura.
 */
void cola_init(void)
{
 c002208:	e1a0c00d 	mov	ip, sp
 c00220c:	e92dd800 	push	{fp, ip, lr, pc}
 c002210:	e24cb004 	sub	fp, ip, #4
 c002214:	e24dd008 	sub	sp, sp, #8
	int i;

	/* Inicializar los ndices de control */
	cola_global->indice_escritura = 0;
 c002218:	e59f30d8 	ldr	r3, [pc, #216]	; c0022f8 <cola_init+0xf0>
 c00221c:	e5933000 	ldr	r3, [r3]
 c002220:	e3a02000 	mov	r2, #0
 c002224:	e5832000 	str	r2, [r3]
	cola_global->num_eventos = 0;
 c002228:	e59f30c8 	ldr	r3, [pc, #200]	; c0022f8 <cola_init+0xf0>
 c00222c:	e5933000 	ldr	r3, [r3]
 c002230:	e3a02000 	mov	r2, #0
 c002234:	e5832004 	str	r2, [r3, #4]

	/* Limpiar todos los eventos de la cola */
	for (i = 0; i < COLA_SIZE; i++)
 c002238:	e3a03000 	mov	r3, #0
 c00223c:	e50b3010 	str	r3, [fp, #-16]
 c002240:	ea000026 	b	c0022e0 <cola_init+0xd8>
	{
		cola_global->eventos[i].instante = 0;
 c002244:	e59f30ac 	ldr	r3, [pc, #172]	; c0022f8 <cola_init+0xf0>
 c002248:	e5930000 	ldr	r0, [r3]
 c00224c:	e51b2010 	ldr	r2, [fp, #-16]
 c002250:	e3a01008 	mov	r1, #8
 c002254:	e1a03002 	mov	r3, r2
 c002258:	e1a03083 	lsl	r3, r3, #1
 c00225c:	e0833002 	add	r3, r3, r2
 c002260:	e1a03103 	lsl	r3, r3, #2
 c002264:	e0803003 	add	r3, r0, r3
 c002268:	e0833001 	add	r3, r3, r1
 c00226c:	e3a02000 	mov	r2, #0
 c002270:	e5832000 	str	r2, [r3]
		cola_global->eventos[i].ID_evento = 0;
 c002274:	e59f307c 	ldr	r3, [pc, #124]	; c0022f8 <cola_init+0xf0>
 c002278:	e5930000 	ldr	r0, [r3]
 c00227c:	e51b2010 	ldr	r2, [fp, #-16]
 c002280:	e3a01008 	mov	r1, #8
 c002284:	e1a03002 	mov	r3, r2
 c002288:	e1a03083 	lsl	r3, r3, #1
 c00228c:	e0833002 	add	r3, r3, r2
 c002290:	e1a03103 	lsl	r3, r3, #2
 c002294:	e0803003 	add	r3, r0, r3
 c002298:	e0833001 	add	r3, r3, r1
 c00229c:	e3a02000 	mov	r2, #0
 c0022a0:	e5c32004 	strb	r2, [r3, #4]
		cola_global->eventos[i].auxData = 0;
 c0022a4:	e59f304c 	ldr	r3, [pc, #76]	; c0022f8 <cola_init+0xf0>
 c0022a8:	e5930000 	ldr	r0, [r3]
 c0022ac:	e51b2010 	ldr	r2, [fp, #-16]
 c0022b0:	e3a01010 	mov	r1, #16
 c0022b4:	e1a03002 	mov	r3, r2
 c0022b8:	e1a03083 	lsl	r3, r3, #1
 c0022bc:	e0833002 	add	r3, r3, r2
 c0022c0:	e1a03103 	lsl	r3, r3, #2
 c0022c4:	e0803003 	add	r3, r0, r3
 c0022c8:	e0833001 	add	r3, r3, r1
 c0022cc:	e3a02000 	mov	r2, #0
 c0022d0:	e5832000 	str	r2, [r3]
	/* Inicializar los ndices de control */
	cola_global->indice_escritura = 0;
	cola_global->num_eventos = 0;

	/* Limpiar todos los eventos de la cola */
	for (i = 0; i < COLA_SIZE; i++)
 c0022d4:	e51b3010 	ldr	r3, [fp, #-16]
 c0022d8:	e2833001 	add	r3, r3, #1
 c0022dc:	e50b3010 	str	r3, [fp, #-16]
 c0022e0:	e51b3010 	ldr	r3, [fp, #-16]
 c0022e4:	e3530095 	cmp	r3, #149	; 0x95
 c0022e8:	daffffd5 	ble	c002244 <cola_init+0x3c>
	{
		cola_global->eventos[i].instante = 0;
		cola_global->eventos[i].ID_evento = 0;
		cola_global->eventos[i].auxData = 0;
	}
}
 c0022ec:	e24bd00c 	sub	sp, fp, #12
 c0022f0:	e89d6800 	ldm	sp, {fp, sp, lr}
 c0022f4:	e12fff1e 	bx	lr
 c0022f8:	0c0077c8 	.word	0x0c0077c8

0c0022fc <cola_depuracion>:
 * @param instant Instante de tiempo en microsegundos (normalmente de timer2_count())
 * @param ID_evento Identificador del tipo de evento (ver eventos.h)
 * @param auxData Datos auxiliares especficos del evento
 */
void cola_depuracion(uint32_t instant, uint8_t ID_evento, uint32_t auxData)
{
 c0022fc:	e1a0c00d 	mov	ip, sp
 c002300:	e92dd800 	push	{fp, ip, lr, pc}
 c002304:	e24cb004 	sub	fp, ip, #4
 c002308:	e24dd010 	sub	sp, sp, #16
 c00230c:	e50b0010 	str	r0, [fp, #-16]
 c002310:	e1a03001 	mov	r3, r1
 c002314:	e50b2018 	str	r2, [fp, #-24]	; 0xffffffe8
 c002318:	e54b3011 	strb	r3, [fp, #-17]	; 0xffffffef
	/* Guardar el evento en la posicin actual de escritura */
	cola_global->eventos[cola_global->indice_escritura].instante = instant;
 c00231c:	e59f30f8 	ldr	r3, [pc, #248]	; c00241c <cola_depuracion+0x120>
 c002320:	e5930000 	ldr	r0, [r3]
 c002324:	e59f30f0 	ldr	r3, [pc, #240]	; c00241c <cola_depuracion+0x120>
 c002328:	e5933000 	ldr	r3, [r3]
 c00232c:	e5932000 	ldr	r2, [r3]
 c002330:	e3a01008 	mov	r1, #8
 c002334:	e1a03002 	mov	r3, r2
 c002338:	e1a03083 	lsl	r3, r3, #1
 c00233c:	e0833002 	add	r3, r3, r2
 c002340:	e1a03103 	lsl	r3, r3, #2
 c002344:	e0803003 	add	r3, r0, r3
 c002348:	e0833001 	add	r3, r3, r1
 c00234c:	e51b2010 	ldr	r2, [fp, #-16]
 c002350:	e5832000 	str	r2, [r3]
	cola_global->eventos[cola_global->indice_escritura].ID_evento = ID_evento;
 c002354:	e59f30c0 	ldr	r3, [pc, #192]	; c00241c <cola_depuracion+0x120>
 c002358:	e5930000 	ldr	r0, [r3]
 c00235c:	e59f30b8 	ldr	r3, [pc, #184]	; c00241c <cola_depuracion+0x120>
 c002360:	e5933000 	ldr	r3, [r3]
 c002364:	e5932000 	ldr	r2, [r3]
 c002368:	e3a01008 	mov	r1, #8
 c00236c:	e1a03002 	mov	r3, r2
 c002370:	e1a03083 	lsl	r3, r3, #1
 c002374:	e0833002 	add	r3, r3, r2
 c002378:	e1a03103 	lsl	r3, r3, #2
 c00237c:	e0803003 	add	r3, r0, r3
 c002380:	e0833001 	add	r3, r3, r1
 c002384:	e55b2011 	ldrb	r2, [fp, #-17]	; 0xffffffef
 c002388:	e5c32004 	strb	r2, [r3, #4]
	cola_global->eventos[cola_global->indice_escritura].auxData = auxData;
 c00238c:	e59f3088 	ldr	r3, [pc, #136]	; c00241c <cola_depuracion+0x120>
 c002390:	e5930000 	ldr	r0, [r3]
 c002394:	e59f3080 	ldr	r3, [pc, #128]	; c00241c <cola_depuracion+0x120>
 c002398:	e5933000 	ldr	r3, [r3]
 c00239c:	e5932000 	ldr	r2, [r3]
 c0023a0:	e3a01010 	mov	r1, #16
 c0023a4:	e1a03002 	mov	r3, r2
 c0023a8:	e1a03083 	lsl	r3, r3, #1
 c0023ac:	e0833002 	add	r3, r3, r2
 c0023b0:	e1a03103 	lsl	r3, r3, #2
 c0023b4:	e0803003 	add	r3, r0, r3
 c0023b8:	e0833001 	add	r3, r3, r1
 c0023bc:	e51b2018 	ldr	r2, [fp, #-24]	; 0xffffffe8
 c0023c0:	e5832000 	str	r2, [r3]

	/* Incrementar el ndice de escritura de forma circular */
	cola_global->indice_escritura++;
 c0023c4:	e59f3050 	ldr	r3, [pc, #80]	; c00241c <cola_depuracion+0x120>
 c0023c8:	e5933000 	ldr	r3, [r3]
 c0023cc:	e5932000 	ldr	r2, [r3]
 c0023d0:	e2822001 	add	r2, r2, #1
 c0023d4:	e5832000 	str	r2, [r3]
	if (cola_global->indice_escritura >= COLA_SIZE)
 c0023d8:	e59f303c 	ldr	r3, [pc, #60]	; c00241c <cola_depuracion+0x120>
 c0023dc:	e5933000 	ldr	r3, [r3]
 c0023e0:	e5933000 	ldr	r3, [r3]
 c0023e4:	e3530095 	cmp	r3, #149	; 0x95
 c0023e8:	9a000003 	bls	c0023fc <cola_depuracion+0x100>
	{
		cola_global->indice_escritura = 0;  // Volver al inicio (circular)
 c0023ec:	e59f3028 	ldr	r3, [pc, #40]	; c00241c <cola_depuracion+0x120>
 c0023f0:	e5933000 	ldr	r3, [r3]
 c0023f4:	e3a02000 	mov	r2, #0
 c0023f8:	e5832000 	str	r2, [r3]
	}

	/* Incrementar el contador total de eventos (para estadsticas) */
	cola_global->num_eventos++;
 c0023fc:	e59f3018 	ldr	r3, [pc, #24]	; c00241c <cola_depuracion+0x120>
 c002400:	e5933000 	ldr	r3, [r3]
 c002404:	e5932004 	ldr	r2, [r3, #4]
 c002408:	e2822001 	add	r2, r2, #1
 c00240c:	e5832004 	str	r2, [r3, #4]
}
 c002410:	e24bd00c 	sub	sp, fp, #12
 c002414:	e89d6800 	ldm	sp, {fp, sp, lr}
 c002418:	e12fff1e 	bx	lr
 c00241c:	0c0077c8 	.word	0x0c0077c8

0c002420 <cola_get_num_eventos>:
 * 
 * @return Nmero total de eventos desde la inicializacin
 *         Puede ser mayor que COLA_SIZE si la cola ha dado varias vueltas
 */
uint32_t cola_get_num_eventos(void)
{
 c002420:	e1a0c00d 	mov	ip, sp
 c002424:	e92dd800 	push	{fp, ip, lr, pc}
 c002428:	e24cb004 	sub	fp, ip, #4
	return cola_global->num_eventos;
 c00242c:	e59f3014 	ldr	r3, [pc, #20]	; c002448 <cola_get_num_eventos+0x28>
 c002430:	e5933000 	ldr	r3, [r3]
 c002434:	e5933004 	ldr	r3, [r3, #4]
}
 c002438:	e1a00003 	mov	r0, r3
 c00243c:	e24bd00c 	sub	sp, fp, #12
 c002440:	e89d6800 	ldm	sp, {fp, sp, lr}
 c002444:	e12fff1e 	bx	lr
 c002448:	0c0077c8 	.word	0x0c0077c8

0c00244c <cola_get_indice>:
 * Obtiene el ndice actual de escritura.
 * 
 * @return ndice donde se escribir el prximo evento (0 a COLA_SIZE-1)
 */
uint32_t cola_get_indice(void)
{
 c00244c:	e1a0c00d 	mov	ip, sp
 c002450:	e92dd800 	push	{fp, ip, lr, pc}
 c002454:	e24cb004 	sub	fp, ip, #4
	return cola_global->indice_escritura;
 c002458:	e59f3014 	ldr	r3, [pc, #20]	; c002474 <cola_get_indice+0x28>
 c00245c:	e5933000 	ldr	r3, [r3]
 c002460:	e5933000 	ldr	r3, [r3]
 c002464:	e1a00003 	mov	r0, r3
 c002468:	e24bd00c 	sub	sp, fp, #12
 c00246c:	e89d6800 	ldm	sp, {fp, sp, lr}
 c002470:	e12fff1e 	bx	lr
 c002474:	0c0077c8 	.word	0x0c0077c8

0c002478 <candidatos_propagar_arm>:
################################################################################
.global candidatos_propagar_arm

candidatos_propagar_arm:
    # Preservar registros
    STMDB   SP!, {r4-r10, fp, LR}
 c002478:	e92d4ff0 	push	{r4, r5, r6, r7, r8, r9, sl, fp, lr}
    ADD     fp, SP, #(4*7-4)    @ FP  direccin base del marco (7 registros: r4-r10)
 c00247c:	e28db018 	add	fp, sp, #24
    # r7 = contador i (bucle columna / regin)
    # r8 = direccin de celda temporal
    # r9 = valor de celda temporal

    # Inicializar constantes
    MOV     r4, #9          // NUM_FILAS
 c002480:	e3a04009 	mov	r4, #9
    MOV     r5, #16         // NUM_COLUMNAS (9 + 7 padding)
 c002484:	e3a05010 	mov	r5, #16

    # Leer valor de la celda actual: cuadricula[fila][columna]
    MLA     r8, r1, r5, r2  // r8 = fila * NUM_COLUMNAS + columna
 c002488:	e0282591 	mla	r8, r1, r5, r2
    MOV     r8, r8, LSL #1  // r8 *= 2 (sizeof CELDA)
 c00248c:	e1a08088 	lsl	r8, r8, #1
    ADD     r8, r0, r8      // r8 = direccin de cuadricula[fila][columna]
 c002490:	e0808008 	add	r8, r0, r8
    LDRH    r3, [r8]        // r3 = cuadricula[fila][columna]
 c002494:	e1d830b0 	ldrh	r3, [r8]
    AND     r3, r3, #0x0F   // r3 = valor (bits 3-0)
 c002498:	e203300f 	and	r3, r3, #15

    # Si valor es 0, no hay nada que propagar
    CMP     r3, #0
 c00249c:	e3530000 	cmp	r3, #0
    BEQ     propagar_fin
 c0024a0:	0a000038 	beq	c002588 <fin_region>

    # Calcular mscara para eliminar candidato: (1 << (7 + valor - 1))
    ADD     r9, r3, #7      // r9 = 7 + valor (BIT_CANDIDATOS = 7)
 c0024a4:	e2839007 	add	r9, r3, #7
    SUB     r9, r9, #1      // r9 = 7 + valor - 1
 c0024a8:	e2499001 	sub	r9, r9, #1
    MOV     r10, #1         // r10 = 1
 c0024ac:	e3a0a001 	mov	sl, #1
    MOV     r10, r10, LSL r9 // r10 = mscara para eliminar candidato
 c0024b0:	e1a0a91a 	lsl	sl, sl, r9

    # ===== RECORRER FILA =====
    MOV     r6, #0          // j = 0
 c0024b4:	e3a06000 	mov	r6, #0

0c0024b8 <bucle_fila>:

bucle_fila:
    CMP     r6, r4          // comparar j con NUM_FILAS
 c0024b8:	e1560004 	cmp	r6, r4
    BGE     fin_fila        // si j >= NUM_FILAS, terminar
 c0024bc:	aa000007 	bge	c0024e0 <fin_fila>

    # Calcular direccin: cuadricula[fila][j]
    MLA     r8, r1, r5, r6  // r8 = fila * NUM_COLUMNAS + j
 c0024c0:	e0286591 	mla	r8, r1, r5, r6
    MOV     r8, r8, LSL #1  // r8 *= 2 (sizeof CELDA)
 c0024c4:	e1a08088 	lsl	r8, r8, #1
    ADD     r8, r0, r8      // r8 = direccin de cuadricula[fila][j]
 c0024c8:	e0808008 	add	r8, r0, r8

    # Leer valor de la celda
    LDRH    r9, [r8]        // r9 = cuadricula[fila][j]
 c0024cc:	e1d890b0 	ldrh	r9, [r8]

    # Eliminar candidato: celda |= mscara
    ORR     r9, r9, r10     // r9 |= mscara
 c0024d0:	e189900a 	orr	r9, r9, sl
    STRH    r9, [r8]        // guardar celda modificada
 c0024d4:	e1c890b0 	strh	r9, [r8]

0c0024d8 <siguiente_fila>:

siguiente_fila:
    ADD     r6, r6, #1      // j++
 c0024d8:	e2866001 	add	r6, r6, #1
    B       bucle_fila
 c0024dc:	eafffff5 	b	c0024b8 <bucle_fila>

0c0024e0 <fin_fila>:

fin_fila:
    # ===== RECORRER COLUMNA =====
    MOV     r7, #0          // i = 0
 c0024e0:	e3a07000 	mov	r7, #0

0c0024e4 <bucle_columna>:

bucle_columna:
    CMP     r7, r4          // comparar i con NUM_FILAS, evitamos padding
 c0024e4:	e1570004 	cmp	r7, r4
    BGE     fin_columna     // si i >= NUM_FILAS, terminar
 c0024e8:	aa000007 	bge	c00250c <fin_columna>

    # Calcular direccin: cuadricula[i][columna]
    MLA     r8, r7, r5, r2  // r8 = i * NUM_COLUMNAS + columna
 c0024ec:	e0282597 	mla	r8, r7, r5, r2
    MOV     r8, r8, LSL #1  // r8 *= 2 (sizeof CELDA)
 c0024f0:	e1a08088 	lsl	r8, r8, #1
    ADD     r8, r0, r8      // r8 = direccin de cuadricula[i][columna]
 c0024f4:	e0808008 	add	r8, r0, r8

    # Leer valor de la celda
    LDRH    r9, [r8]        // r9 = cuadricula[i][columna]
 c0024f8:	e1d890b0 	ldrh	r9, [r8]

    # Eliminar candidato: celda |= mscara
    ORR     r9, r9, r10     // r9 |= mscara
 c0024fc:	e189900a 	orr	r9, r9, sl
    STRH    r9, [r8]        // guardar celda modificada
 c002500:	e1c890b0 	strh	r9, [r8]

0c002504 <siguiente_columna>:

siguiente_columna:
    ADD     r7, r7, #1      // i++
 c002504:	e2877001 	add	r7, r7, #1
    B       bucle_columna
 c002508:	eafffff5 	b	c0024e4 <bucle_columna>

0c00250c <fin_columna>:

fin_columna:
    # ===== RECORRER REGIN 3x3 =====
    # Implementar lookup table: init_region[9] = {0, 0, 0, 3, 3, 3, 6, 6, 6}
    # Calcular init_i usando lookup table
    CMP     r1, #3
 c00250c:	e3510003 	cmp	r1, #3
    MOVLT   r7, #0          // si fila < 3, init_i = 0
 c002510:	b3a07000 	movlt	r7, #0
    MOVGE   r7, #3          // si fila >= 3, init_i = 3
 c002514:	a3a07003 	movge	r7, #3
    CMP     r1, #6
 c002518:	e3510006 	cmp	r1, #6
    MOVGE   r7, #6          // si fila >= 6, init_i = 6
 c00251c:	a3a07006 	movge	r7, #6

    # Calcular init_j usando lookup table
    CMP     r2, #3
 c002520:	e3520003 	cmp	r2, #3
    MOVLT   r6, #0          // si columna < 3, init_j = 0
 c002524:	b3a06000 	movlt	r6, #0
    MOVGE   r6, #3          // si columna >= 3, init_j = 3
 c002528:	a3a06003 	movge	r6, #3
    CMP     r2, #6
 c00252c:	e3520006 	cmp	r2, #6
    MOVGE   r6, #6          // si columna >= 6, init_j = 6
 c002530:	a3a06006 	movge	r6, #6

    # r7 = init_i, r6 = init_j
    # Bucle regin: for (i = init_i; i < init_i + 3; i++)
    ADD     r3, r7, #3      // r3 = init_i + 3 (reutilizar r3)
 c002534:	e2873003 	add	r3, r7, #3

0c002538 <bucle_region_i>:

bucle_region_i:
    CMP     r7, r3          // comparar i con init_i + 3
 c002538:	e1570003 	cmp	r7, r3
    BGE     fin_region      // si i >= init_i + 3, terminar
 c00253c:	aa000011 	bge	c002588 <fin_region>

    # Bucle regin: for (j = init_j; j < init_j + 3; j++)
    # Recalcular init_j para bucle interno
    CMP     r2, #3
 c002540:	e3520003 	cmp	r2, #3
    MOVLT   r6, #0
 c002544:	b3a06000 	movlt	r6, #0
    MOVGE   r6, #3
 c002548:	a3a06003 	movge	r6, #3
    CMP     r2, #6
 c00254c:	e3520006 	cmp	r2, #6
    MOVGE   r6, #6
 c002550:	a3a06006 	movge	r6, #6
    
    ADD     r9, r6, #3      // r9 = init_j + 3
 c002554:	e2869003 	add	r9, r6, #3

0c002558 <bucle_region_j>:

bucle_region_j:
    CMP     r6, r9          // comparar j con init_j + 3
 c002558:	e1560009 	cmp	r6, r9
    BGE     fin_region_j    // si j >= init_j + 3, terminar bucle j
 c00255c:	aa000007 	bge	c002580 <fin_region_j>

    # Calcular direccin: cuadricula[i][j]
    MLA     r8, r7, r5, r6  // r8 = i * NUM_COLUMNAS + j
 c002560:	e0286597 	mla	r8, r7, r5, r6
    MOV     r8, r8, LSL #1  // r8 *= 2 (sizeof CELDA)
 c002564:	e1a08088 	lsl	r8, r8, #1
    ADD     r8, r0, r8      // r8 = direccin de cuadricula[i][j]
 c002568:	e0808008 	add	r8, r0, r8

    # Leer valor de la celda
    LDRH    r4, [r8]        // r4 = cuadricula[i][j] (reutilizar r4)
 c00256c:	e1d840b0 	ldrh	r4, [r8]

    # Eliminar candidato: celda |= mscara
    ORR     r4, r4, r10     // r4 |= mscara
 c002570:	e184400a 	orr	r4, r4, sl
    STRH    r4, [r8]        // guardar celda modificada
 c002574:	e1c840b0 	strh	r4, [r8]

0c002578 <siguiente_region_j>:

siguiente_region_j:
    ADD     r6, r6, #1      // j++
 c002578:	e2866001 	add	r6, r6, #1
    B       bucle_region_j
 c00257c:	eafffff5 	b	c002558 <bucle_region_j>

0c002580 <fin_region_j>:

fin_region_j:
    ADD     r7, r7, #1      // i++
 c002580:	e2877001 	add	r7, r7, #1
    B       bucle_region_i
 c002584:	eaffffeb 	b	c002538 <bucle_region_i>

0c002588 <fin_region>:

fin_region:
propagar_fin:
    # Restaurar registros y retornar
    LDMIA   SP!, {r4-r10, fp, LR}
 c002588:	e8bd4ff0 	pop	{r4, r5, r6, r7, r8, r9, sl, fp, lr}
    BX      LR
 c00258c:	e12fff1e 	bx	lr

0c002590 <candidatos_actualizar_arm_arm>:
################################################################################
.global candidatos_actualizar_arm_arm

candidatos_actualizar_arm_arm:
    # Preservar registros y configurar frame pointer
    STMDB   SP!, {r4-r10, fp, LR}
 c002590:	e92d4ff0 	push	{r4, r5, r6, r7, r8, r9, sl, fp, lr}
    ADD     fp, SP, #(4*7-4)    @ FP  direccin base del marco (7 registros: r4-r10)
 c002594:	e28db018 	add	fp, sp, #24
    SUB     SP, SP, #8      // Reservar espacio para 2 variables locales (i, j)
 c002598:	e24dd008 	sub	sp, sp, #8
    # r9 = contador i (filas)
    # r10 = contador j (columnas)
    # r0,r1,r2,r3 = direcciones, valores temporales

    # Inicializar constantes
    MOV     r4, r0          // r4 = puntero base cuadrcula
 c00259c:	e1a04000 	mov	r4, r0
    MOV     r5, #9          // r5 = NUM_FILAS
 c0025a0:	e3a05009 	mov	r5, #9
    MOV     r6, #16         // r6 = NUM_COLUMNAS (9 + 7 padding)
 c0025a4:	e3a06010 	mov	r6, #16
    MOV     r7, #0x007F     // r7 = mscara para limpiar candidatos (preservar bits 6-0)
 c0025a8:	e3a0707f 	mov	r7, #127	; 0x7f
    MOV     r8, #0          // r8 = contador celdas vacas
 c0025ac:	e3a08000 	mov	r8, #0

    # ===== FASE 1: LIMPIAR CANDIDATOS DE TODAS LAS CELDAS Y CONTAR CELDAS VACAS =====
    MOV     r9, #0          // r9 = i (contador filas)
 c0025b0:	e3a09000 	mov	r9, #0

0c0025b4 <fase1_arm_arm_bucle_i>:

fase1_arm_arm_bucle_i:
    CMP     r9, r5          // comparar i con NUM_FILAS
 c0025b4:	e1590005 	cmp	r9, r5
    BGE     fase1_arm_arm_fin // si i >= NUM_FILAS, terminar fase 1
 c0025b8:	aa00000f 	bge	c0025fc <fase1_arm_arm_fin>

    MOV     r10, #0         // r10 = j (contador columnas)
 c0025bc:	e3a0a000 	mov	sl, #0

0c0025c0 <fase1_arm_arm_bucle_j>:

fase1_arm_arm_bucle_j:
    CMP     r10, r5         // comparar j con NUM_FILAS (solo primeras 9 columnas)
 c0025c0:	e15a0005 	cmp	sl, r5
    BGE     fase1_arm_arm_fin_j // si j >= NUM_FILAS, terminar bucle j
 c0025c4:	aa00000a 	bge	c0025f4 <fase1_arm_arm_fin_j>

    # Calcular direccin: cuadricula[i][j]
    MLA     r0, r9, r6, r10 // r0 = i * NUM_COLUMNAS + j
 c0025c8:	e020a699 	mla	r0, r9, r6, sl
    MOV     r0, r0, LSL #1  // r0 *= 2 (sizeof CELDA)
 c0025cc:	e1a00080 	lsl	r0, r0, #1
    ADD     r0, r4, r0      // r0 = direccin de cuadricula[i][j]
 c0025d0:	e0840000 	add	r0, r4, r0

    # Leer celda y limpiar candidatos de TODAS las celdas
    LDRH    r1, [r0]        // r1 = cuadricula[i][j]
 c0025d4:	e1d010b0 	ldrh	r1, [r0]
    AND     r1, r1, r7      // r1 &= 0x007F (limpiar bits candidatos 15-7)
 c0025d8:	e0011007 	and	r1, r1, r7
    STRH    r1, [r0]        // guardar celda modificada
 c0025dc:	e1c010b0 	strh	r1, [r0]
    
    # Si valor es 0, incrementar contador de celdas vacas
    AND     r2, r1, #0x0F   // r2 = valor de la celda (bits 3-0)
 c0025e0:	e201200f 	and	r2, r1, #15
    CMP     r2, #0          // valor == 0?
 c0025e4:	e3520000 	cmp	r2, #0
    ADDEQ   r8, r8, #1      // si s, celdas_vacias++
 c0025e8:	02888001 	addeq	r8, r8, #1

0c0025ec <fase1_arm_arm_siguiente_j>:

fase1_arm_arm_siguiente_j:
    ADD     r10, r10, #1    // j++
 c0025ec:	e28aa001 	add	sl, sl, #1
    B       fase1_arm_arm_bucle_j
 c0025f0:	eafffff2 	b	c0025c0 <fase1_arm_arm_bucle_j>

0c0025f4 <fase1_arm_arm_fin_j>:

fase1_arm_arm_fin_j:
    ADD     r9, r9, #1      // i++
 c0025f4:	e2899001 	add	r9, r9, #1
    B       fase1_arm_arm_bucle_i
 c0025f8:	eaffffed 	b	c0025b4 <fase1_arm_arm_bucle_i>

0c0025fc <fase1_arm_arm_fin>:

fase1_arm_arm_fin:
    # ===== FASE 2: PROPAGAR VALORES DE CELDAS NO VACAS =====
    MOV     r9, #0          // r9 = i (contador filas)
 c0025fc:	e3a09000 	mov	r9, #0

0c002600 <fase2_arm_arm_bucle_i>:

fase2_arm_arm_bucle_i:
    CMP     r9, r5          // comparar i con NUM_FILAS
 c002600:	e1590005 	cmp	r9, r5
    BGE     fase2_arm_arm_fin // si i >= NUM_FILAS, terminar fase 2
 c002604:	aa000015 	bge	c002660 <fase2_arm_arm_fin>

    MOV     r10, #0         // r10 = j (contador columnas)
 c002608:	e3a0a000 	mov	sl, #0

0c00260c <fase2_arm_arm_bucle_j>:

fase2_arm_arm_bucle_j:
    CMP     r10, r5         // comparar j con NUM_FILAS (solo primeras 9 columnas)
 c00260c:	e15a0005 	cmp	sl, r5
    BGE     fase2_arm_arm_fin_j // si j >= NUM_FILAS, terminar bucle j
 c002610:	aa000010 	bge	c002658 <fase2_arm_arm_fin_j>

    # Calcular direccin: cuadricula[i][j]
    MLA     r0, r9, r6, r10 // r0 = i * NUM_COLUMNAS + j
 c002614:	e020a699 	mla	r0, r9, r6, sl
    MOV     r0, r0, LSL #1  // r0 *= 2 (sizeof CELDA)
 c002618:	e1a00080 	lsl	r0, r0, #1
    ADD     r0, r4, r0      // r0 = direccin de cuadricula[i][j]
 c00261c:	e0840000 	add	r0, r4, r0

    # Procesar celda
    LDRH    r1, [r0]        // r1 = cuadricula[i][j]
 c002620:	e1d010b0 	ldrh	r1, [r0]
    AND     r2, r1, #0x0F   // r2 = valor de la celda (bits 3-0)
 c002624:	e201200f 	and	r2, r1, #15

    # Si celda est vaca (valor == 0), saltar
    CMP     r2, #0
 c002628:	e3520000 	cmp	r2, #0
    BEQ     fase2_arm_arm_siguiente_j
 c00262c:	0a000007 	beq	c002650 <fase2_arm_arm_siguiente_j>

    # Celda con valor: llamar a candidatos_propagar_arm
    # Guardar estado actual usando frame pointer
    STR     r9, [fp, #-4]   // guardar i (fila)
 c002630:	e50b9004 	str	r9, [fp, #-4]
    STR     r10, [fp, #-8]  // guardar j (columna)
 c002634:	e50ba008 	str	sl, [fp, #-8]
    
    # Preparar parmetros para la llamada
    MOV     r0, r4          // r0 = puntero base cuadrcula
 c002638:	e1a00004 	mov	r0, r4
    MOV     r1, r9          // r1 = fila (i)
 c00263c:	e1a01009 	mov	r1, r9
    MOV     r2, r10         // r2 = columna (j)
 c002640:	e1a0200a 	mov	r2, sl

    # Llamar a candidatos_propagar_arm
    BL      candidatos_propagar_arm
 c002644:	ebffff8b 	bl	c002478 <candidatos_propagar_arm>

    # Restaurar estado desde frame pointer
    LDR     r9, [fp, #-4]   // restaurar i (fila)
 c002648:	e51b9004 	ldr	r9, [fp, #-4]
    LDR     r10, [fp, #-8]  // restaurar j (columna)
 c00264c:	e51ba008 	ldr	sl, [fp, #-8]

0c002650 <fase2_arm_arm_siguiente_j>:

fase2_arm_arm_siguiente_j:
    ADD     r10, r10, #1    // j++
 c002650:	e28aa001 	add	sl, sl, #1
    B       fase2_arm_arm_bucle_j
 c002654:	eaffffec 	b	c00260c <fase2_arm_arm_bucle_j>

0c002658 <fase2_arm_arm_fin_j>:

fase2_arm_arm_fin_j:
    ADD     r9, r9, #1      // i++
 c002658:	e2899001 	add	r9, r9, #1
    B       fase2_arm_arm_bucle_i
 c00265c:	eaffffe7 	b	c002600 <fase2_arm_arm_bucle_i>

0c002660 <fase2_arm_arm_fin>:

fase2_arm_arm_fin:
    # Preparar valor de retorno
    MOV     r0, r8          // r0 = celdas_vacias (valor de retorno)
 c002660:	e1a00008 	mov	r0, r8

    # Restaurar pila y registros, luego retornar
    ADD     SP, SP, #8      // Liberar espacio de variables locales
 c002664:	e28dd008 	add	sp, sp, #8
    LDMIA   SP!, {r4-r10, fp, LR}
 c002668:	e8bd4ff0 	pop	{r4, r5, r6, r7, r8, r9, sl, fp, lr}
    BX      LR
 c00266c:	e12fff1e 	bx	lr

0c002670 <candidatos_actualizar_arm_c>:
################################################################################
.global candidatos_actualizar_arm_c

candidatos_actualizar_arm_c:
    # Preservar registros y configurar frame pointer
    STMDB   SP!, {r4-r10, fp, LR}
 c002670:	e92d4ff0 	push	{r4, r5, r6, r7, r8, r9, sl, fp, lr}
    ADD     fp, SP, #(4*7-4)    @ FP  direccin base del marco (7 registros: r4-r10)
 c002674:	e28db018 	add	fp, sp, #24
    SUB     SP, SP, #8      // Reservar espacio para 2 variables locales (i, j)
 c002678:	e24dd008 	sub	sp, sp, #8
    # r9 = contador i (filas)
    # r10 = contador j (columnas)
    # r0,r1,r2,r3 = direcciones, valores temporales

    # Inicializar constantes
    MOV     r4, r0          // r4 = puntero base cuadrcula
 c00267c:	e1a04000 	mov	r4, r0
    MOV     r5, #9          // r5 = NUM_FILAS
 c002680:	e3a05009 	mov	r5, #9
    MOV     r6, #16         // r6 = NUM_COLUMNAS (9 + 7 padding)
 c002684:	e3a06010 	mov	r6, #16
    MOV     r7, #0x007F     // r7 = mscara para limpiar candidatos (preservar bits 6-0)
 c002688:	e3a0707f 	mov	r7, #127	; 0x7f
    MOV     r8, #0          // r8 = contador celdas vacas
 c00268c:	e3a08000 	mov	r8, #0

    # ===== FASE 1: LIMPIAR CANDIDATOS DE TODAS LAS CELDAS Y CONTAR CELDAS VACAS =====
    MOV     r9, #0          // r9 = i (contador filas)
 c002690:	e3a09000 	mov	r9, #0

0c002694 <fase1_arm_c_bucle_i>:

fase1_arm_c_bucle_i:
    CMP     r9, r5          // comparar i con NUM_FILAS
 c002694:	e1590005 	cmp	r9, r5
    BGE     fase1_arm_c_fin // si i >= NUM_FILAS, terminar fase 1
 c002698:	aa00000f 	bge	c0026dc <fase1_arm_c_fin>

    MOV     r10, #0         // r10 = j (contador columnas)
 c00269c:	e3a0a000 	mov	sl, #0

0c0026a0 <fase1_arm_c_bucle_j>:

fase1_arm_c_bucle_j:
    CMP     r10, r5         // comparar j con NUM_FILAS (solo primeras 9 columnas)
 c0026a0:	e15a0005 	cmp	sl, r5
    BGE     fase1_arm_c_fin_j // si j >= NUM_FILAS, terminar bucle j
 c0026a4:	aa00000a 	bge	c0026d4 <fase1_arm_c_fin_j>

    # Calcular direccin: cuadricula[i][j]
    MLA     r0, r9, r6, r10 // r0 = i * NUM_COLUMNAS + j
 c0026a8:	e020a699 	mla	r0, r9, r6, sl
    MOV     r0, r0, LSL #1  // r0 *= 2 (sizeof CELDA)
 c0026ac:	e1a00080 	lsl	r0, r0, #1
    ADD     r0, r4, r0      // r0 = direccin de cuadricula[i][j]
 c0026b0:	e0840000 	add	r0, r4, r0

    # Leer celda y limpiar candidatos de TODAS las celdas
    LDRH    r1, [r0]        // r1 = cuadricula[i][j]
 c0026b4:	e1d010b0 	ldrh	r1, [r0]
    AND     r1, r1, r7      // r1 &= 0x007F (limpiar bits candidatos 15-7)
 c0026b8:	e0011007 	and	r1, r1, r7
    STRH    r1, [r0]        // guardar celda modificada
 c0026bc:	e1c010b0 	strh	r1, [r0]
    
    # Si valor es 0, incrementar contador de celdas vacas
    AND     r2, r1, #0x0F   // r2 = valor de la celda (bits 3-0)
 c0026c0:	e201200f 	and	r2, r1, #15
    CMP     r2, #0          // valor == 0?
 c0026c4:	e3520000 	cmp	r2, #0
    ADDEQ   r8, r8, #1      // si s, celdas_vacias++
 c0026c8:	02888001 	addeq	r8, r8, #1

0c0026cc <fase1_arm_c_siguiente_j>:

fase1_arm_c_siguiente_j:
    ADD     r10, r10, #1    // j++
 c0026cc:	e28aa001 	add	sl, sl, #1
    B       fase1_arm_c_bucle_j
 c0026d0:	eafffff2 	b	c0026a0 <fase1_arm_c_bucle_j>

0c0026d4 <fase1_arm_c_fin_j>:

fase1_arm_c_fin_j:
    ADD     r9, r9, #1      // i++
 c0026d4:	e2899001 	add	r9, r9, #1
    B       fase1_arm_c_bucle_i
 c0026d8:	eaffffed 	b	c002694 <fase1_arm_c_bucle_i>

0c0026dc <fase1_arm_c_fin>:

fase1_arm_c_fin:
    # ===== FASE 2: PROPAGAR VALORES DE CELDAS NO VACAS =====
    MOV     r9, #0          // r9 = i (contador filas)
 c0026dc:	e3a09000 	mov	r9, #0

0c0026e0 <fase2_arm_c_bucle_i>:

fase2_arm_c_bucle_i:
    CMP     r9, r5          // comparar i con NUM_FILAS
 c0026e0:	e1590005 	cmp	r9, r5
    BGE     fase2_arm_c_fin // si i >= NUM_FILAS, terminar fase 2
 c0026e4:	aa000015 	bge	c002740 <fase2_arm_c_fin>

    MOV     r10, #0         // r10 = j (contador columnas)
 c0026e8:	e3a0a000 	mov	sl, #0

0c0026ec <fase2_arm_c_bucle_j>:

fase2_arm_c_bucle_j:
    CMP     r10, r5         // comparar j con NUM_FILAS (solo primeras 9 columnas)
 c0026ec:	e15a0005 	cmp	sl, r5
    BGE     fase2_arm_c_fin_j // si j >= NUM_FILAS, terminar bucle j
 c0026f0:	aa000010 	bge	c002738 <fase2_arm_c_fin_j>

    # Calcular direccin: cuadricula[i][j]
    MLA     r0, r9, r6, r10 // r0 = i * NUM_COLUMNAS + j
 c0026f4:	e020a699 	mla	r0, r9, r6, sl
    MOV     r0, r0, LSL #1  // r0 *= 2 (sizeof CELDA)
 c0026f8:	e1a00080 	lsl	r0, r0, #1
    ADD     r0, r4, r0      // r0 = direccin de cuadricula[i][j]
 c0026fc:	e0840000 	add	r0, r4, r0

    # Procesar celda
    LDRH    r1, [r0]        // r1 = cuadricula[i][j]
 c002700:	e1d010b0 	ldrh	r1, [r0]
    AND     r2, r1, #0x0F   // r2 = valor de la celda (bits 3-0)
 c002704:	e201200f 	and	r2, r1, #15

    # Si celda est vaca (valor == 0), saltar
    CMP     r2, #0
 c002708:	e3520000 	cmp	r2, #0
    BEQ     fase2_arm_c_siguiente_j
 c00270c:	0a000007 	beq	c002730 <fase2_arm_c_siguiente_j>

    # Celda con valor: llamar a candidatos_propagar_c
    # Guardar estado actual usando frame pointer
    STR     r9, [fp, #-4]   // guardar i (fila)
 c002710:	e50b9004 	str	r9, [fp, #-4]
    STR     r10, [fp, #-8]  // guardar j (columna)
 c002714:	e50ba008 	str	sl, [fp, #-8]
    
    # Preparar parmetros para la llamada
    MOV     r0, r4          // r0 = puntero base cuadrcula
 c002718:	e1a00004 	mov	r0, r4
    MOV     r1, r9          // r1 = fila (i)
 c00271c:	e1a01009 	mov	r1, r9
    MOV     r2, r10         // r2 = columna (j)
 c002720:	e1a0200a 	mov	r2, sl

    # Llamar a candidatos_propagar_c (funcin C)
    BL      candidatos_propagar_c
 c002724:	eb000960 	bl	c004cac <candidatos_propagar_c>

    # Restaurar estado desde frame pointer
    LDR     r9, [fp, #-4]   // restaurar i (fila)
 c002728:	e51b9004 	ldr	r9, [fp, #-4]
    LDR     r10, [fp, #-8]  // restaurar j (columna)
 c00272c:	e51ba008 	ldr	sl, [fp, #-8]

0c002730 <fase2_arm_c_siguiente_j>:

fase2_arm_c_siguiente_j:
    ADD     r10, r10, #1    // j++
 c002730:	e28aa001 	add	sl, sl, #1
    B       fase2_arm_c_bucle_j
 c002734:	eaffffec 	b	c0026ec <fase2_arm_c_bucle_j>

0c002738 <fase2_arm_c_fin_j>:

fase2_arm_c_fin_j:
    ADD     r9, r9, #1      // i++
 c002738:	e2899001 	add	r9, r9, #1
    B       fase2_arm_c_bucle_i
 c00273c:	eaffffe7 	b	c0026e0 <fase2_arm_c_bucle_i>

0c002740 <fase2_arm_c_fin>:

fase2_arm_c_fin:
    # Preparar valor de retorno
    MOV     r0, r8          // r0 = celdas_vacias (valor de retorno)
 c002740:	e1a00008 	mov	r0, r8

    # Restaurar pila y registros, luego retornar
    ADD     SP, SP, #8      // Liberar espacio de variables locales
 c002744:	e28dd008 	add	sp, sp, #8
    LDMIA   SP!, {r4-r10, fp, LR}
 c002748:	e8bd4ff0 	pop	{r4, r5, r6, r7, r8, r9, sl, fp, lr}
    BX      LR
 c00274c:	e12fff1e 	bx	lr

0c002750 <candidatos_actualizar_all>:
################################################################################
.global candidatos_actualizar_all

candidatos_actualizar_all:
    # Preservar registros y configurar frame pointer
    STMDB   SP!, {r4-r10, fp, LR}
 c002750:	e92d4ff0 	push	{r4, r5, r6, r7, r8, r9, sl, fp, lr}
    ADD     fp, SP, #(4*7-4)    @ FP  direccin base del marco (7 registros: r4-r10)
 c002754:	e28db018 	add	fp, sp, #24
    SUB     SP, SP, #8      // Reservar espacio para 2 variables locales (i, j)
 c002758:	e24dd008 	sub	sp, sp, #8
    # r8 = contador i principal / contador bucles internos
    # r9 = contador j principal / direcciones temporales
    # r10 = direccin celda actual / mscaras temporales / valores temporales

    # Inicializar registros crticos
    MOV     r4, r0          // r4 = puntero base cuadrcula (inmutable)
 c00275c:	e1a04000 	mov	r4, r0
    MOV     r5, #9          // r5 = NUM_FILAS
 c002760:	e3a05009 	mov	r5, #9
    MOV     r6, #16         // r6 = NUM_COLUMNAS (9 + 7 padding)
 c002764:	e3a06010 	mov	r6, #16
    MOV     r7, #0          // r7 = contador celdas vacas
 c002768:	e3a07000 	mov	r7, #0

    # ===== FASE 1: LIMPIAR CANDIDATOS Y CONTAR CELDAS VACAS =====
    MOV     r8, #0          // r8 = i (contador filas)
 c00276c:	e3a08000 	mov	r8, #0

0c002770 <fase1_all_bucle_i>:

fase1_all_bucle_i:
    CMP     r8, r5          // comparar i con NUM_FILAS
 c002770:	e1580005 	cmp	r8, r5
    BGE     fase1_all_fin   // si i >= NUM_FILAS, terminar fase 1
 c002774:	aa00000f 	bge	c0027b8 <fase1_all_fin>

    MOV     r9, #0          // r9 = j (contador columnas)
 c002778:	e3a09000 	mov	r9, #0

0c00277c <fase1_all_bucle_j>:

fase1_all_bucle_j:
    CMP     r9, r5          // comparar j con NUM_FILAS (solo primeras 9 columnas)
 c00277c:	e1590005 	cmp	r9, r5
    BGE     fase1_all_fin_j // si j >= NUM_FILAS, terminar bucle j
 c002780:	aa00000a 	bge	c0027b0 <fase1_all_fin_j>

    # Calcular direccin: cuadricula[i][j]
    MLA     r10, r8, r6, r9 // r10 = i * NUM_COLUMNAS + j
 c002784:	e02a9698 	mla	sl, r8, r6, r9
    MOV     r10, r10, LSL #1 // r10 *= 2 (sizeof CELDA)
 c002788:	e1a0a08a 	lsl	sl, sl, #1
    ADD     r10, r4, r10    // r10 = direccin de cuadricula[i][j]
 c00278c:	e084a00a 	add	sl, r4, sl

    # Leer celda y procesar
    LDRH    r0, [r10]       // r0 = cuadricula[i][j]
 c002790:	e1da00b0 	ldrh	r0, [sl]
    
    # Limpiar bits candidatos [15,7] manteniendo [6,0]
    AND     r0, r0, #0x007F // r0 &= 0x007F (limpiar candidatos)
 c002794:	e200007f 	and	r0, r0, #127	; 0x7f
    STRH    r0, [r10]       // guardar celda modificada
 c002798:	e1ca00b0 	strh	r0, [sl]
    
    # Si valor es 0, incrementar contador de celdas vacas
    AND     r0, r0, #0x0F   // r0 = valor de la celda (bits 3-0)
 c00279c:	e200000f 	and	r0, r0, #15
    CMP     r0, #0          // valor == 0?
 c0027a0:	e3500000 	cmp	r0, #0
    ADDEQ   r7, r7, #1      // si s, celdas_vacias++
 c0027a4:	02877001 	addeq	r7, r7, #1

0c0027a8 <fase1_all_siguiente_j>:

fase1_all_siguiente_j:
    ADD     r9, r9, #1      // j++
 c0027a8:	e2899001 	add	r9, r9, #1
    B       fase1_all_bucle_j
 c0027ac:	eafffff2 	b	c00277c <fase1_all_bucle_j>

0c0027b0 <fase1_all_fin_j>:

fase1_all_fin_j:
    ADD     r8, r8, #1      // i++
 c0027b0:	e2888001 	add	r8, r8, #1
    B       fase1_all_bucle_i
 c0027b4:	eaffffed 	b	c002770 <fase1_all_bucle_i>

0c0027b8 <fase1_all_fin>:

fase1_all_fin:
    # ===== FASE 2: PROPAGAR VALORES DE CELDAS NO VACAS =====
    MOV     r8, #0          // r8 = i (contador filas principales)
 c0027b8:	e3a08000 	mov	r8, #0

0c0027bc <fase2_all_bucle_i>:

fase2_all_bucle_i:
    CMP     r8, r5          // comparar i con NUM_FILAS
 c0027bc:	e1580005 	cmp	r8, r5
    BGE     fase2_all_fin   // si i >= NUM_FILAS, terminar fase 2
 c0027c0:	aa00004b 	bge	c0028f4 <fase2_all_fin>

    MOV     r9, #0          // r9 = j (contador columnas principales)
 c0027c4:	e3a09000 	mov	r9, #0

0c0027c8 <fase2_all_bucle_j>:

fase2_all_bucle_j:
    CMP     r9, r5          // comparar j con NUM_FILAS (solo primeras 9 columnas)
 c0027c8:	e1590005 	cmp	r9, r5
    BGE     fase2_all_fin_j // si j >= NUM_FILAS, terminar bucle j
 c0027cc:	aa000046 	bge	c0028ec <fase2_all_fin_j>

    # Calcular direccin: cuadricula[i][j]
    MLA     r10, r8, r6, r9 // r10 = i * NUM_COLUMNAS + j
 c0027d0:	e02a9698 	mla	sl, r8, r6, r9
    MOV     r10, r10, LSL #1 // r10 *= 2 (sizeof CELDA)
 c0027d4:	e1a0a08a 	lsl	sl, sl, #1
    ADD     r10, r4, r10    // r10 = direccin de cuadricula[i][j]
 c0027d8:	e084a00a 	add	sl, r4, sl

    # Leer valor de la celda
    LDRH    r0, [r10]       // r0 = cuadricula[i][j]
 c0027dc:	e1da00b0 	ldrh	r0, [sl]
    AND     r0, r0, #0x0F   // r0 = valor de la celda (bits 3-0)
 c0027e0:	e200000f 	and	r0, r0, #15

    # Si celda est vaca (valor == 0), saltar propagacin
    CMP     r0, #0
 c0027e4:	e3500000 	cmp	r0, #0
    BEQ     fase2_all_siguiente_j
 c0027e8:	0a00003d 	beq	c0028e4 <all_fin_region>
    # ===== CDIGO INLINEADO DE CANDIDATOS_PROPAGAR =====
    # Variables actuales: r8=fila, r9=columna, r0=valor
    # Registros disponibles para reutilizar: r1,r2,r3
    
    # Calcular mscara para eliminar candidato: (1 << (7 + valor - 1))
    ADD     r1, r0, #6      // r1 = valor + 6 (7 + valor - 1)
 c0027ec:	e2801006 	add	r1, r0, #6
    MOV     r2, #1          // r2 = 1
 c0027f0:	e3a02001 	mov	r2, #1
    MOV     r2, r2, LSL r1  // r2 = mscara para eliminar candidato
 c0027f4:	e1a02112 	lsl	r2, r2, r1

    # ===== PROPAGAR EN FILA (i=r8 fijo, j variable) =====
    MOV     r1, #0          // r1 = j_prop (contador columnas para propagacin)
 c0027f8:	e3a01000 	mov	r1, #0

0c0027fc <propagar_fila>:

propagar_fila:
    CMP     r1, r5          // comparar j_prop con NUM_FILAS
 c0027fc:	e1510005 	cmp	r1, r5
    BGE     fin_propagar_fila
 c002800:	aa000007 	bge	c002824 <fin_propagar_fila>

    # Calcular direccin: cuadricula[fila][j_prop]
    MLA     r3, r8, r6, r1  // r3 = fila * NUM_COLUMNAS + j_prop
 c002804:	e0231698 	mla	r3, r8, r6, r1
    MOV     r3, r3, LSL #1  // r3 *= 2 (sizeof CELDA)
 c002808:	e1a03083 	lsl	r3, r3, #1
    ADD     r3, r4, r3      // r3 = direccin de cuadricula[fila][j_prop]
 c00280c:	e0843003 	add	r3, r4, r3

    # Eliminar candidato: celda |= mscara
    LDRH    r0, [r3]        // r0 = celda actual
 c002810:	e1d300b0 	ldrh	r0, [r3]
    ORR     r0, r0, r2      // r0 |= mscara
 c002814:	e1800002 	orr	r0, r0, r2
    STRH    r0, [r3]        // guardar celda modificada
 c002818:	e1c300b0 	strh	r0, [r3]

    ADD     r1, r1, #1      // j_prop++
 c00281c:	e2811001 	add	r1, r1, #1
    B       propagar_fila
 c002820:	eafffff5 	b	c0027fc <propagar_fila>

0c002824 <fin_propagar_fila>:

fin_propagar_fila:
    # ===== PROPAGAR EN COLUMNA (j=r9 fijo, i variable) =====
    MOV     r1, #0          // r1 = i_prop (contador filas para propagacin)
 c002824:	e3a01000 	mov	r1, #0

0c002828 <propagar_columna>:

propagar_columna:
    CMP     r1, r5          // comparar i_prop con NUM_FILAS
 c002828:	e1510005 	cmp	r1, r5
    BGE     fin_propagar_columna
 c00282c:	aa000007 	bge	c002850 <fin_propagar_columna>

    # Calcular direccin: cuadricula[i_prop][columna]
    MLA     r3, r1, r6, r9  // r3 = i_prop * NUM_COLUMNAS + columna
 c002830:	e0239691 	mla	r3, r1, r6, r9
    MOV     r3, r3, LSL #1  // r3 *= 2 (sizeof CELDA)
 c002834:	e1a03083 	lsl	r3, r3, #1
    ADD     r3, r4, r3      // r3 = direccin de cuadricula[i_prop][columna]
 c002838:	e0843003 	add	r3, r4, r3

    # Eliminar candidato: celda |= mscara
    LDRH    r0, [r3]        // r0 = celda actual
 c00283c:	e1d300b0 	ldrh	r0, [r3]
    ORR     r0, r0, r2      // r0 |= mscara
 c002840:	e1800002 	orr	r0, r0, r2
    STRH    r0, [r3]        // guardar celda modificada
 c002844:	e1c300b0 	strh	r0, [r3]

    ADD     r1, r1, #1      // i_prop++
 c002848:	e2811001 	add	r1, r1, #1
    B       propagar_columna
 c00284c:	eafffff5 	b	c002828 <propagar_columna>

0c002850 <fin_propagar_columna>:

fin_propagar_columna:
    # ===== PROPAGAR EN REGIN 3x3 =====
    # Calcular init_i = (fila / 3) * 3
    CMP     r8, #3
 c002850:	e3580003 	cmp	r8, #3
    MOVLT   r1, #0          // si fila < 3, init_i = 0
 c002854:	b3a01000 	movlt	r1, #0
    MOVGE   r1, #3          // si fila >= 3, init_i = 3
 c002858:	a3a01003 	movge	r1, #3
    CMP     r8, #6
 c00285c:	e3580006 	cmp	r8, #6
    MOVGE   r1, #6          // si fila >= 6, init_i = 6
 c002860:	a3a01006 	movge	r1, #6

    # Calcular init_j = (columna / 3) * 3
    CMP     r9, #3
 c002864:	e3590003 	cmp	r9, #3
    MOVLT   r3, #0          // si columna < 3, init_j = 0
 c002868:	b3a03000 	movlt	r3, #0
    MOVGE   r3, #3          // si columna >= 3, init_j = 3
 c00286c:	a3a03003 	movge	r3, #3
    CMP     r9, #6
 c002870:	e3590006 	cmp	r9, #6
    MOVGE   r3, #6          // si columna >= 6, init_j = 6
 c002874:	a3a03006 	movge	r3, #6

    # Guardar variables en pila usando frame pointer
    # fp-4 = init_i, fp-8 = init_j, fp-12 = end_i, fp-16 = end_j, fp-20 = mscara
    STR     r1, [fp, #-4]   // guardar init_i
 c002878:	e50b1004 	str	r1, [fp, #-4]
    STR     r3, [fp, #-8]   // guardar init_j
 c00287c:	e50b3008 	str	r3, [fp, #-8]
    ADD     r0, r1, #3      // r0 = end_i
 c002880:	e2810003 	add	r0, r1, #3
    STR     r0, [fp, #-12]  // guardar end_i
 c002884:	e50b000c 	str	r0, [fp, #-12]
    ADD     r0, r3, #3      // r0 = end_j
 c002888:	e2830003 	add	r0, r3, #3
    STR     r0, [fp, #-16]  // guardar end_j
 c00288c:	e50b0010 	str	r0, [fp, #-16]
    STR     r2, [fp, #-20]  // guardar mscara (r2 contiene la mscara)
 c002890:	e50b2014 	str	r2, [fp, #-20]	; 0xffffffec

    # Bucle regin: for (i_reg = init_i; i_reg < end_i; i_reg++)
    MOV     r1, r1          // r1 = i_reg = init_i
 c002894:	e1a01001 	mov	r1, r1

0c002898 <all_bucle_region_i>:

all_bucle_region_i:
    LDR     r0, [fp, #-12]  // cargar end_i
 c002898:	e51b000c 	ldr	r0, [fp, #-12]
    CMP     r1, r0          // comparar i_reg con end_i
 c00289c:	e1510000 	cmp	r1, r0
    BGE     all_fin_region
 c0028a0:	aa00000f 	bge	c0028e4 <all_fin_region>

    # Bucle regin: for (j_reg = init_j; j_reg < end_j; j_reg++)
    LDR     r3, [fp, #-8]   // cargar init_j
 c0028a4:	e51b3008 	ldr	r3, [fp, #-8]
    MOV     r3, r3          // r3 = j_reg = init_j
 c0028a8:	e1a03003 	mov	r3, r3

0c0028ac <all_bucle_region_j>:

all_bucle_region_j:
    LDR     r0, [fp, #-16]  // cargar end_j
 c0028ac:	e51b0010 	ldr	r0, [fp, #-16]
    CMP     r3, r0          // comparar j_reg con end_j
 c0028b0:	e1530000 	cmp	r3, r0
    BGE     all_fin_region_j
 c0028b4:	aa000008 	bge	c0028dc <all_fin_region_j>

    # Calcular direccin: cuadricula[i_reg][j_reg]
    MLA     r0, r1, r6, r3  // r0 = i_reg * NUM_COLUMNAS + j_reg
 c0028b8:	e0203691 	mla	r0, r1, r6, r3
    MOV     r0, r0, LSL #1  // r0 *= 2 (sizeof CELDA)
 c0028bc:	e1a00080 	lsl	r0, r0, #1
    ADD     r0, r4, r0      // r0 = direccin de cuadricula[i_reg][j_reg]
 c0028c0:	e0840000 	add	r0, r4, r0

    # Eliminar candidato: celda |= mscara
    LDRH    r10, [r0]       // r10 = celda actual
 c0028c4:	e1d0a0b0 	ldrh	sl, [r0]
    LDR     r2, [fp, #-20]  // cargar mscara
 c0028c8:	e51b2014 	ldr	r2, [fp, #-20]	; 0xffffffec
    ORR     r10, r10, r2    // r10 |= mscara
 c0028cc:	e18aa002 	orr	sl, sl, r2
    STRH    r10, [r0]       // guardar celda modificada
 c0028d0:	e1c0a0b0 	strh	sl, [r0]

    ADD     r3, r3, #1      // j_reg++
 c0028d4:	e2833001 	add	r3, r3, #1
    B       all_bucle_region_j
 c0028d8:	eafffff3 	b	c0028ac <all_bucle_region_j>

0c0028dc <all_fin_region_j>:

all_fin_region_j:
    ADD     r1, r1, #1      // i_reg++
 c0028dc:	e2811001 	add	r1, r1, #1
    B       all_bucle_region_i
 c0028e0:	eaffffec 	b	c002898 <all_bucle_region_i>

0c0028e4 <all_fin_region>:

all_fin_region:
    # ===== FIN CDIGO INLINEADO DE CANDIDATOS_PROPAGAR =====

fase2_all_siguiente_j:
    ADD     r9, r9, #1      // j++
 c0028e4:	e2899001 	add	r9, r9, #1
    B       fase2_all_bucle_j
 c0028e8:	eaffffb6 	b	c0027c8 <fase2_all_bucle_j>

0c0028ec <fase2_all_fin_j>:

fase2_all_fin_j:
    ADD     r8, r8, #1      // i++
 c0028ec:	e2888001 	add	r8, r8, #1
    B       fase2_all_bucle_i
 c0028f0:	eaffffb1 	b	c0027bc <fase2_all_bucle_i>

0c0028f4 <fase2_all_fin>:

fase2_all_fin:
    # Preparar valor de retorno
    MOV     r0, r7          // r0 = celdas_vacias (valor de retorno)
 c0028f4:	e1a00007 	mov	r0, r7

    # Restaurar pila y registros, luego retornar
    ADD     SP, SP, #8      // Liberar espacio de variables locales
 c0028f8:	e28dd008 	add	sp, sp, #8
    LDMIA   SP!, {r4-r10, fp, LR}
 c0028fc:	e8bd4ff0 	pop	{r4, r5, r6, r7, r8, r9, sl, fp, lr}
    BX      LR
 c002900:	e12fff1e 	bx	lr

0c002904 <Lcd_Init>:
extern INT8U g_auc_Ascii6x8[];
extern STRU_BITMAP Stru_Bitmap_gbMouse;

/*--- cdigo de la funcin ---*/
void Lcd_Init(void)
{       
 c002904:	e1a0c00d 	mov	ip, sp
 c002908:	e92dd800 	push	{fp, ip, lr, pc}
 c00290c:	e24cb004 	sub	fp, ip, #4
	rDITHMODE=0x1223a;
 c002910:	e59f30fc 	ldr	r3, [pc, #252]	; c002a14 <Lcd_Init+0x110>
 c002914:	e59f20fc 	ldr	r2, [pc, #252]	; c002a18 <Lcd_Init+0x114>
 c002918:	e5832000 	str	r2, [r3]
	rDP1_2 =0x5a5a;      
 c00291c:	e59f30f8 	ldr	r3, [pc, #248]	; c002a1c <Lcd_Init+0x118>
 c002920:	e59f20f8 	ldr	r2, [pc, #248]	; c002a20 <Lcd_Init+0x11c>
 c002924:	e5832000 	str	r2, [r3]
	rDP4_7 =0x366cd9b;
 c002928:	e59f30f4 	ldr	r3, [pc, #244]	; c002a24 <Lcd_Init+0x120>
 c00292c:	e59f20f4 	ldr	r2, [pc, #244]	; c002a28 <Lcd_Init+0x124>
 c002930:	e5832000 	str	r2, [r3]
	rDP3_5 =0xda5a7;
 c002934:	e59f30f0 	ldr	r3, [pc, #240]	; c002a2c <Lcd_Init+0x128>
 c002938:	e59f20f0 	ldr	r2, [pc, #240]	; c002a30 <Lcd_Init+0x12c>
 c00293c:	e5832000 	str	r2, [r3]
	rDP2_3 =0xad7;
 c002940:	e59f30ec 	ldr	r3, [pc, #236]	; c002a34 <Lcd_Init+0x130>
 c002944:	e59f20ec 	ldr	r2, [pc, #236]	; c002a38 <Lcd_Init+0x134>
 c002948:	e5832000 	str	r2, [r3]
	rDP5_7 =0xfeda5b7;
 c00294c:	e59f30e8 	ldr	r3, [pc, #232]	; c002a3c <Lcd_Init+0x138>
 c002950:	e59f20e8 	ldr	r2, [pc, #232]	; c002a40 <Lcd_Init+0x13c>
 c002954:	e5832000 	str	r2, [r3]
	rDP3_4 =0xebd7;
 c002958:	e59f30e4 	ldr	r3, [pc, #228]	; c002a44 <Lcd_Init+0x140>
 c00295c:	e59f20e4 	ldr	r2, [pc, #228]	; c002a48 <Lcd_Init+0x144>
 c002960:	e5832000 	str	r2, [r3]
	rDP4_5 =0xebfd7;
 c002964:	e59f30e0 	ldr	r3, [pc, #224]	; c002a4c <Lcd_Init+0x148>
 c002968:	e59f20e0 	ldr	r2, [pc, #224]	; c002a50 <Lcd_Init+0x14c>
 c00296c:	e5832000 	str	r2, [r3]
	rDP6_7 =0x7efdfbf;
 c002970:	e59f30dc 	ldr	r3, [pc, #220]	; c002a54 <Lcd_Init+0x150>
 c002974:	e59f20dc 	ldr	r2, [pc, #220]	; c002a58 <Lcd_Init+0x154>
 c002978:	e5832000 	str	r2, [r3]

	rLCDCON1=(0)|(1<<5)|(MVAL_USED<<7)|(0x0<<8)|(0x0<<10)|(CLKVAL_GREY16<<12);
 c00297c:	e3a0361f 	mov	r3, #32505856	; 0x1f00000
 c002980:	e59f20d4 	ldr	r2, [pc, #212]	; c002a5c <Lcd_Init+0x158>
 c002984:	e5832000 	str	r2, [r3]
	rLCDCON2=(LINEVAL)|(HOZVAL<<10)|(10<<21); 
 c002988:	e59f30d0 	ldr	r3, [pc, #208]	; c002a60 <Lcd_Init+0x15c>
 c00298c:	e59f20d0 	ldr	r2, [pc, #208]	; c002a64 <Lcd_Init+0x160>
 c002990:	e5832000 	str	r2, [r3]
	rLCDSADDR1= (0x2<<27) | ( ((LCD_ACTIVE_BUFFER>>22)<<21 ) | M5D(LCD_ACTIVE_BUFFER>>1));
 c002994:	e59f30cc 	ldr	r3, [pc, #204]	; c002a68 <Lcd_Init+0x164>
 c002998:	e59f20cc 	ldr	r2, [pc, #204]	; c002a6c <Lcd_Init+0x168>
 c00299c:	e5832000 	str	r2, [r3]
 	rLCDSADDR2= M5D(((LCD_ACTIVE_BUFFER+(SCR_XSIZE*LCD_YSIZE/2))>>1)) | (MVAL<<21);
 c0029a0:	e59f30c8 	ldr	r3, [pc, #200]	; c002a70 <Lcd_Init+0x16c>
 c0029a4:	e59f20c8 	ldr	r2, [pc, #200]	; c002a74 <Lcd_Init+0x170>
 c0029a8:	e5832000 	str	r2, [r3]
	rLCDSADDR3= (LCD_XSIZE/4) | ( ((SCR_XSIZE-LCD_XSIZE)/4)<<9 );
 c0029ac:	e59f30c4 	ldr	r3, [pc, #196]	; c002a78 <Lcd_Init+0x174>
 c0029b0:	e3a02050 	mov	r2, #80	; 0x50
 c0029b4:	e5832000 	str	r2, [r3]
	// enable,4B_SNGL_SCAN,WDLY=8clk,WLH=8clk,
	rLCDCON1=(1)|(1<<5)|(MVAL_USED<<7)|(0x3<<8)|(0x3<<10)|(CLKVAL_GREY16<<12);
 c0029b8:	e3a0361f 	mov	r3, #32505856	; 0x1f00000
 c0029bc:	e59f20b8 	ldr	r2, [pc, #184]	; c002a7c <Lcd_Init+0x178>
 c0029c0:	e5832000 	str	r2, [r3]
	rBLUELUT=0xfa40;
 c0029c4:	e59f30b4 	ldr	r3, [pc, #180]	; c002a80 <Lcd_Init+0x17c>
 c0029c8:	e59f20b4 	ldr	r2, [pc, #180]	; c002a84 <Lcd_Init+0x180>
 c0029cc:	e5832000 	str	r2, [r3]
	//Enable LCD Logic and EL back-light.
	rPDATE=rPDATE&0x0e;
 c0029d0:	e59f30b0 	ldr	r3, [pc, #176]	; c002a88 <Lcd_Init+0x184>
 c0029d4:	e59f20ac 	ldr	r2, [pc, #172]	; c002a88 <Lcd_Init+0x184>
 c0029d8:	e5922000 	ldr	r2, [r2]
 c0029dc:	e202200e 	and	r2, r2, #14
 c0029e0:	e5832000 	str	r2, [r3]
	
	//DMA ISR
	rINTMSK &= ~(BIT_GLOBAL|BIT_ZDMA0);
 c0029e4:	e59f20a0 	ldr	r2, [pc, #160]	; c002a8c <Lcd_Init+0x188>
 c0029e8:	e59f309c 	ldr	r3, [pc, #156]	; c002a8c <Lcd_Init+0x188>
 c0029ec:	e5933000 	ldr	r3, [r3]
 c0029f0:	e3c33301 	bic	r3, r3, #67108864	; 0x4000000
 c0029f4:	e3c33702 	bic	r3, r3, #524288	; 0x80000
 c0029f8:	e5823000 	str	r3, [r2]
    pISR_ZDMA0=(int)Zdma0Done;
 c0029fc:	e59f308c 	ldr	r3, [pc, #140]	; c002a90 <Lcd_Init+0x18c>
 c002a00:	e59f208c 	ldr	r2, [pc, #140]	; c002a94 <Lcd_Init+0x190>
 c002a04:	e5832000 	str	r2, [r3]
}
 c002a08:	e24bd00c 	sub	sp, fp, #12
 c002a0c:	e89d6800 	ldm	sp, {fp, sp, lr}
 c002a10:	e12fff1e 	bx	lr
 c002a14:	01f00044 	.word	0x01f00044
 c002a18:	0001223a 	.word	0x0001223a
 c002a1c:	01f00020 	.word	0x01f00020
 c002a20:	00005a5a 	.word	0x00005a5a
 c002a24:	01f00024 	.word	0x01f00024
 c002a28:	0366cd9b 	.word	0x0366cd9b
 c002a2c:	01f00028 	.word	0x01f00028
 c002a30:	000da5a7 	.word	0x000da5a7
 c002a34:	01f0002c 	.word	0x01f0002c
 c002a38:	00000ad7 	.word	0x00000ad7
 c002a3c:	01f00030 	.word	0x01f00030
 c002a40:	0feda5b7 	.word	0x0feda5b7
 c002a44:	01f00034 	.word	0x01f00034
 c002a48:	0000ebd7 	.word	0x0000ebd7
 c002a4c:	01f00038 	.word	0x01f00038
 c002a50:	000ebfd7 	.word	0x000ebfd7
 c002a54:	01f0003c 	.word	0x01f0003c
 c002a58:	07efdfbf 	.word	0x07efdfbf
 c002a5c:	0000c020 	.word	0x0000c020
 c002a60:	01f00004 	.word	0x01f00004
 c002a64:	01413cef 	.word	0x01413cef
 c002a68:	01f00008 	.word	0x01f00008
 c002a6c:	16180000 	.word	0x16180000
 c002a70:	01f0000c 	.word	0x01f0000c
 c002a74:	01b84b00 	.word	0x01b84b00
 c002a78:	01f00010 	.word	0x01f00010
 c002a7c:	0000cf21 	.word	0x0000cf21
 c002a80:	01f0001c 	.word	0x01f0001c
 c002a84:	0000fa40 	.word	0x0000fa40
 c002a88:	01d2002c 	.word	0x01d2002c
 c002a8c:	01e0000c 	.word	0x01e0000c
 c002a90:	0c7fff6c 	.word	0x0c7fff6c
 c002a94:	0c0046b8 	.word	0x0c0046b8

0c002a98 <Lcd_Active_Clr>:
* ret:		none
* modify:
* comment:		
*********************************************************************************************/
void Lcd_Active_Clr(void)
{
 c002a98:	e1a0c00d 	mov	ip, sp
 c002a9c:	e92dd800 	push	{fp, ip, lr, pc}
 c002aa0:	e24cb004 	sub	fp, ip, #4
 c002aa4:	e24dd008 	sub	sp, sp, #8
	INT32U i;
	INT32U *pDisp = (INT32U *)LCD_ACTIVE_BUFFER;
 c002aa8:	e3a036c3 	mov	r3, #204472320	; 0xc300000
 c002aac:	e50b3014 	str	r3, [fp, #-20]	; 0xffffffec
	
	for( i = 0; i < (SCR_XSIZE*SCR_YSIZE/2/4); i++ )
 c002ab0:	e3a03000 	mov	r3, #0
 c002ab4:	e50b3010 	str	r3, [fp, #-16]
 c002ab8:	ea000008 	b	c002ae0 <Lcd_Active_Clr+0x48>
	{
		*pDisp++ = WHITE;
 c002abc:	e51b3014 	ldr	r3, [fp, #-20]	; 0xffffffec
 c002ac0:	e3a02000 	mov	r2, #0
 c002ac4:	e5832000 	str	r2, [r3]
 c002ac8:	e51b3014 	ldr	r3, [fp, #-20]	; 0xffffffec
 c002acc:	e2833004 	add	r3, r3, #4
 c002ad0:	e50b3014 	str	r3, [fp, #-20]	; 0xffffffec
void Lcd_Active_Clr(void)
{
	INT32U i;
	INT32U *pDisp = (INT32U *)LCD_ACTIVE_BUFFER;
	
	for( i = 0; i < (SCR_XSIZE*SCR_YSIZE/2/4); i++ )
 c002ad4:	e51b3010 	ldr	r3, [fp, #-16]
 c002ad8:	e2833001 	add	r3, r3, #1
 c002adc:	e50b3010 	str	r3, [fp, #-16]
 c002ae0:	e51b2010 	ldr	r2, [fp, #-16]
 c002ae4:	e59f3010 	ldr	r3, [pc, #16]	; c002afc <Lcd_Active_Clr+0x64>
 c002ae8:	e1520003 	cmp	r2, r3
 c002aec:	9afffff2 	bls	c002abc <Lcd_Active_Clr+0x24>
	{
		*pDisp++ = WHITE;
	}
}
 c002af0:	e24bd00c 	sub	sp, fp, #12
 c002af4:	e89d6800 	ldm	sp, {fp, sp, lr}
 c002af8:	e12fff1e 	bx	lr
 c002afc:	0000257f 	.word	0x0000257f

0c002b00 <LCD_GetPixel>:
* ret:		pot's color value
* modify:
* comment:		
*********************************************************************************************/
INT8U LCD_GetPixel(INT16U usX, INT16U usY)
{
 c002b00:	e1a0c00d 	mov	ip, sp
 c002b04:	e92dd800 	push	{fp, ip, lr, pc}
 c002b08:	e24cb004 	sub	fp, ip, #4
 c002b0c:	e24dd010 	sub	sp, sp, #16
 c002b10:	e1a02000 	mov	r2, r0
 c002b14:	e1a03001 	mov	r3, r1
 c002b18:	e14b21b6 	strh	r2, [fp, #-22]	; 0xffffffea
 c002b1c:	e14b31b8 	strh	r3, [fp, #-24]	; 0xffffffe8
	INT8U ucColor;

	ucColor = *((INT8U*)(LCD_VIRTUAL_BUFFER + usY*SCR_XSIZE/2 + usX/8*4 + 3 - (usX%8)/2));
 c002b20:	e15b21b8 	ldrh	r2, [fp, #-24]	; 0xffffffe8
 c002b24:	e1a03002 	mov	r3, r2
 c002b28:	e1a03103 	lsl	r3, r3, #2
 c002b2c:	e0833002 	add	r3, r3, r2
 c002b30:	e1a03303 	lsl	r3, r3, #6
 c002b34:	e1a02fa3 	lsr	r2, r3, #31
 c002b38:	e0823003 	add	r3, r2, r3
 c002b3c:	e1a030c3 	asr	r3, r3, #1
 c002b40:	e28336c3 	add	r3, r3, #204472320	; 0xc300000
 c002b44:	e2833c96 	add	r3, r3, #38400	; 0x9600
 c002b48:	e15b21b6 	ldrh	r2, [fp, #-22]	; 0xffffffea
 c002b4c:	e1a021a2 	lsr	r2, r2, #3
 c002b50:	e1a02802 	lsl	r2, r2, #16
 c002b54:	e1a02822 	lsr	r2, r2, #16
 c002b58:	e1a02102 	lsl	r2, r2, #2
 c002b5c:	e0833002 	add	r3, r3, r2
 c002b60:	e2832003 	add	r2, r3, #3
 c002b64:	e15b31b6 	ldrh	r3, [fp, #-22]	; 0xffffffea
 c002b68:	e2033007 	and	r3, r3, #7
 c002b6c:	e1a03803 	lsl	r3, r3, #16
 c002b70:	e1a03823 	lsr	r3, r3, #16
 c002b74:	e1a030a3 	lsr	r3, r3, #1
 c002b78:	e1a03803 	lsl	r3, r3, #16
 c002b7c:	e1a03823 	lsr	r3, r3, #16
 c002b80:	e0633002 	rsb	r3, r3, r2
 c002b84:	e5d33000 	ldrb	r3, [r3]
 c002b88:	e54b300d 	strb	r3, [fp, #-13]
	ucColor = (ucColor >> ((1-(usX%2))*4)) & 0x0f;
 c002b8c:	e55b200d 	ldrb	r2, [fp, #-13]
 c002b90:	e15b31b6 	ldrh	r3, [fp, #-22]	; 0xffffffea
 c002b94:	e2033001 	and	r3, r3, #1
 c002b98:	e3530000 	cmp	r3, #0
 c002b9c:	1a000001 	bne	c002ba8 <LCD_GetPixel+0xa8>
 c002ba0:	e3a03004 	mov	r3, #4
 c002ba4:	ea000000 	b	c002bac <LCD_GetPixel+0xac>
 c002ba8:	e3a03000 	mov	r3, #0
 c002bac:	e1a03352 	asr	r3, r2, r3
 c002bb0:	e20330ff 	and	r3, r3, #255	; 0xff
 c002bb4:	e203300f 	and	r3, r3, #15
 c002bb8:	e54b300d 	strb	r3, [fp, #-13]
	return ucColor;
 c002bbc:	e55b300d 	ldrb	r3, [fp, #-13]
}
 c002bc0:	e1a00003 	mov	r0, r3
 c002bc4:	e24bd00c 	sub	sp, fp, #12
 c002bc8:	e89d6800 	ldm	sp, {fp, sp, lr}
 c002bcc:	e12fff1e 	bx	lr

0c002bd0 <Lcd_Clr>:
* ret:		none
* modify:
* comment:		
*********************************************************************************************/
void Lcd_Clr(void)
{
 c002bd0:	e1a0c00d 	mov	ip, sp
 c002bd4:	e92dd800 	push	{fp, ip, lr, pc}
 c002bd8:	e24cb004 	sub	fp, ip, #4
 c002bdc:	e24dd008 	sub	sp, sp, #8
	INT32U i;
	INT32U *pDisp = (INT32U *)LCD_VIRTUAL_BUFFER;
 c002be0:	e59f304c 	ldr	r3, [pc, #76]	; c002c34 <Lcd_Clr+0x64>
 c002be4:	e50b3014 	str	r3, [fp, #-20]	; 0xffffffec
	
	for( i = 0; i < (SCR_XSIZE*SCR_YSIZE/2/4); i++ )
 c002be8:	e3a03000 	mov	r3, #0
 c002bec:	e50b3010 	str	r3, [fp, #-16]
 c002bf0:	ea000008 	b	c002c18 <Lcd_Clr+0x48>
	{
		*pDisp++ = WHITE;
 c002bf4:	e51b3014 	ldr	r3, [fp, #-20]	; 0xffffffec
 c002bf8:	e3a02000 	mov	r2, #0
 c002bfc:	e5832000 	str	r2, [r3]
 c002c00:	e51b3014 	ldr	r3, [fp, #-20]	; 0xffffffec
 c002c04:	e2833004 	add	r3, r3, #4
 c002c08:	e50b3014 	str	r3, [fp, #-20]	; 0xffffffec
void Lcd_Clr(void)
{
	INT32U i;
	INT32U *pDisp = (INT32U *)LCD_VIRTUAL_BUFFER;
	
	for( i = 0; i < (SCR_XSIZE*SCR_YSIZE/2/4); i++ )
 c002c0c:	e51b3010 	ldr	r3, [fp, #-16]
 c002c10:	e2833001 	add	r3, r3, #1
 c002c14:	e50b3010 	str	r3, [fp, #-16]
 c002c18:	e51b2010 	ldr	r2, [fp, #-16]
 c002c1c:	e59f3014 	ldr	r3, [pc, #20]	; c002c38 <Lcd_Clr+0x68>
 c002c20:	e1520003 	cmp	r2, r3
 c002c24:	9afffff2 	bls	c002bf4 <Lcd_Clr+0x24>
	{
		*pDisp++ = WHITE;
	}
}
 c002c28:	e24bd00c 	sub	sp, fp, #12
 c002c2c:	e89d6800 	ldm	sp, {fp, sp, lr}
 c002c30:	e12fff1e 	bx	lr
 c002c34:	0c309600 	.word	0x0c309600
 c002c38:	0000257f 	.word	0x0000257f

0c002c3c <LcdClrRect>:
* ret:		none
* modify:
* comment:	also as clear screen function 
*********************************************************************************************/
void LcdClrRect(INT16 usLeft, INT16 usTop, INT16 usRight, INT16 usBottom, INT8U ucColor)
{
 c002c3c:	e1a0c00d 	mov	ip, sp
 c002c40:	e92dd800 	push	{fp, ip, lr, pc}
 c002c44:	e24cb004 	sub	fp, ip, #4
 c002c48:	e24dd018 	sub	sp, sp, #24
 c002c4c:	e14b01be 	strh	r0, [fp, #-30]	; 0xffffffe2
 c002c50:	e14b12b0 	strh	r1, [fp, #-32]	; 0xffffffe0
 c002c54:	e14b22b2 	strh	r2, [fp, #-34]	; 0xffffffde
 c002c58:	e14b32b4 	strh	r3, [fp, #-36]	; 0xffffffdc
	INT16 i,k,l,m;
	
	INT32U ulColor = (ucColor << 28) | (ucColor << 24) | (ucColor << 20) | (ucColor << 16) | 
 c002c5c:	e5db3004 	ldrb	r3, [fp, #4]
 c002c60:	e1a02e03 	lsl	r2, r3, #28
 c002c64:	e5db3004 	ldrb	r3, [fp, #4]
 c002c68:	e1a03c03 	lsl	r3, r3, #24
 c002c6c:	e1822003 	orr	r2, r2, r3
 c002c70:	e5db3004 	ldrb	r3, [fp, #4]
 c002c74:	e1a03a03 	lsl	r3, r3, #20
 c002c78:	e1822003 	orr	r2, r2, r3
 c002c7c:	e5db3004 	ldrb	r3, [fp, #4]
 c002c80:	e1a03803 	lsl	r3, r3, #16
 c002c84:	e1822003 	orr	r2, r2, r3
				     (ucColor << 12) | (ucColor << 8) | (ucColor << 4) | ucColor;
 c002c88:	e5db3004 	ldrb	r3, [fp, #4]
 c002c8c:	e1a03603 	lsl	r3, r3, #12
*********************************************************************************************/
void LcdClrRect(INT16 usLeft, INT16 usTop, INT16 usRight, INT16 usBottom, INT8U ucColor)
{
	INT16 i,k,l,m;
	
	INT32U ulColor = (ucColor << 28) | (ucColor << 24) | (ucColor << 20) | (ucColor << 16) | 
 c002c90:	e1822003 	orr	r2, r2, r3
				     (ucColor << 12) | (ucColor << 8) | (ucColor << 4) | ucColor;
 c002c94:	e5db3004 	ldrb	r3, [fp, #4]
 c002c98:	e1a03403 	lsl	r3, r3, #8
 c002c9c:	e1822003 	orr	r2, r2, r3
 c002ca0:	e5db3004 	ldrb	r3, [fp, #4]
 c002ca4:	e1a03203 	lsl	r3, r3, #4
 c002ca8:	e1822003 	orr	r2, r2, r3
 c002cac:	e5db3004 	ldrb	r3, [fp, #4]
 c002cb0:	e1823003 	orr	r3, r2, r3
*********************************************************************************************/
void LcdClrRect(INT16 usLeft, INT16 usTop, INT16 usRight, INT16 usBottom, INT8U ucColor)
{
	INT16 i,k,l,m;
	
	INT32U ulColor = (ucColor << 28) | (ucColor << 24) | (ucColor << 20) | (ucColor << 16) | 
 c002cb4:	e50b3018 	str	r3, [fp, #-24]	; 0xffffffe8
				     (ucColor << 12) | (ucColor << 8) | (ucColor << 4) | ucColor;

	i = k = l = m = 0;	
 c002cb8:	e3a03000 	mov	r3, #0
 c002cbc:	e14b31b4 	strh	r3, [fp, #-20]	; 0xffffffec
 c002cc0:	e15b31b4 	ldrh	r3, [fp, #-20]	; 0xffffffec
 c002cc4:	e14b31b2 	strh	r3, [fp, #-18]	; 0xffffffee
 c002cc8:	e15b31b2 	ldrh	r3, [fp, #-18]	; 0xffffffee
 c002ccc:	e14b31b0 	strh	r3, [fp, #-16]
 c002cd0:	e15b31b0 	ldrh	r3, [fp, #-16]
 c002cd4:	e14b30be 	strh	r3, [fp, #-14]
	if( (usRight-usLeft) <= 8 )
 c002cd8:	e15b22f2 	ldrsh	r2, [fp, #-34]	; 0xffffffde
 c002cdc:	e15b31fe 	ldrsh	r3, [fp, #-30]	; 0xffffffe2
 c002ce0:	e0633002 	rsb	r3, r3, r2
 c002ce4:	e3530008 	cmp	r3, #8
 c002ce8:	ca00005f 	bgt	c002e6c <LcdClrRect+0x230>
	{
		for( i=usTop; i<=usBottom; i++)
 c002cec:	e15b32b0 	ldrh	r3, [fp, #-32]	; 0xffffffe0
 c002cf0:	e14b30be 	strh	r3, [fp, #-14]
 c002cf4:	ea000057 	b	c002e58 <LcdClrRect+0x21c>
		{
			for( m=usLeft; m<=usRight; m++)
 c002cf8:	e15b31be 	ldrh	r3, [fp, #-30]	; 0xffffffe2
 c002cfc:	e14b31b4 	strh	r3, [fp, #-20]	; 0xffffffec
 c002d00:	ea00004d 	b	c002e3c <LcdClrRect+0x200>
			{
				(LCD_PutPixel(m, i, ucColor));
 c002d04:	e15b20fe 	ldrsh	r2, [fp, #-14]
 c002d08:	e1a03002 	mov	r3, r2
 c002d0c:	e1a03103 	lsl	r3, r3, #2
 c002d10:	e0833002 	add	r3, r3, r2
 c002d14:	e1a03303 	lsl	r3, r3, #6
 c002d18:	e1a02fa3 	lsr	r2, r3, #31
 c002d1c:	e0823003 	add	r3, r2, r3
 c002d20:	e1a030c3 	asr	r3, r3, #1
 c002d24:	e28326c3 	add	r2, r3, #204472320	; 0xc300000
 c002d28:	e2822c96 	add	r2, r2, #38400	; 0x9600
 c002d2c:	e15b31f4 	ldrsh	r3, [fp, #-20]	; 0xffffffec
 c002d30:	e2831007 	add	r1, r3, #7
 c002d34:	e3530000 	cmp	r3, #0
 c002d38:	b1a03001 	movlt	r3, r1
 c002d3c:	e1a031c3 	asr	r3, r3, #3
 c002d40:	e1a03803 	lsl	r3, r3, #16
 c002d44:	e1a03823 	lsr	r3, r3, #16
 c002d48:	e1a03803 	lsl	r3, r3, #16
 c002d4c:	e1a03843 	asr	r3, r3, #16
 c002d50:	e1a03103 	lsl	r3, r3, #2
 c002d54:	e0823003 	add	r3, r2, r3
 c002d58:	e1a01003 	mov	r1, r3
 c002d5c:	e15b20fe 	ldrsh	r2, [fp, #-14]
 c002d60:	e1a03002 	mov	r3, r2
 c002d64:	e1a03103 	lsl	r3, r3, #2
 c002d68:	e0833002 	add	r3, r3, r2
 c002d6c:	e1a03303 	lsl	r3, r3, #6
 c002d70:	e1a02fa3 	lsr	r2, r3, #31
 c002d74:	e0823003 	add	r3, r2, r3
 c002d78:	e1a030c3 	asr	r3, r3, #1
 c002d7c:	e28326c3 	add	r2, r3, #204472320	; 0xc300000
 c002d80:	e2822c96 	add	r2, r2, #38400	; 0x9600
 c002d84:	e15b31f4 	ldrsh	r3, [fp, #-20]	; 0xffffffec
 c002d88:	e2830007 	add	r0, r3, #7
 c002d8c:	e3530000 	cmp	r3, #0
 c002d90:	b1a03000 	movlt	r3, r0
 c002d94:	e1a031c3 	asr	r3, r3, #3
 c002d98:	e1a03803 	lsl	r3, r3, #16
 c002d9c:	e1a03823 	lsr	r3, r3, #16
 c002da0:	e1a03803 	lsl	r3, r3, #16
 c002da4:	e1a03843 	asr	r3, r3, #16
 c002da8:	e1a03103 	lsl	r3, r3, #2
 c002dac:	e0823003 	add	r3, r2, r3
 c002db0:	e5930000 	ldr	r0, [r3]
 c002db4:	e15b21f4 	ldrsh	r2, [fp, #-20]	; 0xffffffec
 c002db8:	e1a03fc2 	asr	r3, r2, #31
 c002dbc:	e1a03ea3 	lsr	r3, r3, #29
 c002dc0:	e0822003 	add	r2, r2, r3
 c002dc4:	e2022007 	and	r2, r2, #7
 c002dc8:	e0633002 	rsb	r3, r3, r2
 c002dcc:	e1a03803 	lsl	r3, r3, #16
 c002dd0:	e1a03823 	lsr	r3, r3, #16
 c002dd4:	e1a03803 	lsl	r3, r3, #16
 c002dd8:	e1a03843 	asr	r3, r3, #16
 c002ddc:	e1a03103 	lsl	r3, r3, #2
 c002de0:	e3a0220f 	mov	r2, #-268435456	; 0xf0000000
 c002de4:	e1a03332 	lsr	r3, r2, r3
 c002de8:	e1e03003 	mvn	r3, r3
 c002dec:	e0000003 	and	r0, r0, r3
 c002df0:	e5dbc004 	ldrb	ip, [fp, #4]
 c002df4:	e15b21f4 	ldrsh	r2, [fp, #-20]	; 0xffffffec
 c002df8:	e1a03fc2 	asr	r3, r2, #31
 c002dfc:	e1a03ea3 	lsr	r3, r3, #29
 c002e00:	e0822003 	add	r2, r2, r3
 c002e04:	e2022007 	and	r2, r2, #7
 c002e08:	e0633002 	rsb	r3, r3, r2
 c002e0c:	e1a03803 	lsl	r3, r3, #16
 c002e10:	e1a03823 	lsr	r3, r3, #16
 c002e14:	e1a03803 	lsl	r3, r3, #16
 c002e18:	e1a03843 	asr	r3, r3, #16
 c002e1c:	e2633007 	rsb	r3, r3, #7
 c002e20:	e1a03103 	lsl	r3, r3, #2
 c002e24:	e1a0331c 	lsl	r3, ip, r3
 c002e28:	e1803003 	orr	r3, r0, r3
 c002e2c:	e5813000 	str	r3, [r1]
	i = k = l = m = 0;	
	if( (usRight-usLeft) <= 8 )
	{
		for( i=usTop; i<=usBottom; i++)
		{
			for( m=usLeft; m<=usRight; m++)
 c002e30:	e15b31b4 	ldrh	r3, [fp, #-20]	; 0xffffffec
 c002e34:	e2833001 	add	r3, r3, #1
 c002e38:	e14b31b4 	strh	r3, [fp, #-20]	; 0xffffffec
 c002e3c:	e15b21f4 	ldrsh	r2, [fp, #-20]	; 0xffffffec
 c002e40:	e15b32f2 	ldrsh	r3, [fp, #-34]	; 0xffffffde
 c002e44:	e1520003 	cmp	r2, r3
 c002e48:	daffffad 	ble	c002d04 <LcdClrRect+0xc8>
				     (ucColor << 12) | (ucColor << 8) | (ucColor << 4) | ucColor;

	i = k = l = m = 0;	
	if( (usRight-usLeft) <= 8 )
	{
		for( i=usTop; i<=usBottom; i++)
 c002e4c:	e15b30be 	ldrh	r3, [fp, #-14]
 c002e50:	e2833001 	add	r3, r3, #1
 c002e54:	e14b30be 	strh	r3, [fp, #-14]
 c002e58:	e15b20fe 	ldrsh	r2, [fp, #-14]
 c002e5c:	e15b32f4 	ldrsh	r3, [fp, #-36]	; 0xffffffdc
 c002e60:	e1520003 	cmp	r2, r3
 c002e64:	daffffa3 	ble	c002cf8 <LcdClrRect+0xbc>
			for( m=usLeft; m<=usRight; m++)
			{
				(LCD_PutPixel(m, i, ucColor));
			}
		}	
		return;
 c002e68:	ea000104 	b	c003280 <LcdClrRect+0x644>
	}

	/* check borderline */
	if( 0 == (usLeft%8) )
 c002e6c:	e15b31be 	ldrh	r3, [fp, #-30]	; 0xffffffe2
 c002e70:	e2033007 	and	r3, r3, #7
 c002e74:	e1a03803 	lsl	r3, r3, #16
 c002e78:	e1a03823 	lsr	r3, r3, #16
 c002e7c:	e3530000 	cmp	r3, #0
 c002e80:	1a000002 	bne	c002e90 <LcdClrRect+0x254>
		k=usLeft;
 c002e84:	e15b31be 	ldrh	r3, [fp, #-30]	; 0xffffffe2
 c002e88:	e14b31b0 	strh	r3, [fp, #-16]
 c002e8c:	ea00000f 	b	c002ed0 <LcdClrRect+0x294>
	else
	{
		k=(usLeft/8)*8+8;
 c002e90:	e15b31fe 	ldrsh	r3, [fp, #-30]	; 0xffffffe2
 c002e94:	e2832007 	add	r2, r3, #7
 c002e98:	e3530000 	cmp	r3, #0
 c002e9c:	b1a03002 	movlt	r3, r2
 c002ea0:	e1a031c3 	asr	r3, r3, #3
 c002ea4:	e1a03803 	lsl	r3, r3, #16
 c002ea8:	e1a03823 	lsr	r3, r3, #16
 c002eac:	e1a03803 	lsl	r3, r3, #16
 c002eb0:	e1a03843 	asr	r3, r3, #16
 c002eb4:	e2833001 	add	r3, r3, #1
 c002eb8:	e1a03803 	lsl	r3, r3, #16
 c002ebc:	e1a03823 	lsr	r3, r3, #16
 c002ec0:	e1a03183 	lsl	r3, r3, #3
 c002ec4:	e1a03803 	lsl	r3, r3, #16
 c002ec8:	e1a03823 	lsr	r3, r3, #16
 c002ecc:	e14b31b0 	strh	r3, [fp, #-16]
	}
	if( 0 == (usRight%8) )
 c002ed0:	e15b32b2 	ldrh	r3, [fp, #-34]	; 0xffffffde
 c002ed4:	e2033007 	and	r3, r3, #7
 c002ed8:	e1a03803 	lsl	r3, r3, #16
 c002edc:	e1a03823 	lsr	r3, r3, #16
 c002ee0:	e3530000 	cmp	r3, #0
 c002ee4:	1a000002 	bne	c002ef4 <LcdClrRect+0x2b8>
		l= usRight;
 c002ee8:	e15b32b2 	ldrh	r3, [fp, #-34]	; 0xffffffde
 c002eec:	e14b31b2 	strh	r3, [fp, #-18]	; 0xffffffee
 c002ef0:	ea00000c 	b	c002f28 <LcdClrRect+0x2ec>
	else
	{
		l=(usRight/8)*8;
 c002ef4:	e15b32f2 	ldrsh	r3, [fp, #-34]	; 0xffffffde
 c002ef8:	e2832007 	add	r2, r3, #7
 c002efc:	e3530000 	cmp	r3, #0
 c002f00:	b1a03002 	movlt	r3, r2
 c002f04:	e1a031c3 	asr	r3, r3, #3
 c002f08:	e1a03803 	lsl	r3, r3, #16
 c002f0c:	e1a03823 	lsr	r3, r3, #16
 c002f10:	e1a03803 	lsl	r3, r3, #16
 c002f14:	e1a03823 	lsr	r3, r3, #16
 c002f18:	e1a03183 	lsl	r3, r3, #3
 c002f1c:	e1a03803 	lsl	r3, r3, #16
 c002f20:	e1a03823 	lsr	r3, r3, #16
 c002f24:	e14b31b2 	strh	r3, [fp, #-18]	; 0xffffffee
	}

	for( i=usTop; i<=usBottom; i++ )
 c002f28:	e15b32b0 	ldrh	r3, [fp, #-32]	; 0xffffffe0
 c002f2c:	e14b30be 	strh	r3, [fp, #-14]
 c002f30:	ea0000ce 	b	c003270 <LcdClrRect+0x634>
	{
		for( m=usLeft; m<=(k-1); m++ )
 c002f34:	e15b31be 	ldrh	r3, [fp, #-30]	; 0xffffffe2
 c002f38:	e14b31b4 	strh	r3, [fp, #-20]	; 0xffffffec
 c002f3c:	ea00004d 	b	c003078 <LcdClrRect+0x43c>
		{
			(LCD_PutPixel(m, i, ucColor));
 c002f40:	e15b20fe 	ldrsh	r2, [fp, #-14]
 c002f44:	e1a03002 	mov	r3, r2
 c002f48:	e1a03103 	lsl	r3, r3, #2
 c002f4c:	e0833002 	add	r3, r3, r2
 c002f50:	e1a03303 	lsl	r3, r3, #6
 c002f54:	e1a02fa3 	lsr	r2, r3, #31
 c002f58:	e0823003 	add	r3, r2, r3
 c002f5c:	e1a030c3 	asr	r3, r3, #1
 c002f60:	e28326c3 	add	r2, r3, #204472320	; 0xc300000
 c002f64:	e2822c96 	add	r2, r2, #38400	; 0x9600
 c002f68:	e15b31f4 	ldrsh	r3, [fp, #-20]	; 0xffffffec
 c002f6c:	e2831007 	add	r1, r3, #7
 c002f70:	e3530000 	cmp	r3, #0
 c002f74:	b1a03001 	movlt	r3, r1
 c002f78:	e1a031c3 	asr	r3, r3, #3
 c002f7c:	e1a03803 	lsl	r3, r3, #16
 c002f80:	e1a03823 	lsr	r3, r3, #16
 c002f84:	e1a03803 	lsl	r3, r3, #16
 c002f88:	e1a03843 	asr	r3, r3, #16
 c002f8c:	e1a03103 	lsl	r3, r3, #2
 c002f90:	e0823003 	add	r3, r2, r3
 c002f94:	e1a01003 	mov	r1, r3
 c002f98:	e15b20fe 	ldrsh	r2, [fp, #-14]
 c002f9c:	e1a03002 	mov	r3, r2
 c002fa0:	e1a03103 	lsl	r3, r3, #2
 c002fa4:	e0833002 	add	r3, r3, r2
 c002fa8:	e1a03303 	lsl	r3, r3, #6
 c002fac:	e1a02fa3 	lsr	r2, r3, #31
 c002fb0:	e0823003 	add	r3, r2, r3
 c002fb4:	e1a030c3 	asr	r3, r3, #1
 c002fb8:	e28326c3 	add	r2, r3, #204472320	; 0xc300000
 c002fbc:	e2822c96 	add	r2, r2, #38400	; 0x9600
 c002fc0:	e15b31f4 	ldrsh	r3, [fp, #-20]	; 0xffffffec
 c002fc4:	e2830007 	add	r0, r3, #7
 c002fc8:	e3530000 	cmp	r3, #0
 c002fcc:	b1a03000 	movlt	r3, r0
 c002fd0:	e1a031c3 	asr	r3, r3, #3
 c002fd4:	e1a03803 	lsl	r3, r3, #16
 c002fd8:	e1a03823 	lsr	r3, r3, #16
 c002fdc:	e1a03803 	lsl	r3, r3, #16
 c002fe0:	e1a03843 	asr	r3, r3, #16
 c002fe4:	e1a03103 	lsl	r3, r3, #2
 c002fe8:	e0823003 	add	r3, r2, r3
 c002fec:	e5930000 	ldr	r0, [r3]
 c002ff0:	e15b21f4 	ldrsh	r2, [fp, #-20]	; 0xffffffec
 c002ff4:	e1a03fc2 	asr	r3, r2, #31
 c002ff8:	e1a03ea3 	lsr	r3, r3, #29
 c002ffc:	e0822003 	add	r2, r2, r3
 c003000:	e2022007 	and	r2, r2, #7
 c003004:	e0633002 	rsb	r3, r3, r2
 c003008:	e1a03803 	lsl	r3, r3, #16
 c00300c:	e1a03823 	lsr	r3, r3, #16
 c003010:	e1a03803 	lsl	r3, r3, #16
 c003014:	e1a03843 	asr	r3, r3, #16
 c003018:	e1a03103 	lsl	r3, r3, #2
 c00301c:	e3a0220f 	mov	r2, #-268435456	; 0xf0000000
 c003020:	e1a03332 	lsr	r3, r2, r3
 c003024:	e1e03003 	mvn	r3, r3
 c003028:	e0000003 	and	r0, r0, r3
 c00302c:	e5dbc004 	ldrb	ip, [fp, #4]
 c003030:	e15b21f4 	ldrsh	r2, [fp, #-20]	; 0xffffffec
 c003034:	e1a03fc2 	asr	r3, r2, #31
 c003038:	e1a03ea3 	lsr	r3, r3, #29
 c00303c:	e0822003 	add	r2, r2, r3
 c003040:	e2022007 	and	r2, r2, #7
 c003044:	e0633002 	rsb	r3, r3, r2
 c003048:	e1a03803 	lsl	r3, r3, #16
 c00304c:	e1a03823 	lsr	r3, r3, #16
 c003050:	e1a03803 	lsl	r3, r3, #16
 c003054:	e1a03843 	asr	r3, r3, #16
 c003058:	e2633007 	rsb	r3, r3, #7
 c00305c:	e1a03103 	lsl	r3, r3, #2
 c003060:	e1a0331c 	lsl	r3, ip, r3
 c003064:	e1803003 	orr	r3, r0, r3
 c003068:	e5813000 	str	r3, [r1]
		l=(usRight/8)*8;
	}

	for( i=usTop; i<=usBottom; i++ )
	{
		for( m=usLeft; m<=(k-1); m++ )
 c00306c:	e15b31b4 	ldrh	r3, [fp, #-20]	; 0xffffffec
 c003070:	e2833001 	add	r3, r3, #1
 c003074:	e14b31b4 	strh	r3, [fp, #-20]	; 0xffffffec
 c003078:	e15b21f4 	ldrsh	r2, [fp, #-20]	; 0xffffffec
 c00307c:	e15b31f0 	ldrsh	r3, [fp, #-16]
 c003080:	e2433001 	sub	r3, r3, #1
 c003084:	e1520003 	cmp	r2, r3
 c003088:	daffffac 	ble	c002f40 <LcdClrRect+0x304>
		{
			(LCD_PutPixel(m, i, ucColor));
		}
		for( m=k; m<l; m+=8 )
 c00308c:	e15b31b0 	ldrh	r3, [fp, #-16]
 c003090:	e14b31b4 	strh	r3, [fp, #-20]	; 0xffffffec
 c003094:	ea000019 	b	c003100 <LcdClrRect+0x4c4>
		{
			(*(INT32U*)(LCD_VIRTUAL_BUFFER + i * SCR_XSIZE / 2 + m / 2)) = ulColor;
 c003098:	e15b20fe 	ldrsh	r2, [fp, #-14]
 c00309c:	e1a03002 	mov	r3, r2
 c0030a0:	e1a03103 	lsl	r3, r3, #2
 c0030a4:	e0833002 	add	r3, r3, r2
 c0030a8:	e1a03303 	lsl	r3, r3, #6
 c0030ac:	e1a02fa3 	lsr	r2, r3, #31
 c0030b0:	e0823003 	add	r3, r2, r3
 c0030b4:	e1a030c3 	asr	r3, r3, #1
 c0030b8:	e28336c3 	add	r3, r3, #204472320	; 0xc300000
 c0030bc:	e2833c96 	add	r3, r3, #38400	; 0x9600
 c0030c0:	e15b21f4 	ldrsh	r2, [fp, #-20]	; 0xffffffec
 c0030c4:	e1a01fa2 	lsr	r1, r2, #31
 c0030c8:	e0812002 	add	r2, r1, r2
 c0030cc:	e1a020c2 	asr	r2, r2, #1
 c0030d0:	e1a02802 	lsl	r2, r2, #16
 c0030d4:	e1a02822 	lsr	r2, r2, #16
 c0030d8:	e1a02802 	lsl	r2, r2, #16
 c0030dc:	e1a02842 	asr	r2, r2, #16
 c0030e0:	e0833002 	add	r3, r3, r2
 c0030e4:	e51b2018 	ldr	r2, [fp, #-24]	; 0xffffffe8
 c0030e8:	e5832000 	str	r2, [r3]
	{
		for( m=usLeft; m<=(k-1); m++ )
		{
			(LCD_PutPixel(m, i, ucColor));
		}
		for( m=k; m<l; m+=8 )
 c0030ec:	e15b31b4 	ldrh	r3, [fp, #-20]	; 0xffffffec
 c0030f0:	e2833008 	add	r3, r3, #8
 c0030f4:	e1a03803 	lsl	r3, r3, #16
 c0030f8:	e1a03823 	lsr	r3, r3, #16
 c0030fc:	e14b31b4 	strh	r3, [fp, #-20]	; 0xffffffec
 c003100:	e15b21f4 	ldrsh	r2, [fp, #-20]	; 0xffffffec
 c003104:	e15b31f2 	ldrsh	r3, [fp, #-18]	; 0xffffffee
 c003108:	e1520003 	cmp	r2, r3
 c00310c:	baffffe1 	blt	c003098 <LcdClrRect+0x45c>
		{
			(*(INT32U*)(LCD_VIRTUAL_BUFFER + i * SCR_XSIZE / 2 + m / 2)) = ulColor;
		}
		for( m=l; m<=usRight; m++ )
 c003110:	e15b31b2 	ldrh	r3, [fp, #-18]	; 0xffffffee
 c003114:	e14b31b4 	strh	r3, [fp, #-20]	; 0xffffffec
 c003118:	ea00004d 	b	c003254 <LcdClrRect+0x618>
		{
			(LCD_PutPixel(m, i, ucColor));
 c00311c:	e15b20fe 	ldrsh	r2, [fp, #-14]
 c003120:	e1a03002 	mov	r3, r2
 c003124:	e1a03103 	lsl	r3, r3, #2
 c003128:	e0833002 	add	r3, r3, r2
 c00312c:	e1a03303 	lsl	r3, r3, #6
 c003130:	e1a02fa3 	lsr	r2, r3, #31
 c003134:	e0823003 	add	r3, r2, r3
 c003138:	e1a030c3 	asr	r3, r3, #1
 c00313c:	e28326c3 	add	r2, r3, #204472320	; 0xc300000
 c003140:	e2822c96 	add	r2, r2, #38400	; 0x9600
 c003144:	e15b31f4 	ldrsh	r3, [fp, #-20]	; 0xffffffec
 c003148:	e2831007 	add	r1, r3, #7
 c00314c:	e3530000 	cmp	r3, #0
 c003150:	b1a03001 	movlt	r3, r1
 c003154:	e1a031c3 	asr	r3, r3, #3
 c003158:	e1a03803 	lsl	r3, r3, #16
 c00315c:	e1a03823 	lsr	r3, r3, #16
 c003160:	e1a03803 	lsl	r3, r3, #16
 c003164:	e1a03843 	asr	r3, r3, #16
 c003168:	e1a03103 	lsl	r3, r3, #2
 c00316c:	e0823003 	add	r3, r2, r3
 c003170:	e1a01003 	mov	r1, r3
 c003174:	e15b20fe 	ldrsh	r2, [fp, #-14]
 c003178:	e1a03002 	mov	r3, r2
 c00317c:	e1a03103 	lsl	r3, r3, #2
 c003180:	e0833002 	add	r3, r3, r2
 c003184:	e1a03303 	lsl	r3, r3, #6
 c003188:	e1a02fa3 	lsr	r2, r3, #31
 c00318c:	e0823003 	add	r3, r2, r3
 c003190:	e1a030c3 	asr	r3, r3, #1
 c003194:	e28326c3 	add	r2, r3, #204472320	; 0xc300000
 c003198:	e2822c96 	add	r2, r2, #38400	; 0x9600
 c00319c:	e15b31f4 	ldrsh	r3, [fp, #-20]	; 0xffffffec
 c0031a0:	e2830007 	add	r0, r3, #7
 c0031a4:	e3530000 	cmp	r3, #0
 c0031a8:	b1a03000 	movlt	r3, r0
 c0031ac:	e1a031c3 	asr	r3, r3, #3
 c0031b0:	e1a03803 	lsl	r3, r3, #16
 c0031b4:	e1a03823 	lsr	r3, r3, #16
 c0031b8:	e1a03803 	lsl	r3, r3, #16
 c0031bc:	e1a03843 	asr	r3, r3, #16
 c0031c0:	e1a03103 	lsl	r3, r3, #2
 c0031c4:	e0823003 	add	r3, r2, r3
 c0031c8:	e5930000 	ldr	r0, [r3]
 c0031cc:	e15b21f4 	ldrsh	r2, [fp, #-20]	; 0xffffffec
 c0031d0:	e1a03fc2 	asr	r3, r2, #31
 c0031d4:	e1a03ea3 	lsr	r3, r3, #29
 c0031d8:	e0822003 	add	r2, r2, r3
 c0031dc:	e2022007 	and	r2, r2, #7
 c0031e0:	e0633002 	rsb	r3, r3, r2
 c0031e4:	e1a03803 	lsl	r3, r3, #16
 c0031e8:	e1a03823 	lsr	r3, r3, #16
 c0031ec:	e1a03803 	lsl	r3, r3, #16
 c0031f0:	e1a03843 	asr	r3, r3, #16
 c0031f4:	e1a03103 	lsl	r3, r3, #2
 c0031f8:	e3a0220f 	mov	r2, #-268435456	; 0xf0000000
 c0031fc:	e1a03332 	lsr	r3, r2, r3
 c003200:	e1e03003 	mvn	r3, r3
 c003204:	e0000003 	and	r0, r0, r3
 c003208:	e5dbc004 	ldrb	ip, [fp, #4]
 c00320c:	e15b21f4 	ldrsh	r2, [fp, #-20]	; 0xffffffec
 c003210:	e1a03fc2 	asr	r3, r2, #31
 c003214:	e1a03ea3 	lsr	r3, r3, #29
 c003218:	e0822003 	add	r2, r2, r3
 c00321c:	e2022007 	and	r2, r2, #7
 c003220:	e0633002 	rsb	r3, r3, r2
 c003224:	e1a03803 	lsl	r3, r3, #16
 c003228:	e1a03823 	lsr	r3, r3, #16
 c00322c:	e1a03803 	lsl	r3, r3, #16
 c003230:	e1a03843 	asr	r3, r3, #16
 c003234:	e2633007 	rsb	r3, r3, #7
 c003238:	e1a03103 	lsl	r3, r3, #2
 c00323c:	e1a0331c 	lsl	r3, ip, r3
 c003240:	e1803003 	orr	r3, r0, r3
 c003244:	e5813000 	str	r3, [r1]
		}
		for( m=k; m<l; m+=8 )
		{
			(*(INT32U*)(LCD_VIRTUAL_BUFFER + i * SCR_XSIZE / 2 + m / 2)) = ulColor;
		}
		for( m=l; m<=usRight; m++ )
 c003248:	e15b31b4 	ldrh	r3, [fp, #-20]	; 0xffffffec
 c00324c:	e2833001 	add	r3, r3, #1
 c003250:	e14b31b4 	strh	r3, [fp, #-20]	; 0xffffffec
 c003254:	e15b21f4 	ldrsh	r2, [fp, #-20]	; 0xffffffec
 c003258:	e15b32f2 	ldrsh	r3, [fp, #-34]	; 0xffffffde
 c00325c:	e1520003 	cmp	r2, r3
 c003260:	daffffad 	ble	c00311c <LcdClrRect+0x4e0>
	else
	{
		l=(usRight/8)*8;
	}

	for( i=usTop; i<=usBottom; i++ )
 c003264:	e15b30be 	ldrh	r3, [fp, #-14]
 c003268:	e2833001 	add	r3, r3, #1
 c00326c:	e14b30be 	strh	r3, [fp, #-14]
 c003270:	e15b20fe 	ldrsh	r2, [fp, #-14]
 c003274:	e15b32f4 	ldrsh	r3, [fp, #-36]	; 0xffffffdc
 c003278:	e1520003 	cmp	r2, r3
 c00327c:	daffff2c 	ble	c002f34 <LcdClrRect+0x2f8>
		for( m=l; m<=usRight; m++ )
		{
			(LCD_PutPixel(m, i, ucColor));
		}
	}
}
 c003280:	e24bd00c 	sub	sp, fp, #12
 c003284:	e89d6800 	ldm	sp, {fp, sp, lr}
 c003288:	e12fff1e 	bx	lr

0c00328c <Lcd_Draw_Box>:
* ret:		none
* modify:
* comment:		
*********************************************************************************************/
void Lcd_Draw_Box(INT16 usLeft, INT16 usTop, INT16 usRight, INT16 usBottom, INT8U ucColor)
{
 c00328c:	e1a0c00d 	mov	ip, sp
 c003290:	e92dd800 	push	{fp, ip, lr, pc}
 c003294:	e24cb004 	sub	fp, ip, #4
 c003298:	e24dd010 	sub	sp, sp, #16
 c00329c:	e14b00be 	strh	r0, [fp, #-14]
 c0032a0:	e14b11b0 	strh	r1, [fp, #-16]
 c0032a4:	e14b21b2 	strh	r2, [fp, #-18]	; 0xffffffee
 c0032a8:	e14b31b4 	strh	r3, [fp, #-20]	; 0xffffffec
	Lcd_Draw_HLine(usLeft, usRight,  usTop,    ucColor, 1);
 c0032ac:	e15b00fe 	ldrsh	r0, [fp, #-14]
 c0032b0:	e15b11f2 	ldrsh	r1, [fp, #-18]	; 0xffffffee
 c0032b4:	e15b21f0 	ldrsh	r2, [fp, #-16]
 c0032b8:	e5db3004 	ldrb	r3, [fp, #4]
 c0032bc:	e3a0c001 	mov	ip, #1
 c0032c0:	e58dc000 	str	ip, [sp]
 c0032c4:	eb00026d 	bl	c003c80 <Lcd_Draw_HLine>
	Lcd_Draw_HLine(usLeft, usRight,  usBottom, ucColor, 1);
 c0032c8:	e15b00fe 	ldrsh	r0, [fp, #-14]
 c0032cc:	e15b11f2 	ldrsh	r1, [fp, #-18]	; 0xffffffee
 c0032d0:	e15b21f4 	ldrsh	r2, [fp, #-20]	; 0xffffffec
 c0032d4:	e5db3004 	ldrb	r3, [fp, #4]
 c0032d8:	e3a0c001 	mov	ip, #1
 c0032dc:	e58dc000 	str	ip, [sp]
 c0032e0:	eb000266 	bl	c003c80 <Lcd_Draw_HLine>
	Lcd_Draw_VLine(usTop,  usBottom, usLeft,   ucColor, 1);
 c0032e4:	e15b01f0 	ldrsh	r0, [fp, #-16]
 c0032e8:	e15b11f4 	ldrsh	r1, [fp, #-20]	; 0xffffffec
 c0032ec:	e15b20fe 	ldrsh	r2, [fp, #-14]
 c0032f0:	e5db3004 	ldrb	r3, [fp, #4]
 c0032f4:	e3a0c001 	mov	ip, #1
 c0032f8:	e58dc000 	str	ip, [sp]
 c0032fc:	eb0002e1 	bl	c003e88 <Lcd_Draw_VLine>
	Lcd_Draw_VLine(usTop,  usBottom, usRight,  ucColor, 1);
 c003300:	e15b01f0 	ldrsh	r0, [fp, #-16]
 c003304:	e15b11f4 	ldrsh	r1, [fp, #-20]	; 0xffffffec
 c003308:	e15b21f2 	ldrsh	r2, [fp, #-18]	; 0xffffffee
 c00330c:	e5db3004 	ldrb	r3, [fp, #4]
 c003310:	e3a0c001 	mov	ip, #1
 c003314:	e58dc000 	str	ip, [sp]
 c003318:	eb0002da 	bl	c003e88 <Lcd_Draw_VLine>
}
 c00331c:	e24bd00c 	sub	sp, fp, #12
 c003320:	e89d6800 	ldm	sp, {fp, sp, lr}
 c003324:	e12fff1e 	bx	lr

0c003328 <Lcd_Draw_Line>:
* ret:		none
* modify:
* comment:		
*********************************************************************************************/
void Lcd_Draw_Line(INT16 usX0, INT16 usY0, INT16 usX1, INT16 usY1, INT8U ucColor, INT16U usWidth)
{
 c003328:	e1a0c00d 	mov	ip, sp
 c00332c:	e92dd800 	push	{fp, ip, lr, pc}
 c003330:	e24cb004 	sub	fp, ip, #4
 c003334:	e24dd028 	sub	sp, sp, #40	; 0x28
 c003338:	e14b02b6 	strh	r0, [fp, #-38]	; 0xffffffda
 c00333c:	e14b12b8 	strh	r1, [fp, #-40]	; 0xffffffd8
 c003340:	e14b22ba 	strh	r2, [fp, #-42]	; 0xffffffd6
 c003344:	e14b32bc 	strh	r3, [fp, #-44]	; 0xffffffd4
	INT16 y_sign;
	INT16 x_sign;
	INT16 decision;
	INT16 wCurx, wCury, wNextx, wNexty, wpy, wpx;

	if( usY0 == usY1 )
 c003348:	e15b22f8 	ldrsh	r2, [fp, #-40]	; 0xffffffd8
 c00334c:	e15b32fc 	ldrsh	r3, [fp, #-44]	; 0xffffffd4
 c003350:	e1520003 	cmp	r2, r3
 c003354:	1a000007 	bne	c003378 <Lcd_Draw_Line+0x50>
	{
		Lcd_Draw_HLine (usX0, usX1, usY0, ucColor, usWidth);
 c003358:	e15b02f6 	ldrsh	r0, [fp, #-38]	; 0xffffffda
 c00335c:	e15b12fa 	ldrsh	r1, [fp, #-42]	; 0xffffffd6
 c003360:	e15b22f8 	ldrsh	r2, [fp, #-40]	; 0xffffffd8
 c003364:	e5db3004 	ldrb	r3, [fp, #4]
 c003368:	e1dbc0b8 	ldrh	ip, [fp, #8]
 c00336c:	e58dc000 	str	ip, [sp]
 c003370:	eb000242 	bl	c003c80 <Lcd_Draw_HLine>
		return;
 c003374:	ea00023e 	b	c003c74 <Lcd_Draw_Line+0x94c>
	}
	if( usX0 == usX1 )
 c003378:	e15b22f6 	ldrsh	r2, [fp, #-38]	; 0xffffffda
 c00337c:	e15b32fa 	ldrsh	r3, [fp, #-42]	; 0xffffffd6
 c003380:	e1520003 	cmp	r2, r3
 c003384:	1a000007 	bne	c0033a8 <Lcd_Draw_Line+0x80>
	{
		Lcd_Draw_VLine (usY0, usY1, usX0, ucColor, usWidth);
 c003388:	e15b02f8 	ldrsh	r0, [fp, #-40]	; 0xffffffd8
 c00338c:	e15b12fc 	ldrsh	r1, [fp, #-44]	; 0xffffffd4
 c003390:	e15b22f6 	ldrsh	r2, [fp, #-38]	; 0xffffffda
 c003394:	e5db3004 	ldrb	r3, [fp, #4]
 c003398:	e1dbc0b8 	ldrh	ip, [fp, #8]
 c00339c:	e58dc000 	str	ip, [sp]
 c0033a0:	eb0002b8 	bl	c003e88 <Lcd_Draw_VLine>
		return;
 c0033a4:	ea000232 	b	c003c74 <Lcd_Draw_Line+0x94c>
	}
	usDx = abs(usX0 - usX1);
 c0033a8:	e15b22f6 	ldrsh	r2, [fp, #-38]	; 0xffffffda
 c0033ac:	e15b32fa 	ldrsh	r3, [fp, #-42]	; 0xffffffd6
 c0033b0:	e0633002 	rsb	r3, r3, r2
 c0033b4:	e3530000 	cmp	r3, #0
 c0033b8:	b2633000 	rsblt	r3, r3, #0
 c0033bc:	e14b31bc 	strh	r3, [fp, #-28]	; 0xffffffe4
	usDy = abs(usY0 - usY1);
 c0033c0:	e15b22f8 	ldrsh	r2, [fp, #-40]	; 0xffffffd8
 c0033c4:	e15b32fc 	ldrsh	r3, [fp, #-44]	; 0xffffffd4
 c0033c8:	e0633002 	rsb	r3, r3, r2
 c0033cc:	e3530000 	cmp	r3, #0
 c0033d0:	b2633000 	rsblt	r3, r3, #0
 c0033d4:	e14b31be 	strh	r3, [fp, #-30]	; 0xffffffe2
	if( ((usDx >= usDy && (usX0 > usX1)) ||
 c0033d8:	e15b21fc 	ldrsh	r2, [fp, #-28]	; 0xffffffe4
 c0033dc:	e15b31fe 	ldrsh	r3, [fp, #-30]	; 0xffffffe2
 c0033e0:	e1520003 	cmp	r2, r3
 c0033e4:	ba000003 	blt	c0033f8 <Lcd_Draw_Line+0xd0>
 c0033e8:	e15b22f6 	ldrsh	r2, [fp, #-38]	; 0xffffffda
 c0033ec:	e15b32fa 	ldrsh	r3, [fp, #-42]	; 0xffffffd6
 c0033f0:	e1520003 	cmp	r2, r3
 c0033f4:	ca000007 	bgt	c003418 <Lcd_Draw_Line+0xf0>
 c0033f8:	e15b21fe 	ldrsh	r2, [fp, #-30]	; 0xffffffe2
 c0033fc:	e15b31fc 	ldrsh	r3, [fp, #-28]	; 0xffffffe4
 c003400:	e1520003 	cmp	r2, r3
 c003404:	da00001b 	ble	c003478 <Lcd_Draw_Line+0x150>
        ((usDy > usDx) && (usY0 > usY1))) )
 c003408:	e15b22f8 	ldrsh	r2, [fp, #-40]	; 0xffffffd8
 c00340c:	e15b32fc 	ldrsh	r3, [fp, #-44]	; 0xffffffd4
 c003410:	e1520003 	cmp	r2, r3
 c003414:	da000017 	ble	c003478 <Lcd_Draw_Line+0x150>
    {
        GUISWAP(usX1, usX0);
 c003418:	e15b22ba 	ldrh	r2, [fp, #-42]	; 0xffffffd6
 c00341c:	e15b32b6 	ldrh	r3, [fp, #-38]	; 0xffffffda
 c003420:	e0223003 	eor	r3, r2, r3
 c003424:	e14b32ba 	strh	r3, [fp, #-42]	; 0xffffffd6
 c003428:	e15b22b6 	ldrh	r2, [fp, #-38]	; 0xffffffda
 c00342c:	e15b32ba 	ldrh	r3, [fp, #-42]	; 0xffffffd6
 c003430:	e0223003 	eor	r3, r2, r3
 c003434:	e14b32b6 	strh	r3, [fp, #-38]	; 0xffffffda
 c003438:	e15b22ba 	ldrh	r2, [fp, #-42]	; 0xffffffd6
 c00343c:	e15b32b6 	ldrh	r3, [fp, #-38]	; 0xffffffda
 c003440:	e0223003 	eor	r3, r2, r3
 c003444:	e14b32ba 	strh	r3, [fp, #-42]	; 0xffffffd6
        GUISWAP(usY1, usY0);
 c003448:	e15b22bc 	ldrh	r2, [fp, #-44]	; 0xffffffd4
 c00344c:	e15b32b8 	ldrh	r3, [fp, #-40]	; 0xffffffd8
 c003450:	e0223003 	eor	r3, r2, r3
 c003454:	e14b32bc 	strh	r3, [fp, #-44]	; 0xffffffd4
 c003458:	e15b22b8 	ldrh	r2, [fp, #-40]	; 0xffffffd8
 c00345c:	e15b32bc 	ldrh	r3, [fp, #-44]	; 0xffffffd4
 c003460:	e0223003 	eor	r3, r2, r3
 c003464:	e14b32b8 	strh	r3, [fp, #-40]	; 0xffffffd8
 c003468:	e15b22bc 	ldrh	r2, [fp, #-44]	; 0xffffffd4
 c00346c:	e15b32b8 	ldrh	r3, [fp, #-40]	; 0xffffffd8
 c003470:	e0223003 	eor	r3, r2, r3
 c003474:	e14b32bc 	strh	r3, [fp, #-44]	; 0xffffffd4
    }
    y_sign = (usY1 - usY0) / usDy;
 c003478:	e15b22fc 	ldrsh	r2, [fp, #-44]	; 0xffffffd4
 c00347c:	e15b32f8 	ldrsh	r3, [fp, #-40]	; 0xffffffd8
 c003480:	e0632002 	rsb	r2, r3, r2
 c003484:	e15b31fe 	ldrsh	r3, [fp, #-30]	; 0xffffffe2
 c003488:	e1a00002 	mov	r0, r2
 c00348c:	e1a01003 	mov	r1, r3
 c003490:	eb000dfe 	bl	c006c90 <__aeabi_idiv>
 c003494:	e1a03000 	mov	r3, r0
 c003498:	e14b32b0 	strh	r3, [fp, #-32]	; 0xffffffe0
    x_sign = (usX1 - usX0) / usDx;
 c00349c:	e15b22fa 	ldrsh	r2, [fp, #-42]	; 0xffffffd6
 c0034a0:	e15b32f6 	ldrsh	r3, [fp, #-38]	; 0xffffffda
 c0034a4:	e0632002 	rsb	r2, r3, r2
 c0034a8:	e15b31fc 	ldrsh	r3, [fp, #-28]	; 0xffffffe4
 c0034ac:	e1a00002 	mov	r0, r2
 c0034b0:	e1a01003 	mov	r1, r3
 c0034b4:	eb000df5 	bl	c006c90 <__aeabi_idiv>
 c0034b8:	e1a03000 	mov	r3, r0
 c0034bc:	e14b32b2 	strh	r3, [fp, #-34]	; 0xffffffde

    if( usDx >= usDy )
 c0034c0:	e15b21fc 	ldrsh	r2, [fp, #-28]	; 0xffffffe4
 c0034c4:	e15b31fe 	ldrsh	r3, [fp, #-30]	; 0xffffffe2
 c0034c8:	e1520003 	cmp	r2, r3
 c0034cc:	ba0000f4 	blt	c0038a4 <Lcd_Draw_Line+0x57c>
    {
        for( wCurx = usX0, wCury = usY0, wNextx = usX1,
 c0034d0:	e15b32b6 	ldrh	r3, [fp, #-38]	; 0xffffffda
 c0034d4:	e14b31b0 	strh	r3, [fp, #-16]
 c0034d8:	e15b32b8 	ldrh	r3, [fp, #-40]	; 0xffffffd8
 c0034dc:	e14b31b2 	strh	r3, [fp, #-18]	; 0xffffffee
 c0034e0:	e15b32ba 	ldrh	r3, [fp, #-42]	; 0xffffffd6
 c0034e4:	e14b31b4 	strh	r3, [fp, #-20]	; 0xffffffec
             wNexty = usY1, decision = (usDx >> 1);
 c0034e8:	e15b32bc 	ldrh	r3, [fp, #-44]	; 0xffffffd4
 c0034ec:	e14b31b6 	strh	r3, [fp, #-22]	; 0xffffffea
 c0034f0:	e15b31fc 	ldrsh	r3, [fp, #-28]	; 0xffffffe4
 c0034f4:	e1a030c3 	asr	r3, r3, #1
 c0034f8:	e14b30be 	strh	r3, [fp, #-14]
    y_sign = (usY1 - usY0) / usDy;
    x_sign = (usX1 - usX0) / usDx;

    if( usDx >= usDy )
    {
        for( wCurx = usX0, wCury = usY0, wNextx = usX1,
 c0034fc:	ea0000e3 	b	c003890 <Lcd_Draw_Line+0x568>
             wNexty = usY1, decision = (usDx >> 1);
             wCurx <= wNextx; wCurx++, wNextx--, decision += usDy )
        {
            if( decision >= usDx )
 c003500:	e15b20fe 	ldrsh	r2, [fp, #-14]
 c003504:	e15b31fc 	ldrsh	r3, [fp, #-28]	; 0xffffffe4
 c003508:	e1520003 	cmp	r2, r3
 c00350c:	ba000011 	blt	c003558 <Lcd_Draw_Line+0x230>
            {
                decision -= usDx;
 c003510:	e15b20be 	ldrh	r2, [fp, #-14]
 c003514:	e15b31bc 	ldrh	r3, [fp, #-28]	; 0xffffffe4
 c003518:	e0633002 	rsb	r3, r3, r2
 c00351c:	e1a03803 	lsl	r3, r3, #16
 c003520:	e1a03823 	lsr	r3, r3, #16
 c003524:	e14b30be 	strh	r3, [fp, #-14]
                wCury += y_sign;
 c003528:	e15b21b2 	ldrh	r2, [fp, #-18]	; 0xffffffee
 c00352c:	e15b32b0 	ldrh	r3, [fp, #-32]	; 0xffffffe0
 c003530:	e0823003 	add	r3, r2, r3
 c003534:	e1a03803 	lsl	r3, r3, #16
 c003538:	e1a03823 	lsr	r3, r3, #16
 c00353c:	e14b31b2 	strh	r3, [fp, #-18]	; 0xffffffee
                wNexty -= y_sign;
 c003540:	e15b21b6 	ldrh	r2, [fp, #-22]	; 0xffffffea
 c003544:	e15b32b0 	ldrh	r3, [fp, #-32]	; 0xffffffe0
 c003548:	e0633002 	rsb	r3, r3, r2
 c00354c:	e1a03803 	lsl	r3, r3, #16
 c003550:	e1a03823 	lsr	r3, r3, #16
 c003554:	e14b31b6 	strh	r3, [fp, #-22]	; 0xffffffea
            }
            for( wpy = wCury - usWidth / 2;
 c003558:	e15b21b2 	ldrh	r2, [fp, #-18]	; 0xffffffee
 c00355c:	e1db30b8 	ldrh	r3, [fp, #8]
 c003560:	e1a030a3 	lsr	r3, r3, #1
 c003564:	e1a03803 	lsl	r3, r3, #16
 c003568:	e1a03823 	lsr	r3, r3, #16
 c00356c:	e0633002 	rsb	r3, r3, r2
 c003570:	e1a03803 	lsl	r3, r3, #16
 c003574:	e1a03823 	lsr	r3, r3, #16
 c003578:	e14b31b8 	strh	r3, [fp, #-24]	; 0xffffffe8
 c00357c:	ea00004d 	b	c0036b8 <Lcd_Draw_Line+0x390>
                 wpy <= wCury + usWidth / 2; wpy++ )
            {
                (LCD_PutPixel(wCurx, wpy, ucColor));
 c003580:	e15b21f8 	ldrsh	r2, [fp, #-24]	; 0xffffffe8
 c003584:	e1a03002 	mov	r3, r2
 c003588:	e1a03103 	lsl	r3, r3, #2
 c00358c:	e0833002 	add	r3, r3, r2
 c003590:	e1a03303 	lsl	r3, r3, #6
 c003594:	e1a02fa3 	lsr	r2, r3, #31
 c003598:	e0823003 	add	r3, r2, r3
 c00359c:	e1a030c3 	asr	r3, r3, #1
 c0035a0:	e28326c3 	add	r2, r3, #204472320	; 0xc300000
 c0035a4:	e2822c96 	add	r2, r2, #38400	; 0x9600
 c0035a8:	e15b31f0 	ldrsh	r3, [fp, #-16]
 c0035ac:	e2831007 	add	r1, r3, #7
 c0035b0:	e3530000 	cmp	r3, #0
 c0035b4:	b1a03001 	movlt	r3, r1
 c0035b8:	e1a031c3 	asr	r3, r3, #3
 c0035bc:	e1a03803 	lsl	r3, r3, #16
 c0035c0:	e1a03823 	lsr	r3, r3, #16
 c0035c4:	e1a03803 	lsl	r3, r3, #16
 c0035c8:	e1a03843 	asr	r3, r3, #16
 c0035cc:	e1a03103 	lsl	r3, r3, #2
 c0035d0:	e0823003 	add	r3, r2, r3
 c0035d4:	e1a01003 	mov	r1, r3
 c0035d8:	e15b21f8 	ldrsh	r2, [fp, #-24]	; 0xffffffe8
 c0035dc:	e1a03002 	mov	r3, r2
 c0035e0:	e1a03103 	lsl	r3, r3, #2
 c0035e4:	e0833002 	add	r3, r3, r2
 c0035e8:	e1a03303 	lsl	r3, r3, #6
 c0035ec:	e1a02fa3 	lsr	r2, r3, #31
 c0035f0:	e0823003 	add	r3, r2, r3
 c0035f4:	e1a030c3 	asr	r3, r3, #1
 c0035f8:	e28326c3 	add	r2, r3, #204472320	; 0xc300000
 c0035fc:	e2822c96 	add	r2, r2, #38400	; 0x9600
 c003600:	e15b31f0 	ldrsh	r3, [fp, #-16]
 c003604:	e2830007 	add	r0, r3, #7
 c003608:	e3530000 	cmp	r3, #0
 c00360c:	b1a03000 	movlt	r3, r0
 c003610:	e1a031c3 	asr	r3, r3, #3
 c003614:	e1a03803 	lsl	r3, r3, #16
 c003618:	e1a03823 	lsr	r3, r3, #16
 c00361c:	e1a03803 	lsl	r3, r3, #16
 c003620:	e1a03843 	asr	r3, r3, #16
 c003624:	e1a03103 	lsl	r3, r3, #2
 c003628:	e0823003 	add	r3, r2, r3
 c00362c:	e5930000 	ldr	r0, [r3]
 c003630:	e15b21f0 	ldrsh	r2, [fp, #-16]
 c003634:	e1a03fc2 	asr	r3, r2, #31
 c003638:	e1a03ea3 	lsr	r3, r3, #29
 c00363c:	e0822003 	add	r2, r2, r3
 c003640:	e2022007 	and	r2, r2, #7
 c003644:	e0633002 	rsb	r3, r3, r2
 c003648:	e1a03803 	lsl	r3, r3, #16
 c00364c:	e1a03823 	lsr	r3, r3, #16
 c003650:	e1a03803 	lsl	r3, r3, #16
 c003654:	e1a03843 	asr	r3, r3, #16
 c003658:	e1a03103 	lsl	r3, r3, #2
 c00365c:	e3a0220f 	mov	r2, #-268435456	; 0xf0000000
 c003660:	e1a03332 	lsr	r3, r2, r3
 c003664:	e1e03003 	mvn	r3, r3
 c003668:	e0000003 	and	r0, r0, r3
 c00366c:	e5dbc004 	ldrb	ip, [fp, #4]
 c003670:	e15b21f0 	ldrsh	r2, [fp, #-16]
 c003674:	e1a03fc2 	asr	r3, r2, #31
 c003678:	e1a03ea3 	lsr	r3, r3, #29
 c00367c:	e0822003 	add	r2, r2, r3
 c003680:	e2022007 	and	r2, r2, #7
 c003684:	e0633002 	rsb	r3, r3, r2
 c003688:	e1a03803 	lsl	r3, r3, #16
 c00368c:	e1a03823 	lsr	r3, r3, #16
 c003690:	e1a03803 	lsl	r3, r3, #16
 c003694:	e1a03843 	asr	r3, r3, #16
 c003698:	e2633007 	rsb	r3, r3, #7
 c00369c:	e1a03103 	lsl	r3, r3, #2
 c0036a0:	e1a0331c 	lsl	r3, ip, r3
 c0036a4:	e1803003 	orr	r3, r0, r3
 c0036a8:	e5813000 	str	r3, [r1]
                decision -= usDx;
                wCury += y_sign;
                wNexty -= y_sign;
            }
            for( wpy = wCury - usWidth / 2;
                 wpy <= wCury + usWidth / 2; wpy++ )
 c0036ac:	e15b31b8 	ldrh	r3, [fp, #-24]	; 0xffffffe8
 c0036b0:	e2833001 	add	r3, r3, #1
 c0036b4:	e14b31b8 	strh	r3, [fp, #-24]	; 0xffffffe8
 c0036b8:	e15b21f8 	ldrsh	r2, [fp, #-24]	; 0xffffffe8
 c0036bc:	e15b11f2 	ldrsh	r1, [fp, #-18]	; 0xffffffee
 c0036c0:	e1db30b8 	ldrh	r3, [fp, #8]
 c0036c4:	e1a030a3 	lsr	r3, r3, #1
 c0036c8:	e1a03803 	lsl	r3, r3, #16
 c0036cc:	e1a03823 	lsr	r3, r3, #16
 c0036d0:	e0813003 	add	r3, r1, r3
            {
                decision -= usDx;
                wCury += y_sign;
                wNexty -= y_sign;
            }
            for( wpy = wCury - usWidth / 2;
 c0036d4:	e1520003 	cmp	r2, r3
 c0036d8:	daffffa8 	ble	c003580 <Lcd_Draw_Line+0x258>
                 wpy <= wCury + usWidth / 2; wpy++ )
            {
                (LCD_PutPixel(wCurx, wpy, ucColor));
            }

            for( wpy = wNexty - usWidth / 2;
 c0036dc:	e15b21b6 	ldrh	r2, [fp, #-22]	; 0xffffffea
 c0036e0:	e1db30b8 	ldrh	r3, [fp, #8]
 c0036e4:	e1a030a3 	lsr	r3, r3, #1
 c0036e8:	e1a03803 	lsl	r3, r3, #16
 c0036ec:	e1a03823 	lsr	r3, r3, #16
 c0036f0:	e0633002 	rsb	r3, r3, r2
 c0036f4:	e1a03803 	lsl	r3, r3, #16
 c0036f8:	e1a03823 	lsr	r3, r3, #16
 c0036fc:	e14b31b8 	strh	r3, [fp, #-24]	; 0xffffffe8
 c003700:	ea00004d 	b	c00383c <Lcd_Draw_Line+0x514>
                 wpy <= wNexty + usWidth / 2; wpy++ )
            {
                (LCD_PutPixel(wNextx, wpy, ucColor));
 c003704:	e15b21f8 	ldrsh	r2, [fp, #-24]	; 0xffffffe8
 c003708:	e1a03002 	mov	r3, r2
 c00370c:	e1a03103 	lsl	r3, r3, #2
 c003710:	e0833002 	add	r3, r3, r2
 c003714:	e1a03303 	lsl	r3, r3, #6
 c003718:	e1a02fa3 	lsr	r2, r3, #31
 c00371c:	e0823003 	add	r3, r2, r3
 c003720:	e1a030c3 	asr	r3, r3, #1
 c003724:	e28326c3 	add	r2, r3, #204472320	; 0xc300000
 c003728:	e2822c96 	add	r2, r2, #38400	; 0x9600
 c00372c:	e15b31f4 	ldrsh	r3, [fp, #-20]	; 0xffffffec
 c003730:	e2831007 	add	r1, r3, #7
 c003734:	e3530000 	cmp	r3, #0
 c003738:	b1a03001 	movlt	r3, r1
 c00373c:	e1a031c3 	asr	r3, r3, #3
 c003740:	e1a03803 	lsl	r3, r3, #16
 c003744:	e1a03823 	lsr	r3, r3, #16
 c003748:	e1a03803 	lsl	r3, r3, #16
 c00374c:	e1a03843 	asr	r3, r3, #16
 c003750:	e1a03103 	lsl	r3, r3, #2
 c003754:	e0823003 	add	r3, r2, r3
 c003758:	e1a01003 	mov	r1, r3
 c00375c:	e15b21f8 	ldrsh	r2, [fp, #-24]	; 0xffffffe8
 c003760:	e1a03002 	mov	r3, r2
 c003764:	e1a03103 	lsl	r3, r3, #2
 c003768:	e0833002 	add	r3, r3, r2
 c00376c:	e1a03303 	lsl	r3, r3, #6
 c003770:	e1a02fa3 	lsr	r2, r3, #31
 c003774:	e0823003 	add	r3, r2, r3
 c003778:	e1a030c3 	asr	r3, r3, #1
 c00377c:	e28326c3 	add	r2, r3, #204472320	; 0xc300000
 c003780:	e2822c96 	add	r2, r2, #38400	; 0x9600
 c003784:	e15b31f4 	ldrsh	r3, [fp, #-20]	; 0xffffffec
 c003788:	e2830007 	add	r0, r3, #7
 c00378c:	e3530000 	cmp	r3, #0
 c003790:	b1a03000 	movlt	r3, r0
 c003794:	e1a031c3 	asr	r3, r3, #3
 c003798:	e1a03803 	lsl	r3, r3, #16
 c00379c:	e1a03823 	lsr	r3, r3, #16
 c0037a0:	e1a03803 	lsl	r3, r3, #16
 c0037a4:	e1a03843 	asr	r3, r3, #16
 c0037a8:	e1a03103 	lsl	r3, r3, #2
 c0037ac:	e0823003 	add	r3, r2, r3
 c0037b0:	e5930000 	ldr	r0, [r3]
 c0037b4:	e15b21f4 	ldrsh	r2, [fp, #-20]	; 0xffffffec
 c0037b8:	e1a03fc2 	asr	r3, r2, #31
 c0037bc:	e1a03ea3 	lsr	r3, r3, #29
 c0037c0:	e0822003 	add	r2, r2, r3
 c0037c4:	e2022007 	and	r2, r2, #7
 c0037c8:	e0633002 	rsb	r3, r3, r2
 c0037cc:	e1a03803 	lsl	r3, r3, #16
 c0037d0:	e1a03823 	lsr	r3, r3, #16
 c0037d4:	e1a03803 	lsl	r3, r3, #16
 c0037d8:	e1a03843 	asr	r3, r3, #16
 c0037dc:	e1a03103 	lsl	r3, r3, #2
 c0037e0:	e3a0220f 	mov	r2, #-268435456	; 0xf0000000
 c0037e4:	e1a03332 	lsr	r3, r2, r3
 c0037e8:	e1e03003 	mvn	r3, r3
 c0037ec:	e0000003 	and	r0, r0, r3
 c0037f0:	e5dbc004 	ldrb	ip, [fp, #4]
 c0037f4:	e15b21f4 	ldrsh	r2, [fp, #-20]	; 0xffffffec
 c0037f8:	e1a03fc2 	asr	r3, r2, #31
 c0037fc:	e1a03ea3 	lsr	r3, r3, #29
 c003800:	e0822003 	add	r2, r2, r3
 c003804:	e2022007 	and	r2, r2, #7
 c003808:	e0633002 	rsb	r3, r3, r2
 c00380c:	e1a03803 	lsl	r3, r3, #16
 c003810:	e1a03823 	lsr	r3, r3, #16
 c003814:	e1a03803 	lsl	r3, r3, #16
 c003818:	e1a03843 	asr	r3, r3, #16
 c00381c:	e2633007 	rsb	r3, r3, #7
 c003820:	e1a03103 	lsl	r3, r3, #2
 c003824:	e1a0331c 	lsl	r3, ip, r3
 c003828:	e1803003 	orr	r3, r0, r3
 c00382c:	e5813000 	str	r3, [r1]
            {
                (LCD_PutPixel(wCurx, wpy, ucColor));
            }

            for( wpy = wNexty - usWidth / 2;
                 wpy <= wNexty + usWidth / 2; wpy++ )
 c003830:	e15b31b8 	ldrh	r3, [fp, #-24]	; 0xffffffe8
 c003834:	e2833001 	add	r3, r3, #1
 c003838:	e14b31b8 	strh	r3, [fp, #-24]	; 0xffffffe8
 c00383c:	e15b21f8 	ldrsh	r2, [fp, #-24]	; 0xffffffe8
 c003840:	e15b11f6 	ldrsh	r1, [fp, #-22]	; 0xffffffea
 c003844:	e1db30b8 	ldrh	r3, [fp, #8]
 c003848:	e1a030a3 	lsr	r3, r3, #1
 c00384c:	e1a03803 	lsl	r3, r3, #16
 c003850:	e1a03823 	lsr	r3, r3, #16
 c003854:	e0813003 	add	r3, r1, r3
                 wpy <= wCury + usWidth / 2; wpy++ )
            {
                (LCD_PutPixel(wCurx, wpy, ucColor));
            }

            for( wpy = wNexty - usWidth / 2;
 c003858:	e1520003 	cmp	r2, r3
 c00385c:	daffffa8 	ble	c003704 <Lcd_Draw_Line+0x3dc>

    if( usDx >= usDy )
    {
        for( wCurx = usX0, wCury = usY0, wNextx = usX1,
             wNexty = usY1, decision = (usDx >> 1);
             wCurx <= wNextx; wCurx++, wNextx--, decision += usDy )
 c003860:	e15b31b0 	ldrh	r3, [fp, #-16]
 c003864:	e2833001 	add	r3, r3, #1
 c003868:	e14b31b0 	strh	r3, [fp, #-16]
 c00386c:	e15b31b4 	ldrh	r3, [fp, #-20]	; 0xffffffec
 c003870:	e2433001 	sub	r3, r3, #1
 c003874:	e14b31b4 	strh	r3, [fp, #-20]	; 0xffffffec
 c003878:	e15b20be 	ldrh	r2, [fp, #-14]
 c00387c:	e15b31be 	ldrh	r3, [fp, #-30]	; 0xffffffe2
 c003880:	e0823003 	add	r3, r2, r3
 c003884:	e1a03803 	lsl	r3, r3, #16
 c003888:	e1a03823 	lsr	r3, r3, #16
 c00388c:	e14b30be 	strh	r3, [fp, #-14]
    y_sign = (usY1 - usY0) / usDy;
    x_sign = (usX1 - usX0) / usDx;

    if( usDx >= usDy )
    {
        for( wCurx = usX0, wCury = usY0, wNextx = usX1,
 c003890:	e15b21f0 	ldrsh	r2, [fp, #-16]
 c003894:	e15b31f4 	ldrsh	r3, [fp, #-20]	; 0xffffffec
 c003898:	e1520003 	cmp	r2, r3
 c00389c:	daffff17 	ble	c003500 <Lcd_Draw_Line+0x1d8>
 c0038a0:	ea0000f3 	b	c003c74 <Lcd_Draw_Line+0x94c>
            }
        }
    }
    else
    {
        for( wCurx = usX0, wCury = usY0, wNextx = usX1,
 c0038a4:	e15b32b6 	ldrh	r3, [fp, #-38]	; 0xffffffda
 c0038a8:	e14b31b0 	strh	r3, [fp, #-16]
 c0038ac:	e15b32b8 	ldrh	r3, [fp, #-40]	; 0xffffffd8
 c0038b0:	e14b31b2 	strh	r3, [fp, #-18]	; 0xffffffee
 c0038b4:	e15b32ba 	ldrh	r3, [fp, #-42]	; 0xffffffd6
 c0038b8:	e14b31b4 	strh	r3, [fp, #-20]	; 0xffffffec
             wNexty = usY1, decision = (usDy >> 1);
 c0038bc:	e15b32bc 	ldrh	r3, [fp, #-44]	; 0xffffffd4
 c0038c0:	e14b31b6 	strh	r3, [fp, #-22]	; 0xffffffea
 c0038c4:	e15b31fe 	ldrsh	r3, [fp, #-30]	; 0xffffffe2
 c0038c8:	e1a030c3 	asr	r3, r3, #1
 c0038cc:	e14b30be 	strh	r3, [fp, #-14]
            }
        }
    }
    else
    {
        for( wCurx = usX0, wCury = usY0, wNextx = usX1,
 c0038d0:	ea0000e3 	b	c003c64 <Lcd_Draw_Line+0x93c>
             wNexty = usY1, decision = (usDy >> 1);
             wCury <= wNexty; wCury++, wNexty--, decision += usDx )
        {
            if( decision >= usDy )
 c0038d4:	e15b20fe 	ldrsh	r2, [fp, #-14]
 c0038d8:	e15b31fe 	ldrsh	r3, [fp, #-30]	; 0xffffffe2
 c0038dc:	e1520003 	cmp	r2, r3
 c0038e0:	ba000011 	blt	c00392c <Lcd_Draw_Line+0x604>
            {
                decision -= usDy;
 c0038e4:	e15b20be 	ldrh	r2, [fp, #-14]
 c0038e8:	e15b31be 	ldrh	r3, [fp, #-30]	; 0xffffffe2
 c0038ec:	e0633002 	rsb	r3, r3, r2
 c0038f0:	e1a03803 	lsl	r3, r3, #16
 c0038f4:	e1a03823 	lsr	r3, r3, #16
 c0038f8:	e14b30be 	strh	r3, [fp, #-14]
                wCurx += x_sign;
 c0038fc:	e15b21b0 	ldrh	r2, [fp, #-16]
 c003900:	e15b32b2 	ldrh	r3, [fp, #-34]	; 0xffffffde
 c003904:	e0823003 	add	r3, r2, r3
 c003908:	e1a03803 	lsl	r3, r3, #16
 c00390c:	e1a03823 	lsr	r3, r3, #16
 c003910:	e14b31b0 	strh	r3, [fp, #-16]
                wNextx -= x_sign;
 c003914:	e15b21b4 	ldrh	r2, [fp, #-20]	; 0xffffffec
 c003918:	e15b32b2 	ldrh	r3, [fp, #-34]	; 0xffffffde
 c00391c:	e0633002 	rsb	r3, r3, r2
 c003920:	e1a03803 	lsl	r3, r3, #16
 c003924:	e1a03823 	lsr	r3, r3, #16
 c003928:	e14b31b4 	strh	r3, [fp, #-20]	; 0xffffffec
            }
            for( wpx = wCurx - usWidth / 2;
 c00392c:	e15b21b0 	ldrh	r2, [fp, #-16]
 c003930:	e1db30b8 	ldrh	r3, [fp, #8]
 c003934:	e1a030a3 	lsr	r3, r3, #1
 c003938:	e1a03803 	lsl	r3, r3, #16
 c00393c:	e1a03823 	lsr	r3, r3, #16
 c003940:	e0633002 	rsb	r3, r3, r2
 c003944:	e1a03803 	lsl	r3, r3, #16
 c003948:	e1a03823 	lsr	r3, r3, #16
 c00394c:	e14b31ba 	strh	r3, [fp, #-26]	; 0xffffffe6
 c003950:	ea00004d 	b	c003a8c <Lcd_Draw_Line+0x764>
                 wpx <= wCurx + usWidth / 2; wpx++ )
            {
                (LCD_PutPixel(wpx, wCury, ucColor));
 c003954:	e15b21f2 	ldrsh	r2, [fp, #-18]	; 0xffffffee
 c003958:	e1a03002 	mov	r3, r2
 c00395c:	e1a03103 	lsl	r3, r3, #2
 c003960:	e0833002 	add	r3, r3, r2
 c003964:	e1a03303 	lsl	r3, r3, #6
 c003968:	e1a02fa3 	lsr	r2, r3, #31
 c00396c:	e0823003 	add	r3, r2, r3
 c003970:	e1a030c3 	asr	r3, r3, #1
 c003974:	e28326c3 	add	r2, r3, #204472320	; 0xc300000
 c003978:	e2822c96 	add	r2, r2, #38400	; 0x9600
 c00397c:	e15b31fa 	ldrsh	r3, [fp, #-26]	; 0xffffffe6
 c003980:	e2831007 	add	r1, r3, #7
 c003984:	e3530000 	cmp	r3, #0
 c003988:	b1a03001 	movlt	r3, r1
 c00398c:	e1a031c3 	asr	r3, r3, #3
 c003990:	e1a03803 	lsl	r3, r3, #16
 c003994:	e1a03823 	lsr	r3, r3, #16
 c003998:	e1a03803 	lsl	r3, r3, #16
 c00399c:	e1a03843 	asr	r3, r3, #16
 c0039a0:	e1a03103 	lsl	r3, r3, #2
 c0039a4:	e0823003 	add	r3, r2, r3
 c0039a8:	e1a01003 	mov	r1, r3
 c0039ac:	e15b21f2 	ldrsh	r2, [fp, #-18]	; 0xffffffee
 c0039b0:	e1a03002 	mov	r3, r2
 c0039b4:	e1a03103 	lsl	r3, r3, #2
 c0039b8:	e0833002 	add	r3, r3, r2
 c0039bc:	e1a03303 	lsl	r3, r3, #6
 c0039c0:	e1a02fa3 	lsr	r2, r3, #31
 c0039c4:	e0823003 	add	r3, r2, r3
 c0039c8:	e1a030c3 	asr	r3, r3, #1
 c0039cc:	e28326c3 	add	r2, r3, #204472320	; 0xc300000
 c0039d0:	e2822c96 	add	r2, r2, #38400	; 0x9600
 c0039d4:	e15b31fa 	ldrsh	r3, [fp, #-26]	; 0xffffffe6
 c0039d8:	e2830007 	add	r0, r3, #7
 c0039dc:	e3530000 	cmp	r3, #0
 c0039e0:	b1a03000 	movlt	r3, r0
 c0039e4:	e1a031c3 	asr	r3, r3, #3
 c0039e8:	e1a03803 	lsl	r3, r3, #16
 c0039ec:	e1a03823 	lsr	r3, r3, #16
 c0039f0:	e1a03803 	lsl	r3, r3, #16
 c0039f4:	e1a03843 	asr	r3, r3, #16
 c0039f8:	e1a03103 	lsl	r3, r3, #2
 c0039fc:	e0823003 	add	r3, r2, r3
 c003a00:	e5930000 	ldr	r0, [r3]
 c003a04:	e15b21fa 	ldrsh	r2, [fp, #-26]	; 0xffffffe6
 c003a08:	e1a03fc2 	asr	r3, r2, #31
 c003a0c:	e1a03ea3 	lsr	r3, r3, #29
 c003a10:	e0822003 	add	r2, r2, r3
 c003a14:	e2022007 	and	r2, r2, #7
 c003a18:	e0633002 	rsb	r3, r3, r2
 c003a1c:	e1a03803 	lsl	r3, r3, #16
 c003a20:	e1a03823 	lsr	r3, r3, #16
 c003a24:	e1a03803 	lsl	r3, r3, #16
 c003a28:	e1a03843 	asr	r3, r3, #16
 c003a2c:	e1a03103 	lsl	r3, r3, #2
 c003a30:	e3a0220f 	mov	r2, #-268435456	; 0xf0000000
 c003a34:	e1a03332 	lsr	r3, r2, r3
 c003a38:	e1e03003 	mvn	r3, r3
 c003a3c:	e0000003 	and	r0, r0, r3
 c003a40:	e5dbc004 	ldrb	ip, [fp, #4]
 c003a44:	e15b21fa 	ldrsh	r2, [fp, #-26]	; 0xffffffe6
 c003a48:	e1a03fc2 	asr	r3, r2, #31
 c003a4c:	e1a03ea3 	lsr	r3, r3, #29
 c003a50:	e0822003 	add	r2, r2, r3
 c003a54:	e2022007 	and	r2, r2, #7
 c003a58:	e0633002 	rsb	r3, r3, r2
 c003a5c:	e1a03803 	lsl	r3, r3, #16
 c003a60:	e1a03823 	lsr	r3, r3, #16
 c003a64:	e1a03803 	lsl	r3, r3, #16
 c003a68:	e1a03843 	asr	r3, r3, #16
 c003a6c:	e2633007 	rsb	r3, r3, #7
 c003a70:	e1a03103 	lsl	r3, r3, #2
 c003a74:	e1a0331c 	lsl	r3, ip, r3
 c003a78:	e1803003 	orr	r3, r0, r3
 c003a7c:	e5813000 	str	r3, [r1]
                decision -= usDy;
                wCurx += x_sign;
                wNextx -= x_sign;
            }
            for( wpx = wCurx - usWidth / 2;
                 wpx <= wCurx + usWidth / 2; wpx++ )
 c003a80:	e15b31ba 	ldrh	r3, [fp, #-26]	; 0xffffffe6
 c003a84:	e2833001 	add	r3, r3, #1
 c003a88:	e14b31ba 	strh	r3, [fp, #-26]	; 0xffffffe6
 c003a8c:	e15b21fa 	ldrsh	r2, [fp, #-26]	; 0xffffffe6
 c003a90:	e15b11f0 	ldrsh	r1, [fp, #-16]
 c003a94:	e1db30b8 	ldrh	r3, [fp, #8]
 c003a98:	e1a030a3 	lsr	r3, r3, #1
 c003a9c:	e1a03803 	lsl	r3, r3, #16
 c003aa0:	e1a03823 	lsr	r3, r3, #16
 c003aa4:	e0813003 	add	r3, r1, r3
            {
                decision -= usDy;
                wCurx += x_sign;
                wNextx -= x_sign;
            }
            for( wpx = wCurx - usWidth / 2;
 c003aa8:	e1520003 	cmp	r2, r3
 c003aac:	daffffa8 	ble	c003954 <Lcd_Draw_Line+0x62c>
                 wpx <= wCurx + usWidth / 2; wpx++ )
            {
                (LCD_PutPixel(wpx, wCury, ucColor));
            }

            for( wpx = wNextx - usWidth / 2;
 c003ab0:	e15b21b4 	ldrh	r2, [fp, #-20]	; 0xffffffec
 c003ab4:	e1db30b8 	ldrh	r3, [fp, #8]
 c003ab8:	e1a030a3 	lsr	r3, r3, #1
 c003abc:	e1a03803 	lsl	r3, r3, #16
 c003ac0:	e1a03823 	lsr	r3, r3, #16
 c003ac4:	e0633002 	rsb	r3, r3, r2
 c003ac8:	e1a03803 	lsl	r3, r3, #16
 c003acc:	e1a03823 	lsr	r3, r3, #16
 c003ad0:	e14b31ba 	strh	r3, [fp, #-26]	; 0xffffffe6
 c003ad4:	ea00004d 	b	c003c10 <Lcd_Draw_Line+0x8e8>
                 wpx <= wNextx + usWidth / 2; wpx++ )
            {
                (LCD_PutPixel(wpx, wNexty, ucColor));
 c003ad8:	e15b21f6 	ldrsh	r2, [fp, #-22]	; 0xffffffea
 c003adc:	e1a03002 	mov	r3, r2
 c003ae0:	e1a03103 	lsl	r3, r3, #2
 c003ae4:	e0833002 	add	r3, r3, r2
 c003ae8:	e1a03303 	lsl	r3, r3, #6
 c003aec:	e1a02fa3 	lsr	r2, r3, #31
 c003af0:	e0823003 	add	r3, r2, r3
 c003af4:	e1a030c3 	asr	r3, r3, #1
 c003af8:	e28326c3 	add	r2, r3, #204472320	; 0xc300000
 c003afc:	e2822c96 	add	r2, r2, #38400	; 0x9600
 c003b00:	e15b31fa 	ldrsh	r3, [fp, #-26]	; 0xffffffe6
 c003b04:	e2831007 	add	r1, r3, #7
 c003b08:	e3530000 	cmp	r3, #0
 c003b0c:	b1a03001 	movlt	r3, r1
 c003b10:	e1a031c3 	asr	r3, r3, #3
 c003b14:	e1a03803 	lsl	r3, r3, #16
 c003b18:	e1a03823 	lsr	r3, r3, #16
 c003b1c:	e1a03803 	lsl	r3, r3, #16
 c003b20:	e1a03843 	asr	r3, r3, #16
 c003b24:	e1a03103 	lsl	r3, r3, #2
 c003b28:	e0823003 	add	r3, r2, r3
 c003b2c:	e1a01003 	mov	r1, r3
 c003b30:	e15b21f6 	ldrsh	r2, [fp, #-22]	; 0xffffffea
 c003b34:	e1a03002 	mov	r3, r2
 c003b38:	e1a03103 	lsl	r3, r3, #2
 c003b3c:	e0833002 	add	r3, r3, r2
 c003b40:	e1a03303 	lsl	r3, r3, #6
 c003b44:	e1a02fa3 	lsr	r2, r3, #31
 c003b48:	e0823003 	add	r3, r2, r3
 c003b4c:	e1a030c3 	asr	r3, r3, #1
 c003b50:	e28326c3 	add	r2, r3, #204472320	; 0xc300000
 c003b54:	e2822c96 	add	r2, r2, #38400	; 0x9600
 c003b58:	e15b31fa 	ldrsh	r3, [fp, #-26]	; 0xffffffe6
 c003b5c:	e2830007 	add	r0, r3, #7
 c003b60:	e3530000 	cmp	r3, #0
 c003b64:	b1a03000 	movlt	r3, r0
 c003b68:	e1a031c3 	asr	r3, r3, #3
 c003b6c:	e1a03803 	lsl	r3, r3, #16
 c003b70:	e1a03823 	lsr	r3, r3, #16
 c003b74:	e1a03803 	lsl	r3, r3, #16
 c003b78:	e1a03843 	asr	r3, r3, #16
 c003b7c:	e1a03103 	lsl	r3, r3, #2
 c003b80:	e0823003 	add	r3, r2, r3
 c003b84:	e5930000 	ldr	r0, [r3]
 c003b88:	e15b21fa 	ldrsh	r2, [fp, #-26]	; 0xffffffe6
 c003b8c:	e1a03fc2 	asr	r3, r2, #31
 c003b90:	e1a03ea3 	lsr	r3, r3, #29
 c003b94:	e0822003 	add	r2, r2, r3
 c003b98:	e2022007 	and	r2, r2, #7
 c003b9c:	e0633002 	rsb	r3, r3, r2
 c003ba0:	e1a03803 	lsl	r3, r3, #16
 c003ba4:	e1a03823 	lsr	r3, r3, #16
 c003ba8:	e1a03803 	lsl	r3, r3, #16
 c003bac:	e1a03843 	asr	r3, r3, #16
 c003bb0:	e1a03103 	lsl	r3, r3, #2
 c003bb4:	e3a0220f 	mov	r2, #-268435456	; 0xf0000000
 c003bb8:	e1a03332 	lsr	r3, r2, r3
 c003bbc:	e1e03003 	mvn	r3, r3
 c003bc0:	e0000003 	and	r0, r0, r3
 c003bc4:	e5dbc004 	ldrb	ip, [fp, #4]
 c003bc8:	e15b21fa 	ldrsh	r2, [fp, #-26]	; 0xffffffe6
 c003bcc:	e1a03fc2 	asr	r3, r2, #31
 c003bd0:	e1a03ea3 	lsr	r3, r3, #29
 c003bd4:	e0822003 	add	r2, r2, r3
 c003bd8:	e2022007 	and	r2, r2, #7
 c003bdc:	e0633002 	rsb	r3, r3, r2
 c003be0:	e1a03803 	lsl	r3, r3, #16
 c003be4:	e1a03823 	lsr	r3, r3, #16
 c003be8:	e1a03803 	lsl	r3, r3, #16
 c003bec:	e1a03843 	asr	r3, r3, #16
 c003bf0:	e2633007 	rsb	r3, r3, #7
 c003bf4:	e1a03103 	lsl	r3, r3, #2
 c003bf8:	e1a0331c 	lsl	r3, ip, r3
 c003bfc:	e1803003 	orr	r3, r0, r3
 c003c00:	e5813000 	str	r3, [r1]
            {
                (LCD_PutPixel(wpx, wCury, ucColor));
            }

            for( wpx = wNextx - usWidth / 2;
                 wpx <= wNextx + usWidth / 2; wpx++ )
 c003c04:	e15b31ba 	ldrh	r3, [fp, #-26]	; 0xffffffe6
 c003c08:	e2833001 	add	r3, r3, #1
 c003c0c:	e14b31ba 	strh	r3, [fp, #-26]	; 0xffffffe6
 c003c10:	e15b21fa 	ldrsh	r2, [fp, #-26]	; 0xffffffe6
 c003c14:	e15b11f4 	ldrsh	r1, [fp, #-20]	; 0xffffffec
 c003c18:	e1db30b8 	ldrh	r3, [fp, #8]
 c003c1c:	e1a030a3 	lsr	r3, r3, #1
 c003c20:	e1a03803 	lsl	r3, r3, #16
 c003c24:	e1a03823 	lsr	r3, r3, #16
 c003c28:	e0813003 	add	r3, r1, r3
                 wpx <= wCurx + usWidth / 2; wpx++ )
            {
                (LCD_PutPixel(wpx, wCury, ucColor));
            }

            for( wpx = wNextx - usWidth / 2;
 c003c2c:	e1520003 	cmp	r2, r3
 c003c30:	daffffa8 	ble	c003ad8 <Lcd_Draw_Line+0x7b0>
    }
    else
    {
        for( wCurx = usX0, wCury = usY0, wNextx = usX1,
             wNexty = usY1, decision = (usDy >> 1);
             wCury <= wNexty; wCury++, wNexty--, decision += usDx )
 c003c34:	e15b31b2 	ldrh	r3, [fp, #-18]	; 0xffffffee
 c003c38:	e2833001 	add	r3, r3, #1
 c003c3c:	e14b31b2 	strh	r3, [fp, #-18]	; 0xffffffee
 c003c40:	e15b31b6 	ldrh	r3, [fp, #-22]	; 0xffffffea
 c003c44:	e2433001 	sub	r3, r3, #1
 c003c48:	e14b31b6 	strh	r3, [fp, #-22]	; 0xffffffea
 c003c4c:	e15b20be 	ldrh	r2, [fp, #-14]
 c003c50:	e15b31bc 	ldrh	r3, [fp, #-28]	; 0xffffffe4
 c003c54:	e0823003 	add	r3, r2, r3
 c003c58:	e1a03803 	lsl	r3, r3, #16
 c003c5c:	e1a03823 	lsr	r3, r3, #16
 c003c60:	e14b30be 	strh	r3, [fp, #-14]
            }
        }
    }
    else
    {
        for( wCurx = usX0, wCury = usY0, wNextx = usX1,
 c003c64:	e15b21f2 	ldrsh	r2, [fp, #-18]	; 0xffffffee
 c003c68:	e15b31f6 	ldrsh	r3, [fp, #-22]	; 0xffffffea
 c003c6c:	e1520003 	cmp	r2, r3
 c003c70:	daffff17 	ble	c0038d4 <Lcd_Draw_Line+0x5ac>
            {
                (LCD_PutPixel(wpx, wNexty, ucColor));
            }
        }
    }
}
 c003c74:	e24bd00c 	sub	sp, fp, #12
 c003c78:	e89d6800 	ldm	sp, {fp, sp, lr}
 c003c7c:	e12fff1e 	bx	lr

0c003c80 <Lcd_Draw_HLine>:
* ret:		none
* modify:
* comment:		
*********************************************************************************************/
void Lcd_Draw_HLine(INT16 usX0, INT16 usX1, INT16 usY0, INT8U ucColor, INT16U usWidth)
{
 c003c80:	e1a0c00d 	mov	ip, sp
 c003c84:	e92dd800 	push	{fp, ip, lr, pc}
 c003c88:	e24cb004 	sub	fp, ip, #4
 c003c8c:	e24dd010 	sub	sp, sp, #16
 c003c90:	e14b01b6 	strh	r0, [fp, #-22]	; 0xffffffea
 c003c94:	e14b11b8 	strh	r1, [fp, #-24]	; 0xffffffe8
 c003c98:	e14b21ba 	strh	r2, [fp, #-26]	; 0xffffffe6
 c003c9c:	e54b301b 	strb	r3, [fp, #-27]	; 0xffffffe5
	INT16 usLen;

    if( usX1 < usX0 )
 c003ca0:	e15b21f8 	ldrsh	r2, [fp, #-24]	; 0xffffffe8
 c003ca4:	e15b31f6 	ldrsh	r3, [fp, #-22]	; 0xffffffea
 c003ca8:	e1520003 	cmp	r2, r3
 c003cac:	aa000067 	bge	c003e50 <Lcd_Draw_HLine+0x1d0>
    {
        GUISWAP (usX1, usX0);
 c003cb0:	e15b21b8 	ldrh	r2, [fp, #-24]	; 0xffffffe8
 c003cb4:	e15b31b6 	ldrh	r3, [fp, #-22]	; 0xffffffea
 c003cb8:	e0223003 	eor	r3, r2, r3
 c003cbc:	e14b31b8 	strh	r3, [fp, #-24]	; 0xffffffe8
 c003cc0:	e15b21b6 	ldrh	r2, [fp, #-22]	; 0xffffffea
 c003cc4:	e15b31b8 	ldrh	r3, [fp, #-24]	; 0xffffffe8
 c003cc8:	e0223003 	eor	r3, r2, r3
 c003ccc:	e14b31b6 	strh	r3, [fp, #-22]	; 0xffffffea
 c003cd0:	e15b21b8 	ldrh	r2, [fp, #-24]	; 0xffffffe8
 c003cd4:	e15b31b6 	ldrh	r3, [fp, #-22]	; 0xffffffea
 c003cd8:	e0223003 	eor	r3, r2, r3
 c003cdc:	e14b31b8 	strh	r3, [fp, #-24]	; 0xffffffe8
    }

    while( (usWidth--) > 0 )
 c003ce0:	ea00005b 	b	c003e54 <Lcd_Draw_HLine+0x1d4>
    {
        usLen = usX1 - usX0 + 1;
 c003ce4:	e15b21b8 	ldrh	r2, [fp, #-24]	; 0xffffffe8
 c003ce8:	e15b31b6 	ldrh	r3, [fp, #-22]	; 0xffffffea
 c003cec:	e0633002 	rsb	r3, r3, r2
 c003cf0:	e1a03803 	lsl	r3, r3, #16
 c003cf4:	e1a03823 	lsr	r3, r3, #16
 c003cf8:	e2833001 	add	r3, r3, #1
 c003cfc:	e1a03803 	lsl	r3, r3, #16
 c003d00:	e1a03823 	lsr	r3, r3, #16
 c003d04:	e14b30be 	strh	r3, [fp, #-14]
        while( (usLen--) > 0 )
 c003d08:	ea000042 	b	c003e18 <Lcd_Draw_HLine+0x198>
        {
        	(LCD_PutPixel(usX0 + usLen, usY0, ucColor));
 c003d0c:	e15b21fa 	ldrsh	r2, [fp, #-26]	; 0xffffffe6
 c003d10:	e1a03002 	mov	r3, r2
 c003d14:	e1a03103 	lsl	r3, r3, #2
 c003d18:	e0833002 	add	r3, r3, r2
 c003d1c:	e1a03303 	lsl	r3, r3, #6
 c003d20:	e1a02fa3 	lsr	r2, r3, #31
 c003d24:	e0823003 	add	r3, r2, r3
 c003d28:	e1a030c3 	asr	r3, r3, #1
 c003d2c:	e28326c3 	add	r2, r3, #204472320	; 0xc300000
 c003d30:	e2822c96 	add	r2, r2, #38400	; 0x9600
 c003d34:	e15b11f6 	ldrsh	r1, [fp, #-22]	; 0xffffffea
 c003d38:	e15b30fe 	ldrsh	r3, [fp, #-14]
 c003d3c:	e0813003 	add	r3, r1, r3
 c003d40:	e2831007 	add	r1, r3, #7
 c003d44:	e3530000 	cmp	r3, #0
 c003d48:	b1a03001 	movlt	r3, r1
 c003d4c:	e1a031c3 	asr	r3, r3, #3
 c003d50:	e1a03103 	lsl	r3, r3, #2
 c003d54:	e0823003 	add	r3, r2, r3
 c003d58:	e1a01003 	mov	r1, r3
 c003d5c:	e15b21fa 	ldrsh	r2, [fp, #-26]	; 0xffffffe6
 c003d60:	e1a03002 	mov	r3, r2
 c003d64:	e1a03103 	lsl	r3, r3, #2
 c003d68:	e0833002 	add	r3, r3, r2
 c003d6c:	e1a03303 	lsl	r3, r3, #6
 c003d70:	e1a02fa3 	lsr	r2, r3, #31
 c003d74:	e0823003 	add	r3, r2, r3
 c003d78:	e1a030c3 	asr	r3, r3, #1
 c003d7c:	e28326c3 	add	r2, r3, #204472320	; 0xc300000
 c003d80:	e2822c96 	add	r2, r2, #38400	; 0x9600
 c003d84:	e15b01f6 	ldrsh	r0, [fp, #-22]	; 0xffffffea
 c003d88:	e15b30fe 	ldrsh	r3, [fp, #-14]
 c003d8c:	e0803003 	add	r3, r0, r3
 c003d90:	e2830007 	add	r0, r3, #7
 c003d94:	e3530000 	cmp	r3, #0
 c003d98:	b1a03000 	movlt	r3, r0
 c003d9c:	e1a031c3 	asr	r3, r3, #3
 c003da0:	e1a03103 	lsl	r3, r3, #2
 c003da4:	e0823003 	add	r3, r2, r3
 c003da8:	e5930000 	ldr	r0, [r3]
 c003dac:	e15b21f6 	ldrsh	r2, [fp, #-22]	; 0xffffffea
 c003db0:	e15b30fe 	ldrsh	r3, [fp, #-14]
 c003db4:	e0822003 	add	r2, r2, r3
 c003db8:	e1a03fc2 	asr	r3, r2, #31
 c003dbc:	e1a03ea3 	lsr	r3, r3, #29
 c003dc0:	e0822003 	add	r2, r2, r3
 c003dc4:	e2022007 	and	r2, r2, #7
 c003dc8:	e0633002 	rsb	r3, r3, r2
 c003dcc:	e1a03103 	lsl	r3, r3, #2
 c003dd0:	e3a0220f 	mov	r2, #-268435456	; 0xf0000000
 c003dd4:	e1a03332 	lsr	r3, r2, r3
 c003dd8:	e1e03003 	mvn	r3, r3
 c003ddc:	e0000003 	and	r0, r0, r3
 c003de0:	e55bc01b 	ldrb	ip, [fp, #-27]	; 0xffffffe5
 c003de4:	e15b21f6 	ldrsh	r2, [fp, #-22]	; 0xffffffea
 c003de8:	e15b30fe 	ldrsh	r3, [fp, #-14]
 c003dec:	e0822003 	add	r2, r2, r3
 c003df0:	e1a03fc2 	asr	r3, r2, #31
 c003df4:	e1a03ea3 	lsr	r3, r3, #29
 c003df8:	e0822003 	add	r2, r2, r3
 c003dfc:	e2022007 	and	r2, r2, #7
 c003e00:	e0633002 	rsb	r3, r3, r2
 c003e04:	e2633007 	rsb	r3, r3, #7
 c003e08:	e1a03103 	lsl	r3, r3, #2
 c003e0c:	e1a0331c 	lsl	r3, ip, r3
 c003e10:	e1803003 	orr	r3, r0, r3
 c003e14:	e5813000 	str	r3, [r1]
    }

    while( (usWidth--) > 0 )
    {
        usLen = usX1 - usX0 + 1;
        while( (usLen--) > 0 )
 c003e18:	e15b30fe 	ldrsh	r3, [fp, #-14]
 c003e1c:	e3530000 	cmp	r3, #0
 c003e20:	d3a03000 	movle	r3, #0
 c003e24:	c3a03001 	movgt	r3, #1
 c003e28:	e20330ff 	and	r3, r3, #255	; 0xff
 c003e2c:	e15b20be 	ldrh	r2, [fp, #-14]
 c003e30:	e2422001 	sub	r2, r2, #1
 c003e34:	e14b20be 	strh	r2, [fp, #-14]
 c003e38:	e3530000 	cmp	r3, #0
 c003e3c:	1affffb2 	bne	c003d0c <Lcd_Draw_HLine+0x8c>
        {
        	(LCD_PutPixel(usX0 + usLen, usY0, ucColor));
        }
        usY0++;
 c003e40:	e15b31ba 	ldrh	r3, [fp, #-26]	; 0xffffffe6
 c003e44:	e2833001 	add	r3, r3, #1
 c003e48:	e14b31ba 	strh	r3, [fp, #-26]	; 0xffffffe6
 c003e4c:	ea000000 	b	c003e54 <Lcd_Draw_HLine+0x1d4>
    if( usX1 < usX0 )
    {
        GUISWAP (usX1, usX0);
    }

    while( (usWidth--) > 0 )
 c003e50:	e1a00000 	nop			; (mov r0, r0)
 c003e54:	e1db30b4 	ldrh	r3, [fp, #4]
 c003e58:	e3530000 	cmp	r3, #0
 c003e5c:	03a03000 	moveq	r3, #0
 c003e60:	13a03001 	movne	r3, #1
 c003e64:	e20330ff 	and	r3, r3, #255	; 0xff
 c003e68:	e1db20b4 	ldrh	r2, [fp, #4]
 c003e6c:	e2422001 	sub	r2, r2, #1
 c003e70:	e1cb20b4 	strh	r2, [fp, #4]
 c003e74:	e3530000 	cmp	r3, #0
 c003e78:	1affff99 	bne	c003ce4 <Lcd_Draw_HLine+0x64>
        {
        	(LCD_PutPixel(usX0 + usLen, usY0, ucColor));
        }
        usY0++;
    }
}
 c003e7c:	e24bd00c 	sub	sp, fp, #12
 c003e80:	e89d6800 	ldm	sp, {fp, sp, lr}
 c003e84:	e12fff1e 	bx	lr

0c003e88 <Lcd_Draw_VLine>:
* ret:		none
* modify:
* comment:		
*********************************************************************************************/
void Lcd_Draw_VLine (INT16 usY0, INT16 usY1, INT16 usX0, INT8U ucColor, INT16U usWidth)
{
 c003e88:	e1a0c00d 	mov	ip, sp
 c003e8c:	e92dd800 	push	{fp, ip, lr, pc}
 c003e90:	e24cb004 	sub	fp, ip, #4
 c003e94:	e24dd010 	sub	sp, sp, #16
 c003e98:	e14b01b6 	strh	r0, [fp, #-22]	; 0xffffffea
 c003e9c:	e14b11b8 	strh	r1, [fp, #-24]	; 0xffffffe8
 c003ea0:	e14b21ba 	strh	r2, [fp, #-26]	; 0xffffffe6
 c003ea4:	e54b301b 	strb	r3, [fp, #-27]	; 0xffffffe5
	INT16 usLen;

    if( usY1 < usY0 )
 c003ea8:	e15b21f8 	ldrsh	r2, [fp, #-24]	; 0xffffffe8
 c003eac:	e15b31f6 	ldrsh	r3, [fp, #-22]	; 0xffffffea
 c003eb0:	e1520003 	cmp	r2, r3
 c003eb4:	aa000073 	bge	c004088 <Lcd_Draw_VLine+0x200>
    {
        GUISWAP (usY1, usY0);
 c003eb8:	e15b21b8 	ldrh	r2, [fp, #-24]	; 0xffffffe8
 c003ebc:	e15b31b6 	ldrh	r3, [fp, #-22]	; 0xffffffea
 c003ec0:	e0223003 	eor	r3, r2, r3
 c003ec4:	e14b31b8 	strh	r3, [fp, #-24]	; 0xffffffe8
 c003ec8:	e15b21b6 	ldrh	r2, [fp, #-22]	; 0xffffffea
 c003ecc:	e15b31b8 	ldrh	r3, [fp, #-24]	; 0xffffffe8
 c003ed0:	e0223003 	eor	r3, r2, r3
 c003ed4:	e14b31b6 	strh	r3, [fp, #-22]	; 0xffffffea
 c003ed8:	e15b21b8 	ldrh	r2, [fp, #-24]	; 0xffffffe8
 c003edc:	e15b31b6 	ldrh	r3, [fp, #-22]	; 0xffffffea
 c003ee0:	e0223003 	eor	r3, r2, r3
 c003ee4:	e14b31b8 	strh	r3, [fp, #-24]	; 0xffffffe8
    }

    while( (usWidth--) > 0 )
 c003ee8:	ea000067 	b	c00408c <Lcd_Draw_VLine+0x204>
    {
        usLen = usY1 - usY0 + 1;
 c003eec:	e15b21b8 	ldrh	r2, [fp, #-24]	; 0xffffffe8
 c003ef0:	e15b31b6 	ldrh	r3, [fp, #-22]	; 0xffffffea
 c003ef4:	e0633002 	rsb	r3, r3, r2
 c003ef8:	e1a03803 	lsl	r3, r3, #16
 c003efc:	e1a03823 	lsr	r3, r3, #16
 c003f00:	e2833001 	add	r3, r3, #1
 c003f04:	e1a03803 	lsl	r3, r3, #16
 c003f08:	e1a03823 	lsr	r3, r3, #16
 c003f0c:	e14b30be 	strh	r3, [fp, #-14]
        while( (usLen--) > 0 )
 c003f10:	ea00004e 	b	c004050 <Lcd_Draw_VLine+0x1c8>
        {
        	(LCD_PutPixel(usX0, usY0 + usLen, ucColor));
 c003f14:	e15b21f6 	ldrsh	r2, [fp, #-22]	; 0xffffffea
 c003f18:	e15b30fe 	ldrsh	r3, [fp, #-14]
 c003f1c:	e0822003 	add	r2, r2, r3
 c003f20:	e1a03002 	mov	r3, r2
 c003f24:	e1a03103 	lsl	r3, r3, #2
 c003f28:	e0833002 	add	r3, r3, r2
 c003f2c:	e1a03303 	lsl	r3, r3, #6
 c003f30:	e1a02fa3 	lsr	r2, r3, #31
 c003f34:	e0823003 	add	r3, r2, r3
 c003f38:	e1a030c3 	asr	r3, r3, #1
 c003f3c:	e28326c3 	add	r2, r3, #204472320	; 0xc300000
 c003f40:	e2822c96 	add	r2, r2, #38400	; 0x9600
 c003f44:	e15b31fa 	ldrsh	r3, [fp, #-26]	; 0xffffffe6
 c003f48:	e2831007 	add	r1, r3, #7
 c003f4c:	e3530000 	cmp	r3, #0
 c003f50:	b1a03001 	movlt	r3, r1
 c003f54:	e1a031c3 	asr	r3, r3, #3
 c003f58:	e1a03803 	lsl	r3, r3, #16
 c003f5c:	e1a03823 	lsr	r3, r3, #16
 c003f60:	e1a03803 	lsl	r3, r3, #16
 c003f64:	e1a03843 	asr	r3, r3, #16
 c003f68:	e1a03103 	lsl	r3, r3, #2
 c003f6c:	e0823003 	add	r3, r2, r3
 c003f70:	e1a01003 	mov	r1, r3
 c003f74:	e15b21f6 	ldrsh	r2, [fp, #-22]	; 0xffffffea
 c003f78:	e15b30fe 	ldrsh	r3, [fp, #-14]
 c003f7c:	e0822003 	add	r2, r2, r3
 c003f80:	e1a03002 	mov	r3, r2
 c003f84:	e1a03103 	lsl	r3, r3, #2
 c003f88:	e0833002 	add	r3, r3, r2
 c003f8c:	e1a03303 	lsl	r3, r3, #6
 c003f90:	e1a02fa3 	lsr	r2, r3, #31
 c003f94:	e0823003 	add	r3, r2, r3
 c003f98:	e1a030c3 	asr	r3, r3, #1
 c003f9c:	e28326c3 	add	r2, r3, #204472320	; 0xc300000
 c003fa0:	e2822c96 	add	r2, r2, #38400	; 0x9600
 c003fa4:	e15b31fa 	ldrsh	r3, [fp, #-26]	; 0xffffffe6
 c003fa8:	e2830007 	add	r0, r3, #7
 c003fac:	e3530000 	cmp	r3, #0
 c003fb0:	b1a03000 	movlt	r3, r0
 c003fb4:	e1a031c3 	asr	r3, r3, #3
 c003fb8:	e1a03803 	lsl	r3, r3, #16
 c003fbc:	e1a03823 	lsr	r3, r3, #16
 c003fc0:	e1a03803 	lsl	r3, r3, #16
 c003fc4:	e1a03843 	asr	r3, r3, #16
 c003fc8:	e1a03103 	lsl	r3, r3, #2
 c003fcc:	e0823003 	add	r3, r2, r3
 c003fd0:	e5930000 	ldr	r0, [r3]
 c003fd4:	e15b21fa 	ldrsh	r2, [fp, #-26]	; 0xffffffe6
 c003fd8:	e1a03fc2 	asr	r3, r2, #31
 c003fdc:	e1a03ea3 	lsr	r3, r3, #29
 c003fe0:	e0822003 	add	r2, r2, r3
 c003fe4:	e2022007 	and	r2, r2, #7
 c003fe8:	e0633002 	rsb	r3, r3, r2
 c003fec:	e1a03803 	lsl	r3, r3, #16
 c003ff0:	e1a03823 	lsr	r3, r3, #16
 c003ff4:	e1a03803 	lsl	r3, r3, #16
 c003ff8:	e1a03843 	asr	r3, r3, #16
 c003ffc:	e1a03103 	lsl	r3, r3, #2
 c004000:	e3a0220f 	mov	r2, #-268435456	; 0xf0000000
 c004004:	e1a03332 	lsr	r3, r2, r3
 c004008:	e1e03003 	mvn	r3, r3
 c00400c:	e0000003 	and	r0, r0, r3
 c004010:	e55bc01b 	ldrb	ip, [fp, #-27]	; 0xffffffe5
 c004014:	e15b21fa 	ldrsh	r2, [fp, #-26]	; 0xffffffe6
 c004018:	e1a03fc2 	asr	r3, r2, #31
 c00401c:	e1a03ea3 	lsr	r3, r3, #29
 c004020:	e0822003 	add	r2, r2, r3
 c004024:	e2022007 	and	r2, r2, #7
 c004028:	e0633002 	rsb	r3, r3, r2
 c00402c:	e1a03803 	lsl	r3, r3, #16
 c004030:	e1a03823 	lsr	r3, r3, #16
 c004034:	e1a03803 	lsl	r3, r3, #16
 c004038:	e1a03843 	asr	r3, r3, #16
 c00403c:	e2633007 	rsb	r3, r3, #7
 c004040:	e1a03103 	lsl	r3, r3, #2
 c004044:	e1a0331c 	lsl	r3, ip, r3
 c004048:	e1803003 	orr	r3, r0, r3
 c00404c:	e5813000 	str	r3, [r1]
    }

    while( (usWidth--) > 0 )
    {
        usLen = usY1 - usY0 + 1;
        while( (usLen--) > 0 )
 c004050:	e15b30fe 	ldrsh	r3, [fp, #-14]
 c004054:	e3530000 	cmp	r3, #0
 c004058:	d3a03000 	movle	r3, #0
 c00405c:	c3a03001 	movgt	r3, #1
 c004060:	e20330ff 	and	r3, r3, #255	; 0xff
 c004064:	e15b20be 	ldrh	r2, [fp, #-14]
 c004068:	e2422001 	sub	r2, r2, #1
 c00406c:	e14b20be 	strh	r2, [fp, #-14]
 c004070:	e3530000 	cmp	r3, #0
 c004074:	1affffa6 	bne	c003f14 <Lcd_Draw_VLine+0x8c>
        {
        	(LCD_PutPixel(usX0, usY0 + usLen, ucColor));
        }
        usX0++;
 c004078:	e15b31ba 	ldrh	r3, [fp, #-26]	; 0xffffffe6
 c00407c:	e2833001 	add	r3, r3, #1
 c004080:	e14b31ba 	strh	r3, [fp, #-26]	; 0xffffffe6
 c004084:	ea000000 	b	c00408c <Lcd_Draw_VLine+0x204>
    if( usY1 < usY0 )
    {
        GUISWAP (usY1, usY0);
    }

    while( (usWidth--) > 0 )
 c004088:	e1a00000 	nop			; (mov r0, r0)
 c00408c:	e1db30b4 	ldrh	r3, [fp, #4]
 c004090:	e3530000 	cmp	r3, #0
 c004094:	03a03000 	moveq	r3, #0
 c004098:	13a03001 	movne	r3, #1
 c00409c:	e20330ff 	and	r3, r3, #255	; 0xff
 c0040a0:	e1db20b4 	ldrh	r2, [fp, #4]
 c0040a4:	e2422001 	sub	r2, r2, #1
 c0040a8:	e1cb20b4 	strh	r2, [fp, #4]
 c0040ac:	e3530000 	cmp	r3, #0
 c0040b0:	1affff8d 	bne	c003eec <Lcd_Draw_VLine+0x64>
        {
        	(LCD_PutPixel(usX0, usY0 + usLen, ucColor));
        }
        usX0++;
    }
}
 c0040b4:	e24bd00c 	sub	sp, fp, #12
 c0040b8:	e89d6800 	ldm	sp, {fp, sp, lr}
 c0040bc:	e12fff1e 	bx	lr

0c0040c0 <Lcd_DisplayString>:

void Lcd_DisplayString(INT16U usX0, INT16U usY0, INT8U *pucStr){
 c0040c0:	e1a0c00d 	mov	ip, sp
 c0040c4:	e92dd800 	push	{fp, ip, lr, pc}
 c0040c8:	e24cb004 	sub	fp, ip, #4
 c0040cc:	e24dd008 	sub	sp, sp, #8
 c0040d0:	e1a03001 	mov	r3, r1
 c0040d4:	e50b2014 	str	r2, [fp, #-20]	; 0xffffffec
 c0040d8:	e14b00be 	strh	r0, [fp, #-14]
 c0040dc:	e14b31b0 	strh	r3, [fp, #-16]

}
 c0040e0:	e24bd00c 	sub	sp, fp, #12
 c0040e4:	e89d6800 	ldm	sp, {fp, sp, lr}
 c0040e8:	e12fff1e 	bx	lr

0c0040ec <Lcd_DspAscII8x16>:
* ret:		none
* modify:
* comment:		
*********************************************************************************************/
void Lcd_DspAscII8x16(INT16U x0, INT16U y0, INT8U ForeColor, INT8U * s)
{
 c0040ec:	e1a0c00d 	mov	ip, sp
 c0040f0:	e92dd810 	push	{r4, fp, ip, lr, pc}
 c0040f4:	e24cb004 	sub	fp, ip, #4
 c0040f8:	e24dd03c 	sub	sp, sp, #60	; 0x3c
 c0040fc:	e50b3048 	str	r3, [fp, #-72]	; 0xffffffb8
 c004100:	e14b03be 	strh	r0, [fp, #-62]	; 0xffffffc2
 c004104:	e14b14b0 	strh	r1, [fp, #-64]	; 0xffffffc0
 c004108:	e1a03002 	mov	r3, r2
 c00410c:	e54b3041 	strb	r3, [fp, #-65]	; 0xffffffbf
	INT16 i,j,k,x,y,xx;
	INT8U qm;
	INT32U ulOffset;
	INT8 ywbuf[16],temp[2];
    
	for( i = 0; i < strlen((const char*)s); i++ )
 c004110:	e3a03000 	mov	r3, #0
 c004114:	e14b31b6 	strh	r3, [fp, #-22]	; 0xffffffea
 c004118:	ea0000ae 	b	c0043d8 <Lcd_DspAscII8x16+0x2ec>
	{
		if( (INT8U)*(s+i) >= 161 )
 c00411c:	e15b31f6 	ldrsh	r3, [fp, #-22]	; 0xffffffea
 c004120:	e51b2048 	ldr	r2, [fp, #-72]	; 0xffffffb8
 c004124:	e0823003 	add	r3, r2, r3
 c004128:	e5d33000 	ldrb	r3, [r3]
 c00412c:	e35300a0 	cmp	r3, #160	; 0xa0
 c004130:	9a000007 	bls	c004154 <Lcd_DspAscII8x16+0x68>
		{
			temp[0] = *(s + i);
 c004134:	e15b31f6 	ldrsh	r3, [fp, #-22]	; 0xffffffea
 c004138:	e51b2048 	ldr	r2, [fp, #-72]	; 0xffffffb8
 c00413c:	e0823003 	add	r3, r2, r3
 c004140:	e5d33000 	ldrb	r3, [r3]
 c004144:	e54b303c 	strb	r3, [fp, #-60]	; 0xffffffc4
			temp[1] = '\0';
 c004148:	e3a03000 	mov	r3, #0
 c00414c:	e54b303b 	strb	r3, [fp, #-59]	; 0xffffffc5
			return;
 c004150:	ea0000a6 	b	c0043f0 <Lcd_DspAscII8x16+0x304>
		}
		else
		{
			qm = *(s+i);
 c004154:	e15b31f6 	ldrsh	r3, [fp, #-22]	; 0xffffffea
 c004158:	e51b2048 	ldr	r2, [fp, #-72]	; 0xffffffb8
 c00415c:	e0823003 	add	r3, r2, r3
 c004160:	e5d33000 	ldrb	r3, [r3]
 c004164:	e54b301d 	strb	r3, [fp, #-29]	; 0xffffffe3
			ulOffset = (INT32U)(qm) * 16;		//Here to be changed tomorrow
 c004168:	e55b301d 	ldrb	r3, [fp, #-29]	; 0xffffffe3
 c00416c:	e1a03203 	lsl	r3, r3, #4
 c004170:	e50b3024 	str	r3, [fp, #-36]	; 0xffffffdc
			for( j = 0; j < 16; j ++ )
 c004174:	e3a03000 	mov	r3, #0
 c004178:	e14b31b8 	strh	r3, [fp, #-24]	; 0xffffffe8
 c00417c:	ea00000d 	b	c0041b8 <Lcd_DspAscII8x16+0xcc>
			{
				ywbuf[j] = g_auc_Ascii8x16[ulOffset + j];
 c004180:	e15b11f8 	ldrsh	r1, [fp, #-24]	; 0xffffffe8
 c004184:	e15b21f8 	ldrsh	r2, [fp, #-24]	; 0xffffffe8
 c004188:	e51b3024 	ldr	r3, [fp, #-36]	; 0xffffffdc
 c00418c:	e0823003 	add	r3, r2, r3
 c004190:	e59f2264 	ldr	r2, [pc, #612]	; c0043fc <Lcd_DspAscII8x16+0x310>
 c004194:	e7d22003 	ldrb	r2, [r2, r3]
 c004198:	e3e03023 	mvn	r3, #35	; 0x23
 c00419c:	e24b0014 	sub	r0, fp, #20
 c0041a0:	e0801001 	add	r1, r0, r1
 c0041a4:	e0813003 	add	r3, r1, r3
 c0041a8:	e5c32000 	strb	r2, [r3]
		}
		else
		{
			qm = *(s+i);
			ulOffset = (INT32U)(qm) * 16;		//Here to be changed tomorrow
			for( j = 0; j < 16; j ++ )
 c0041ac:	e15b31b8 	ldrh	r3, [fp, #-24]	; 0xffffffe8
 c0041b0:	e2833001 	add	r3, r3, #1
 c0041b4:	e14b31b8 	strh	r3, [fp, #-24]	; 0xffffffe8
 c0041b8:	e15b31f8 	ldrsh	r3, [fp, #-24]	; 0xffffffe8
 c0041bc:	e353000f 	cmp	r3, #15
 c0041c0:	daffffee 	ble	c004180 <Lcd_DspAscII8x16+0x94>
			{
				ywbuf[j] = g_auc_Ascii8x16[ulOffset + j];
            }

            for( y = 0; y < 16; y++ )
 c0041c4:	e3a03000 	mov	r3, #0
 c0041c8:	e14b31bc 	strh	r3, [fp, #-28]	; 0xffffffe4
 c0041cc:	ea00007b 	b	c0043c0 <Lcd_DspAscII8x16+0x2d4>
            {
            	for( x = 0; x < 8; x++ ) 
 c0041d0:	e3a03000 	mov	r3, #0
 c0041d4:	e14b31ba 	strh	r3, [fp, #-26]	; 0xffffffe6
 c0041d8:	ea000072 	b	c0043a8 <Lcd_DspAscII8x16+0x2bc>
               	{
                	k = x % 8;
 c0041dc:	e15b21fa 	ldrsh	r2, [fp, #-26]	; 0xffffffe6
 c0041e0:	e1a03fc2 	asr	r3, r2, #31
 c0041e4:	e1a03ea3 	lsr	r3, r3, #29
 c0041e8:	e0822003 	add	r2, r2, r3
 c0041ec:	e2022007 	and	r2, r2, #7
 c0041f0:	e0633002 	rsb	r3, r3, r2
 c0041f4:	e14b32b6 	strh	r3, [fp, #-38]	; 0xffffffda
			    	if( ywbuf[y]  & (0x80 >> k) )
 c0041f8:	e15b21fc 	ldrsh	r2, [fp, #-28]	; 0xffffffe4
 c0041fc:	e3e03023 	mvn	r3, #35	; 0x23
 c004200:	e24b1014 	sub	r1, fp, #20
 c004204:	e0812002 	add	r2, r1, r2
 c004208:	e0823003 	add	r3, r2, r3
 c00420c:	e5d33000 	ldrb	r3, [r3]
 c004210:	e1a02003 	mov	r2, r3
 c004214:	e15b32f6 	ldrsh	r3, [fp, #-38]	; 0xffffffda
 c004218:	e3a01080 	mov	r1, #128	; 0x80
 c00421c:	e1a03351 	asr	r3, r1, r3
 c004220:	e0023003 	and	r3, r2, r3
 c004224:	e3530000 	cmp	r3, #0
 c004228:	0a00005b 	beq	c00439c <Lcd_DspAscII8x16+0x2b0>
			       	{
			       		xx = x0 + x + i*8;
 c00422c:	e15b21ba 	ldrh	r2, [fp, #-26]	; 0xffffffe6
 c004230:	e15b33be 	ldrh	r3, [fp, #-62]	; 0xffffffc2
 c004234:	e0823003 	add	r3, r2, r3
 c004238:	e1a03803 	lsl	r3, r3, #16
 c00423c:	e1a02823 	lsr	r2, r3, #16
 c004240:	e15b31b6 	ldrh	r3, [fp, #-22]	; 0xffffffea
 c004244:	e1a03183 	lsl	r3, r3, #3
 c004248:	e1a03803 	lsl	r3, r3, #16
 c00424c:	e1a03823 	lsr	r3, r3, #16
 c004250:	e0823003 	add	r3, r2, r3
 c004254:	e1a03803 	lsl	r3, r3, #16
 c004258:	e1a03823 	lsr	r3, r3, #16
 c00425c:	e14b32b8 	strh	r3, [fp, #-40]	; 0xffffffd8
			       		(LCD_PutPixel(xx, y + y0, (INT8U)ForeColor));
 c004260:	e15b21fc 	ldrsh	r2, [fp, #-28]	; 0xffffffe4
 c004264:	e15b34b0 	ldrh	r3, [fp, #-64]	; 0xffffffc0
 c004268:	e0822003 	add	r2, r2, r3
 c00426c:	e1a03002 	mov	r3, r2
 c004270:	e1a03103 	lsl	r3, r3, #2
 c004274:	e0833002 	add	r3, r3, r2
 c004278:	e1a03303 	lsl	r3, r3, #6
 c00427c:	e1a02fa3 	lsr	r2, r3, #31
 c004280:	e0823003 	add	r3, r2, r3
 c004284:	e1a030c3 	asr	r3, r3, #1
 c004288:	e28326c3 	add	r2, r3, #204472320	; 0xc300000
 c00428c:	e2822c96 	add	r2, r2, #38400	; 0x9600
 c004290:	e15b32f8 	ldrsh	r3, [fp, #-40]	; 0xffffffd8
 c004294:	e2831007 	add	r1, r3, #7
 c004298:	e3530000 	cmp	r3, #0
 c00429c:	b1a03001 	movlt	r3, r1
 c0042a0:	e1a031c3 	asr	r3, r3, #3
 c0042a4:	e1a03803 	lsl	r3, r3, #16
 c0042a8:	e1a03823 	lsr	r3, r3, #16
 c0042ac:	e1a03803 	lsl	r3, r3, #16
 c0042b0:	e1a03843 	asr	r3, r3, #16
 c0042b4:	e1a03103 	lsl	r3, r3, #2
 c0042b8:	e0823003 	add	r3, r2, r3
 c0042bc:	e1a01003 	mov	r1, r3
 c0042c0:	e15b21fc 	ldrsh	r2, [fp, #-28]	; 0xffffffe4
 c0042c4:	e15b34b0 	ldrh	r3, [fp, #-64]	; 0xffffffc0
 c0042c8:	e0822003 	add	r2, r2, r3
 c0042cc:	e1a03002 	mov	r3, r2
 c0042d0:	e1a03103 	lsl	r3, r3, #2
 c0042d4:	e0833002 	add	r3, r3, r2
 c0042d8:	e1a03303 	lsl	r3, r3, #6
 c0042dc:	e1a02fa3 	lsr	r2, r3, #31
 c0042e0:	e0823003 	add	r3, r2, r3
 c0042e4:	e1a030c3 	asr	r3, r3, #1
 c0042e8:	e28326c3 	add	r2, r3, #204472320	; 0xc300000
 c0042ec:	e2822c96 	add	r2, r2, #38400	; 0x9600
 c0042f0:	e15b32f8 	ldrsh	r3, [fp, #-40]	; 0xffffffd8
 c0042f4:	e2830007 	add	r0, r3, #7
 c0042f8:	e3530000 	cmp	r3, #0
 c0042fc:	b1a03000 	movlt	r3, r0
 c004300:	e1a031c3 	asr	r3, r3, #3
 c004304:	e1a03803 	lsl	r3, r3, #16
 c004308:	e1a03823 	lsr	r3, r3, #16
 c00430c:	e1a03803 	lsl	r3, r3, #16
 c004310:	e1a03843 	asr	r3, r3, #16
 c004314:	e1a03103 	lsl	r3, r3, #2
 c004318:	e0823003 	add	r3, r2, r3
 c00431c:	e5930000 	ldr	r0, [r3]
 c004320:	e15b22f8 	ldrsh	r2, [fp, #-40]	; 0xffffffd8
 c004324:	e1a03fc2 	asr	r3, r2, #31
 c004328:	e1a03ea3 	lsr	r3, r3, #29
 c00432c:	e0822003 	add	r2, r2, r3
 c004330:	e2022007 	and	r2, r2, #7
 c004334:	e0633002 	rsb	r3, r3, r2
 c004338:	e1a03803 	lsl	r3, r3, #16
 c00433c:	e1a03823 	lsr	r3, r3, #16
 c004340:	e1a03803 	lsl	r3, r3, #16
 c004344:	e1a03843 	asr	r3, r3, #16
 c004348:	e1a03103 	lsl	r3, r3, #2
 c00434c:	e3a0220f 	mov	r2, #-268435456	; 0xf0000000
 c004350:	e1a03332 	lsr	r3, r2, r3
 c004354:	e1e03003 	mvn	r3, r3
 c004358:	e0000003 	and	r0, r0, r3
 c00435c:	e55bc041 	ldrb	ip, [fp, #-65]	; 0xffffffbf
 c004360:	e15b22f8 	ldrsh	r2, [fp, #-40]	; 0xffffffd8
 c004364:	e1a03fc2 	asr	r3, r2, #31
 c004368:	e1a03ea3 	lsr	r3, r3, #29
 c00436c:	e0822003 	add	r2, r2, r3
 c004370:	e2022007 	and	r2, r2, #7
 c004374:	e0633002 	rsb	r3, r3, r2
 c004378:	e1a03803 	lsl	r3, r3, #16
 c00437c:	e1a03823 	lsr	r3, r3, #16
 c004380:	e1a03803 	lsl	r3, r3, #16
 c004384:	e1a03843 	asr	r3, r3, #16
 c004388:	e2633007 	rsb	r3, r3, #7
 c00438c:	e1a03103 	lsl	r3, r3, #2
 c004390:	e1a0331c 	lsl	r3, ip, r3
 c004394:	e1803003 	orr	r3, r0, r3
 c004398:	e5813000 	str	r3, [r1]
				ywbuf[j] = g_auc_Ascii8x16[ulOffset + j];
            }

            for( y = 0; y < 16; y++ )
            {
            	for( x = 0; x < 8; x++ ) 
 c00439c:	e15b31ba 	ldrh	r3, [fp, #-26]	; 0xffffffe6
 c0043a0:	e2833001 	add	r3, r3, #1
 c0043a4:	e14b31ba 	strh	r3, [fp, #-26]	; 0xffffffe6
 c0043a8:	e15b31fa 	ldrsh	r3, [fp, #-26]	; 0xffffffe6
 c0043ac:	e3530007 	cmp	r3, #7
 c0043b0:	daffff89 	ble	c0041dc <Lcd_DspAscII8x16+0xf0>
			for( j = 0; j < 16; j ++ )
			{
				ywbuf[j] = g_auc_Ascii8x16[ulOffset + j];
            }

            for( y = 0; y < 16; y++ )
 c0043b4:	e15b31bc 	ldrh	r3, [fp, #-28]	; 0xffffffe4
 c0043b8:	e2833001 	add	r3, r3, #1
 c0043bc:	e14b31bc 	strh	r3, [fp, #-28]	; 0xffffffe4
 c0043c0:	e15b31fc 	ldrsh	r3, [fp, #-28]	; 0xffffffe4
 c0043c4:	e353000f 	cmp	r3, #15
 c0043c8:	daffff80 	ble	c0041d0 <Lcd_DspAscII8x16+0xe4>
	INT16 i,j,k,x,y,xx;
	INT8U qm;
	INT32U ulOffset;
	INT8 ywbuf[16],temp[2];
    
	for( i = 0; i < strlen((const char*)s); i++ )
 c0043cc:	e15b31b6 	ldrh	r3, [fp, #-22]	; 0xffffffea
 c0043d0:	e2833001 	add	r3, r3, #1
 c0043d4:	e14b31b6 	strh	r3, [fp, #-22]	; 0xffffffea
 c0043d8:	e15b41f6 	ldrsh	r4, [fp, #-22]	; 0xffffffea
 c0043dc:	e51b0048 	ldr	r0, [fp, #-72]	; 0xffffffb8
 c0043e0:	eb000cc2 	bl	c0076f0 <strlen>
 c0043e4:	e1a03000 	mov	r3, r0
 c0043e8:	e1540003 	cmp	r4, r3
 c0043ec:	3affff4a 	bcc	c00411c <Lcd_DspAscII8x16+0x30>
			       	}
			   	}
            }
		}
	}
}
 c0043f0:	e24bd010 	sub	sp, fp, #16
 c0043f4:	e89d6810 	ldm	sp, {r4, fp, sp, lr}
 c0043f8:	e12fff1e 	bx	lr
 c0043fc:	0c008980 	.word	0x0c008980

0c004400 <Lcd_DspAscII6x8>:
* ret:		none
* modify:
* comment:
*********************************************************************************************/
void Lcd_DspAscII6x8(INT16U usX0, INT16U usY0,INT8U ForeColor, INT8U* pucChar)
{
 c004400:	e1a0c00d 	mov	ip, sp
 c004404:	e92dd800 	push	{fp, ip, lr, pc}
 c004408:	e24cb004 	sub	fp, ip, #4
 c00440c:	e24dd020 	sub	sp, sp, #32
 c004410:	e50b3028 	str	r3, [fp, #-40]	; 0xffffffd8
 c004414:	e14b01be 	strh	r0, [fp, #-30]	; 0xffffffe2
 c004418:	e14b12b0 	strh	r1, [fp, #-32]	; 0xffffffe0
 c00441c:	e1a03002 	mov	r3, r2
 c004420:	e54b3021 	strb	r3, [fp, #-33]	; 0xffffffdf
	INT32U i,j;
	INT8U  ucTemp;

	while( *pucChar != 0 )
 c004424:	ea00005e 	b	c0045a4 <Lcd_DspAscII6x8+0x1a4>
	{
		for( i=0; i < 8; i++ )
 c004428:	e3a03000 	mov	r3, #0
 c00442c:	e50b3010 	str	r3, [fp, #-16]
 c004430:	ea000052 	b	c004580 <Lcd_DspAscII6x8+0x180>
		{
  			ucTemp = g_auc_Ascii6x8[(*pucChar) * 8 + i];
 c004434:	e51b3028 	ldr	r3, [fp, #-40]	; 0xffffffd8
 c004438:	e5d33000 	ldrb	r3, [r3]
 c00443c:	e1a03183 	lsl	r3, r3, #3
 c004440:	e1a02003 	mov	r2, r3
 c004444:	e51b3010 	ldr	r3, [fp, #-16]
 c004448:	e0823003 	add	r3, r2, r3
 c00444c:	e59f216c 	ldr	r2, [pc, #364]	; c0045c0 <Lcd_DspAscII6x8+0x1c0>
 c004450:	e7d23003 	ldrb	r3, [r2, r3]
 c004454:	e54b3015 	strb	r3, [fp, #-21]	; 0xffffffeb
  			for( j = 0; j < 8; j++ )
 c004458:	e3a03000 	mov	r3, #0
 c00445c:	e50b3014 	str	r3, [fp, #-20]	; 0xffffffec
 c004460:	ea000040 	b	c004568 <Lcd_DspAscII6x8+0x168>
  			{
  				if( (ucTemp & (0x80 >> j)) != 0 )
 c004464:	e55b2015 	ldrb	r2, [fp, #-21]	; 0xffffffeb
 c004468:	e51b3014 	ldr	r3, [fp, #-20]	; 0xffffffec
 c00446c:	e3a01080 	mov	r1, #128	; 0x80
 c004470:	e1a03351 	asr	r3, r1, r3
 c004474:	e0023003 	and	r3, r2, r3
 c004478:	e3530000 	cmp	r3, #0
 c00447c:	0a000036 	beq	c00455c <Lcd_DspAscII6x8+0x15c>
  				{
  					LCD_PutPixel(usX0 + i, usY0 + 8 - j, (INT8U)ForeColor);
 c004480:	e15b22b0 	ldrh	r2, [fp, #-32]	; 0xffffffe0
 c004484:	e51b3014 	ldr	r3, [fp, #-20]	; 0xffffffec
 c004488:	e0632002 	rsb	r2, r3, r2
 c00448c:	e1a03002 	mov	r3, r2
 c004490:	e1a03103 	lsl	r3, r3, #2
 c004494:	e0833002 	add	r3, r3, r2
 c004498:	e1a03303 	lsl	r3, r3, #6
 c00449c:	e2833c0a 	add	r3, r3, #2560	; 0xa00
 c0044a0:	e1a020a3 	lsr	r2, r3, #1
 c0044a4:	e15b11be 	ldrh	r1, [fp, #-30]	; 0xffffffe2
 c0044a8:	e51b3010 	ldr	r3, [fp, #-16]
 c0044ac:	e0813003 	add	r3, r1, r3
 c0044b0:	e1a031a3 	lsr	r3, r3, #3
 c0044b4:	e1a03103 	lsl	r3, r3, #2
 c0044b8:	e0823003 	add	r3, r2, r3
 c0044bc:	e28336c3 	add	r3, r3, #204472320	; 0xc300000
 c0044c0:	e2833c96 	add	r3, r3, #38400	; 0x9600
 c0044c4:	e1a01003 	mov	r1, r3
 c0044c8:	e15b22b0 	ldrh	r2, [fp, #-32]	; 0xffffffe0
 c0044cc:	e51b3014 	ldr	r3, [fp, #-20]	; 0xffffffec
 c0044d0:	e0632002 	rsb	r2, r3, r2
 c0044d4:	e1a03002 	mov	r3, r2
 c0044d8:	e1a03103 	lsl	r3, r3, #2
 c0044dc:	e0833002 	add	r3, r3, r2
 c0044e0:	e1a03303 	lsl	r3, r3, #6
 c0044e4:	e2833c0a 	add	r3, r3, #2560	; 0xa00
 c0044e8:	e1a020a3 	lsr	r2, r3, #1
 c0044ec:	e15b01be 	ldrh	r0, [fp, #-30]	; 0xffffffe2
 c0044f0:	e51b3010 	ldr	r3, [fp, #-16]
 c0044f4:	e0803003 	add	r3, r0, r3
 c0044f8:	e1a031a3 	lsr	r3, r3, #3
 c0044fc:	e1a03103 	lsl	r3, r3, #2
 c004500:	e0823003 	add	r3, r2, r3
 c004504:	e28336c3 	add	r3, r3, #204472320	; 0xc300000
 c004508:	e2833c96 	add	r3, r3, #38400	; 0x9600
 c00450c:	e5932000 	ldr	r2, [r3]
 c004510:	e15b01be 	ldrh	r0, [fp, #-30]	; 0xffffffe2
 c004514:	e51b3010 	ldr	r3, [fp, #-16]
 c004518:	e0803003 	add	r3, r0, r3
 c00451c:	e2033007 	and	r3, r3, #7
 c004520:	e1a03103 	lsl	r3, r3, #2
 c004524:	e3a0020f 	mov	r0, #-268435456	; 0xf0000000
 c004528:	e1a03330 	lsr	r3, r0, r3
 c00452c:	e1e03003 	mvn	r3, r3
 c004530:	e0022003 	and	r2, r2, r3
 c004534:	e55b0021 	ldrb	r0, [fp, #-33]	; 0xffffffdf
 c004538:	e15bc1be 	ldrh	ip, [fp, #-30]	; 0xffffffe2
 c00453c:	e51b3010 	ldr	r3, [fp, #-16]
 c004540:	e08c3003 	add	r3, ip, r3
 c004544:	e1e03003 	mvn	r3, r3
 c004548:	e2033007 	and	r3, r3, #7
 c00454c:	e1a03103 	lsl	r3, r3, #2
 c004550:	e1a03310 	lsl	r3, r0, r3
 c004554:	e1823003 	orr	r3, r2, r3
 c004558:	e5813000 	str	r3, [r1]
	while( *pucChar != 0 )
	{
		for( i=0; i < 8; i++ )
		{
  			ucTemp = g_auc_Ascii6x8[(*pucChar) * 8 + i];
  			for( j = 0; j < 8; j++ )
 c00455c:	e51b3014 	ldr	r3, [fp, #-20]	; 0xffffffec
 c004560:	e2833001 	add	r3, r3, #1
 c004564:	e50b3014 	str	r3, [fp, #-20]	; 0xffffffec
 c004568:	e51b3014 	ldr	r3, [fp, #-20]	; 0xffffffec
 c00456c:	e3530007 	cmp	r3, #7
 c004570:	9affffbb 	bls	c004464 <Lcd_DspAscII6x8+0x64>
	INT32U i,j;
	INT8U  ucTemp;

	while( *pucChar != 0 )
	{
		for( i=0; i < 8; i++ )
 c004574:	e51b3010 	ldr	r3, [fp, #-16]
 c004578:	e2833001 	add	r3, r3, #1
 c00457c:	e50b3010 	str	r3, [fp, #-16]
 c004580:	e51b3010 	ldr	r3, [fp, #-16]
 c004584:	e3530007 	cmp	r3, #7
 c004588:	9affffa9 	bls	c004434 <Lcd_DspAscII6x8+0x34>
  				{
  					LCD_PutPixel(usX0 + i, usY0 + 8 - j, (INT8U)ForeColor);
  				}
  			}
		}
		usX0 += XWIDTH;
 c00458c:	e15b31be 	ldrh	r3, [fp, #-30]	; 0xffffffe2
 c004590:	e2833006 	add	r3, r3, #6
 c004594:	e14b31be 	strh	r3, [fp, #-30]	; 0xffffffe2
		pucChar++;
 c004598:	e51b3028 	ldr	r3, [fp, #-40]	; 0xffffffd8
 c00459c:	e2833001 	add	r3, r3, #1
 c0045a0:	e50b3028 	str	r3, [fp, #-40]	; 0xffffffd8
void Lcd_DspAscII6x8(INT16U usX0, INT16U usY0,INT8U ForeColor, INT8U* pucChar)
{
	INT32U i,j;
	INT8U  ucTemp;

	while( *pucChar != 0 )
 c0045a4:	e51b3028 	ldr	r3, [fp, #-40]	; 0xffffffd8
 c0045a8:	e5d33000 	ldrb	r3, [r3]
 c0045ac:	e3530000 	cmp	r3, #0
 c0045b0:	1affff9c 	bne	c004428 <Lcd_DspAscII6x8+0x28>
  			}
		}
		usX0 += XWIDTH;
		pucChar++;
	}
}
 c0045b4:	e24bd00c 	sub	sp, fp, #12
 c0045b8:	e89d6800 	ldm	sp, {fp, sp, lr}
 c0045bc:	e12fff1e 	bx	lr
 c0045c0:	0c008580 	.word	0x0c008580

0c0045c4 <ReverseLine>:
* ret:		none
* modify:
* comment:		
*********************************************************************************************/
void ReverseLine(INT32U ulHeight, INT32U ulY)
{
 c0045c4:	e1a0c00d 	mov	ip, sp
 c0045c8:	e92dd800 	push	{fp, ip, lr, pc}
 c0045cc:	e24cb004 	sub	fp, ip, #4
 c0045d0:	e24dd018 	sub	sp, sp, #24
 c0045d4:	e50b0020 	str	r0, [fp, #-32]	; 0xffffffe0
 c0045d8:	e50b1024 	str	r1, [fp, #-36]	; 0xffffffdc
	INT32U i, j, temp;
	
	for( i = 0; i < ulHeight; i++ )
 c0045dc:	e3a03000 	mov	r3, #0
 c0045e0:	e50b3010 	str	r3, [fp, #-16]
 c0045e4:	ea00002c 	b	c00469c <ReverseLine+0xd8>
	{
		for( j = 0; j < (SCR_XSIZE/4/2) ; j++ )
 c0045e8:	e3a03000 	mov	r3, #0
 c0045ec:	e50b3014 	str	r3, [fp, #-20]	; 0xffffffec
 c0045f0:	ea000023 	b	c004684 <ReverseLine+0xc0>
		{
			temp = *(INT32U*)(LCD_VIRTUAL_BUFFER + (ulY+i)*SCR_XSIZE/2 + j*4);
 c0045f4:	e51b2024 	ldr	r2, [fp, #-36]	; 0xffffffdc
 c0045f8:	e51b3010 	ldr	r3, [fp, #-16]
 c0045fc:	e0822003 	add	r2, r2, r3
 c004600:	e1a03002 	mov	r3, r2
 c004604:	e1a03103 	lsl	r3, r3, #2
 c004608:	e0833002 	add	r3, r3, r2
 c00460c:	e1a03303 	lsl	r3, r3, #6
 c004610:	e1a020a3 	lsr	r2, r3, #1
 c004614:	e51b3014 	ldr	r3, [fp, #-20]	; 0xffffffec
 c004618:	e1a03103 	lsl	r3, r3, #2
 c00461c:	e0823003 	add	r3, r2, r3
 c004620:	e28336c3 	add	r3, r3, #204472320	; 0xc300000
 c004624:	e2833c96 	add	r3, r3, #38400	; 0x9600
 c004628:	e5933000 	ldr	r3, [r3]
 c00462c:	e50b3018 	str	r3, [fp, #-24]	; 0xffffffe8
			temp ^= 0xFFFFFFFF;
 c004630:	e51b3018 	ldr	r3, [fp, #-24]	; 0xffffffe8
 c004634:	e1e03003 	mvn	r3, r3
 c004638:	e50b3018 	str	r3, [fp, #-24]	; 0xffffffe8
			*(INT32U*)(LCD_VIRTUAL_BUFFER + (ulY+i)*SCR_XSIZE/2 + j*4) = temp;
 c00463c:	e51b2024 	ldr	r2, [fp, #-36]	; 0xffffffdc
 c004640:	e51b3010 	ldr	r3, [fp, #-16]
 c004644:	e0822003 	add	r2, r2, r3
 c004648:	e1a03002 	mov	r3, r2
 c00464c:	e1a03103 	lsl	r3, r3, #2
 c004650:	e0833002 	add	r3, r3, r2
 c004654:	e1a03303 	lsl	r3, r3, #6
 c004658:	e1a020a3 	lsr	r2, r3, #1
 c00465c:	e51b3014 	ldr	r3, [fp, #-20]	; 0xffffffec
 c004660:	e1a03103 	lsl	r3, r3, #2
 c004664:	e0823003 	add	r3, r2, r3
 c004668:	e28336c3 	add	r3, r3, #204472320	; 0xc300000
 c00466c:	e2833c96 	add	r3, r3, #38400	; 0x9600
 c004670:	e51b2018 	ldr	r2, [fp, #-24]	; 0xffffffe8
 c004674:	e5832000 	str	r2, [r3]
{
	INT32U i, j, temp;
	
	for( i = 0; i < ulHeight; i++ )
	{
		for( j = 0; j < (SCR_XSIZE/4/2) ; j++ )
 c004678:	e51b3014 	ldr	r3, [fp, #-20]	; 0xffffffec
 c00467c:	e2833001 	add	r3, r3, #1
 c004680:	e50b3014 	str	r3, [fp, #-20]	; 0xffffffec
 c004684:	e51b3014 	ldr	r3, [fp, #-20]	; 0xffffffec
 c004688:	e3530027 	cmp	r3, #39	; 0x27
 c00468c:	9affffd8 	bls	c0045f4 <ReverseLine+0x30>
*********************************************************************************************/
void ReverseLine(INT32U ulHeight, INT32U ulY)
{
	INT32U i, j, temp;
	
	for( i = 0; i < ulHeight; i++ )
 c004690:	e51b3010 	ldr	r3, [fp, #-16]
 c004694:	e2833001 	add	r3, r3, #1
 c004698:	e50b3010 	str	r3, [fp, #-16]
 c00469c:	e51b2010 	ldr	r2, [fp, #-16]
 c0046a0:	e51b3020 	ldr	r3, [fp, #-32]	; 0xffffffe0
 c0046a4:	e1520003 	cmp	r2, r3
 c0046a8:	3affffce 	bcc	c0045e8 <ReverseLine+0x24>
			temp = *(INT32U*)(LCD_VIRTUAL_BUFFER + (ulY+i)*SCR_XSIZE/2 + j*4);
			temp ^= 0xFFFFFFFF;
			*(INT32U*)(LCD_VIRTUAL_BUFFER + (ulY+i)*SCR_XSIZE/2 + j*4) = temp;
		}
	}
}
 c0046ac:	e24bd00c 	sub	sp, fp, #12
 c0046b0:	e89d6800 	ldm	sp, {fp, sp, lr}
 c0046b4:	e12fff1e 	bx	lr

0c0046b8 <Zdma0Done>:
* modify:
* comment:		
*********************************************************************************************/
volatile static INT8U ucZdma0Done=1;	//When DMA is finish,ucZdma0Done is cleared to Zero
void Zdma0Done(void)
{
 c0046b8:	e52dc004 	push	{ip}		; (str ip, [sp, #-4]!)
 c0046bc:	e1a0c00d 	mov	ip, sp
 c0046c0:	e92dd80c 	push	{r2, r3, fp, ip, lr, pc}
 c0046c4:	e24cb004 	sub	fp, ip, #4
	rI_ISPC=BIT_ZDMA0;	    //clear pending
 c0046c8:	e59f3020 	ldr	r3, [pc, #32]	; c0046f0 <Zdma0Done+0x38>
 c0046cc:	e3a02702 	mov	r2, #524288	; 0x80000
 c0046d0:	e5832000 	str	r2, [r3]
	ucZdma0Done=0;
 c0046d4:	e59f3018 	ldr	r3, [pc, #24]	; c0046f4 <Zdma0Done+0x3c>
 c0046d8:	e3a02000 	mov	r2, #0
 c0046dc:	e5c32000 	strb	r2, [r3]
}
 c0046e0:	e24bd014 	sub	sp, fp, #20
 c0046e4:	e89d680c 	ldm	sp, {r2, r3, fp, sp, lr}
 c0046e8:	e49dc004 	pop	{ip}		; (ldr ip, [sp], #4)
 c0046ec:	e25ef004 	subs	pc, lr, #4
 c0046f0:	01e00024 	.word	0x01e00024
 c0046f4:	0c0077cc 	.word	0x0c0077cc

0c0046f8 <Lcd_Dma_Trans>:
* ret:		none
* modify:
* comment:		
*********************************************************************************************/
void Lcd_Dma_Trans(void)
{
 c0046f8:	e1a0c00d 	mov	ip, sp
 c0046fc:	e92dd800 	push	{fp, ip, lr, pc}
 c004700:	e24cb004 	sub	fp, ip, #4
	INT8U err;
	
	ucZdma0Done=1;
 c004704:	e59f3078 	ldr	r3, [pc, #120]	; c004784 <Lcd_Dma_Trans+0x8c>
 c004708:	e3a02001 	mov	r2, #1
 c00470c:	e5c32000 	strb	r2, [r3]
	//#define LCD_VIRTUAL_BUFFER	(0xc400000)
	//#define LCD_ACTIVE_BUFFER	(LCD_VIRTUAL_BUFFER+(SCR_XSIZE*SCR_YSIZE/2))	//DMA ON
	//#define LCD_ACTIVE_BUFFER	LCD_VIRTUAL_BUFFER								//DMA OFF
	//#define LCD_BUF_SIZE		(SCR_XSIZE*SCR_YSIZE/2)
	//So the Lcd Buffer Low area is from LCD_VIRTUAL_BUFFER to (LCD_ACTIVE_BUFFER+(SCR_XSIZE*SCR_YSIZE/2))
	rNCACHBE1=(((unsigned)(LCD_ACTIVE_BUFFER)>>12) <<16 )|((unsigned)(LCD_VIRTUAL_BUFFER)>>12);
 c004710:	e59f3070 	ldr	r3, [pc, #112]	; c004788 <Lcd_Dma_Trans+0x90>
 c004714:	e59f2070 	ldr	r2, [pc, #112]	; c00478c <Lcd_Dma_Trans+0x94>
 c004718:	e5832000 	str	r2, [r3]
  	rZDISRC0=(DW<<30)|(1<<28)     |LCD_VIRTUAL_BUFFER; // inc
 c00471c:	e59f306c 	ldr	r3, [pc, #108]	; c004790 <Lcd_Dma_Trans+0x98>
 c004720:	e59f206c 	ldr	r2, [pc, #108]	; c004794 <Lcd_Dma_Trans+0x9c>
 c004724:	e5832000 	str	r2, [r3]
  	rZDIDES0=( 2<<30)|(1<<28)     |LCD_ACTIVE_BUFFER; // inc
 c004728:	e59f3068 	ldr	r3, [pc, #104]	; c004798 <Lcd_Dma_Trans+0xa0>
 c00472c:	e59f2068 	ldr	r2, [pc, #104]	; c00479c <Lcd_Dma_Trans+0xa4>
 c004730:	e5832000 	str	r2, [r3]
    rZDICNT0=( 2<<28)|(1<<26)     |(3<<22)     |(0<<20)      |(LCD_BUF_SIZE);
 c004734:	e59f3064 	ldr	r3, [pc, #100]	; c0047a0 <Lcd_Dma_Trans+0xa8>
 c004738:	e59f2064 	ldr	r2, [pc, #100]	; c0047a4 <Lcd_Dma_Trans+0xac>
 c00473c:	e5832000 	str	r2, [r3]
        //           |            |            |             |------------>Int. whenever transferred
        //           |            |            |-------------------->Write time on the fly
        //           |            |---------------------------->Block(4-word) transfer mode
        //           |------------------------------------>whole service
	    //reEnable ZDMA transfer
  	rZDICNT0 |= (1<<20);		//after ES3
 c004740:	e59f3058 	ldr	r3, [pc, #88]	; c0047a0 <Lcd_Dma_Trans+0xa8>
 c004744:	e59f2054 	ldr	r2, [pc, #84]	; c0047a0 <Lcd_Dma_Trans+0xa8>
 c004748:	e5922000 	ldr	r2, [r2]
 c00474c:	e3822601 	orr	r2, r2, #1048576	; 0x100000
 c004750:	e5832000 	str	r2, [r3]
    rZDCON0=0x1; // start!!!  
 c004754:	e3a0377a 	mov	r3, #31981568	; 0x1e80000
 c004758:	e3a02001 	mov	r2, #1
 c00475c:	e5832000 	str	r2, [r3]

	//Delay(500);
	while(ucZdma0Done);		//wait for DMA finish
 c004760:	e1a00000 	nop			; (mov r0, r0)
 c004764:	e59f3018 	ldr	r3, [pc, #24]	; c004784 <Lcd_Dma_Trans+0x8c>
 c004768:	e5d33000 	ldrb	r3, [r3]
 c00476c:	e20330ff 	and	r3, r3, #255	; 0xff
 c004770:	e3530000 	cmp	r3, #0
 c004774:	1afffffa 	bne	c004764 <Lcd_Dma_Trans+0x6c>
}
 c004778:	e24bd00c 	sub	sp, fp, #12
 c00477c:	e89d6800 	ldm	sp, {fp, sp, lr}
 c004780:	e12fff1e 	bx	lr
 c004784:	0c0077cc 	.word	0x0c0077cc
 c004788:	01c00008 	.word	0x01c00008
 c00478c:	c300c309 	.word	0xc300c309
 c004790:	01e80004 	.word	0x01e80004
 c004794:	1c309600 	.word	0x1c309600
 c004798:	01e80008 	.word	0x01e80008
 c00479c:	9c300000 	.word	0x9c300000
 c0047a0:	01e8000c 	.word	0x01e8000c
 c0047a4:	24c09600 	.word	0x24c09600

0c0047a8 <Lcd_Test>:
* ret:		none
* modify:
* comment:		
*********************************************************************************************/
void Lcd_Test(void)
{
 c0047a8:	e1a0c00d 	mov	ip, sp
 c0047ac:	e92dd800 	push	{fp, ip, lr, pc}
 c0047b0:	e24cb004 	sub	fp, ip, #4
 c0047b4:	e24dd008 	sub	sp, sp, #8
	/* initial LCD controller */
	Lcd_Init();
 c0047b8:	ebfff851 	bl	c002904 <Lcd_Init>
	/* clear screen */
	Lcd_Clr();
 c0047bc:	ebfff903 	bl	c002bd0 <Lcd_Clr>
	Lcd_Active_Clr();
 c0047c0:	ebfff8b4 	bl	c002a98 <Lcd_Active_Clr>
    #ifdef Eng_v // english version
	Lcd_DspAscII8x16(10,0,DARKGRAY,"Embest S3CEV40 ");
	#else
//	Lcd_DspHz16(10,0,DARKGRAY,"");
	#endif
	Lcd_DspAscII8x16(10,20,BLACK,"Codigo del puesto: ");
 c0047c4:	e3a0000a 	mov	r0, #10
 c0047c8:	e3a01014 	mov	r1, #20
 c0047cc:	e3a0200f 	mov	r2, #15
 c0047d0:	e59f31a0 	ldr	r3, [pc, #416]	; c004978 <Lcd_Test+0x1d0>
 c0047d4:	ebfffe44 	bl	c0040ec <Lcd_DspAscII8x16>
	Lcd_Draw_Box(10,40,310,230,14);
 c0047d8:	e3a0300e 	mov	r3, #14
 c0047dc:	e58d3000 	str	r3, [sp]
 c0047e0:	e3a0000a 	mov	r0, #10
 c0047e4:	e3a01028 	mov	r1, #40	; 0x28
 c0047e8:	e59f218c 	ldr	r2, [pc, #396]	; c00497c <Lcd_Test+0x1d4>
 c0047ec:	e3a030e6 	mov	r3, #230	; 0xe6
 c0047f0:	ebfffaa5 	bl	c00328c <Lcd_Draw_Box>
	Lcd_Draw_Box(20,45,300,225,13);
 c0047f4:	e3a0300d 	mov	r3, #13
 c0047f8:	e58d3000 	str	r3, [sp]
 c0047fc:	e3a00014 	mov	r0, #20
 c004800:	e3a0102d 	mov	r1, #45	; 0x2d
 c004804:	e3a02f4b 	mov	r2, #300	; 0x12c
 c004808:	e3a030e1 	mov	r3, #225	; 0xe1
 c00480c:	ebfffa9e 	bl	c00328c <Lcd_Draw_Box>
	Lcd_Draw_Box(30,50,290,220,12);
 c004810:	e3a0300c 	mov	r3, #12
 c004814:	e58d3000 	str	r3, [sp]
 c004818:	e3a0001e 	mov	r0, #30
 c00481c:	e3a01032 	mov	r1, #50	; 0x32
 c004820:	e59f2158 	ldr	r2, [pc, #344]	; c004980 <Lcd_Test+0x1d8>
 c004824:	e3a030dc 	mov	r3, #220	; 0xdc
 c004828:	ebfffa97 	bl	c00328c <Lcd_Draw_Box>
	Lcd_Draw_Box(40,55,280,215,11);
 c00482c:	e3a0300b 	mov	r3, #11
 c004830:	e58d3000 	str	r3, [sp]
 c004834:	e3a00028 	mov	r0, #40	; 0x28
 c004838:	e3a01037 	mov	r1, #55	; 0x37
 c00483c:	e3a02f46 	mov	r2, #280	; 0x118
 c004840:	e3a030d7 	mov	r3, #215	; 0xd7
 c004844:	ebfffa90 	bl	c00328c <Lcd_Draw_Box>
	Lcd_Draw_Box(50,60,270,210,10);
 c004848:	e3a0300a 	mov	r3, #10
 c00484c:	e58d3000 	str	r3, [sp]
 c004850:	e3a00032 	mov	r0, #50	; 0x32
 c004854:	e3a0103c 	mov	r1, #60	; 0x3c
 c004858:	e59f2124 	ldr	r2, [pc, #292]	; c004984 <Lcd_Test+0x1dc>
 c00485c:	e3a030d2 	mov	r3, #210	; 0xd2
 c004860:	ebfffa89 	bl	c00328c <Lcd_Draw_Box>
	Lcd_Draw_Box(60,65,260,205,9);
 c004864:	e3a03009 	mov	r3, #9
 c004868:	e58d3000 	str	r3, [sp]
 c00486c:	e3a0003c 	mov	r0, #60	; 0x3c
 c004870:	e3a01041 	mov	r1, #65	; 0x41
 c004874:	e3a02f41 	mov	r2, #260	; 0x104
 c004878:	e3a030cd 	mov	r3, #205	; 0xcd
 c00487c:	ebfffa82 	bl	c00328c <Lcd_Draw_Box>
	Lcd_Draw_Box(70,70,250,200,8);
 c004880:	e3a03008 	mov	r3, #8
 c004884:	e58d3000 	str	r3, [sp]
 c004888:	e3a00046 	mov	r0, #70	; 0x46
 c00488c:	e3a01046 	mov	r1, #70	; 0x46
 c004890:	e3a020fa 	mov	r2, #250	; 0xfa
 c004894:	e3a030c8 	mov	r3, #200	; 0xc8
 c004898:	ebfffa7b 	bl	c00328c <Lcd_Draw_Box>
	Lcd_Draw_Box(80,75,240,195,7);
 c00489c:	e3a03007 	mov	r3, #7
 c0048a0:	e58d3000 	str	r3, [sp]
 c0048a4:	e3a00050 	mov	r0, #80	; 0x50
 c0048a8:	e3a0104b 	mov	r1, #75	; 0x4b
 c0048ac:	e3a020f0 	mov	r2, #240	; 0xf0
 c0048b0:	e3a030c3 	mov	r3, #195	; 0xc3
 c0048b4:	ebfffa74 	bl	c00328c <Lcd_Draw_Box>
	Lcd_Draw_Box(90,80,230,190,6);
 c0048b8:	e3a03006 	mov	r3, #6
 c0048bc:	e58d3000 	str	r3, [sp]
 c0048c0:	e3a0005a 	mov	r0, #90	; 0x5a
 c0048c4:	e3a01050 	mov	r1, #80	; 0x50
 c0048c8:	e3a020e6 	mov	r2, #230	; 0xe6
 c0048cc:	e3a030be 	mov	r3, #190	; 0xbe
 c0048d0:	ebfffa6d 	bl	c00328c <Lcd_Draw_Box>
	Lcd_Draw_Box(100,85,220,185,5);
 c0048d4:	e3a03005 	mov	r3, #5
 c0048d8:	e58d3000 	str	r3, [sp]
 c0048dc:	e3a00064 	mov	r0, #100	; 0x64
 c0048e0:	e3a01055 	mov	r1, #85	; 0x55
 c0048e4:	e3a020dc 	mov	r2, #220	; 0xdc
 c0048e8:	e3a030b9 	mov	r3, #185	; 0xb9
 c0048ec:	ebfffa66 	bl	c00328c <Lcd_Draw_Box>
	Lcd_Draw_Box(110,90,210,180,4);
 c0048f0:	e3a03004 	mov	r3, #4
 c0048f4:	e58d3000 	str	r3, [sp]
 c0048f8:	e3a0006e 	mov	r0, #110	; 0x6e
 c0048fc:	e3a0105a 	mov	r1, #90	; 0x5a
 c004900:	e3a020d2 	mov	r2, #210	; 0xd2
 c004904:	e3a030b4 	mov	r3, #180	; 0xb4
 c004908:	ebfffa5f 	bl	c00328c <Lcd_Draw_Box>
	Lcd_Draw_Box(120,95,200,175,3);
 c00490c:	e3a03003 	mov	r3, #3
 c004910:	e58d3000 	str	r3, [sp]
 c004914:	e3a00078 	mov	r0, #120	; 0x78
 c004918:	e3a0105f 	mov	r1, #95	; 0x5f
 c00491c:	e3a020c8 	mov	r2, #200	; 0xc8
 c004920:	e3a030af 	mov	r3, #175	; 0xaf
 c004924:	ebfffa58 	bl	c00328c <Lcd_Draw_Box>
	Lcd_Draw_Box(130,100,190,170,2);
 c004928:	e3a03002 	mov	r3, #2
 c00492c:	e58d3000 	str	r3, [sp]
 c004930:	e3a00082 	mov	r0, #130	; 0x82
 c004934:	e3a01064 	mov	r1, #100	; 0x64
 c004938:	e3a020be 	mov	r2, #190	; 0xbe
 c00493c:	e3a030aa 	mov	r3, #170	; 0xaa
 c004940:	ebfffa51 	bl	c00328c <Lcd_Draw_Box>
	BitmapView(125,135,Stru_Bitmap_gbMouse);
 c004944:	e59f303c 	ldr	r3, [pc, #60]	; c004988 <Lcd_Test+0x1e0>
 c004948:	e1a0200d 	mov	r2, sp
 c00494c:	e2831008 	add	r1, r3, #8
 c004950:	e8910003 	ldm	r1, {r0, r1}
 c004954:	e8820003 	stm	r2, {r0, r1}
 c004958:	e893000c 	ldm	r3, {r2, r3}
 c00495c:	e3a0007d 	mov	r0, #125	; 0x7d
 c004960:	e3a01087 	mov	r1, #135	; 0x87
 c004964:	ebfff1b5 	bl	c001040 <BitmapView>
	Lcd_Dma_Trans();
 c004968:	ebffff62 	bl	c0046f8 <Lcd_Dma_Trans>

}
 c00496c:	e24bd00c 	sub	sp, fp, #12
 c004970:	e89d6800 	ldm	sp, {fp, sp, lr}
 c004974:	e12fff1e 	bx	lr
 c004978:	0c009a74 	.word	0x0c009a74
 c00497c:	00000136 	.word	0x00000136
 c004980:	00000122 	.word	0x00000122
 c004984:	0000010e 	.word	0x0000010e
 c004988:	0c0077b8 	.word	0x0c0077b8

0c00498c <leds_on>:
/*--- variables globales del mdulo ---*/
static int led_state = 0;		/* estado del LED */

/*--- cdigo de las funciones pblicas ---*/
void leds_on()
{
 c00498c:	e1a0c00d 	mov	ip, sp
 c004990:	e92dd800 	push	{fp, ip, lr, pc}
 c004994:	e24cb004 	sub	fp, ip, #4
	Led_Display(0x3);
 c004998:	e3a00003 	mov	r0, #3
 c00499c:	eb00005a 	bl	c004b0c <Led_Display>
}
 c0049a0:	e24bd00c 	sub	sp, fp, #12
 c0049a4:	e89d6800 	ldm	sp, {fp, sp, lr}
 c0049a8:	e12fff1e 	bx	lr

0c0049ac <leds_off>:

void leds_off()
{
 c0049ac:	e1a0c00d 	mov	ip, sp
 c0049b0:	e92dd800 	push	{fp, ip, lr, pc}
 c0049b4:	e24cb004 	sub	fp, ip, #4
	Led_Display(0x0);
 c0049b8:	e3a00000 	mov	r0, #0
 c0049bc:	eb000052 	bl	c004b0c <Led_Display>
}
 c0049c0:	e24bd00c 	sub	sp, fp, #12
 c0049c4:	e89d6800 	ldm	sp, {fp, sp, lr}
 c0049c8:	e12fff1e 	bx	lr

0c0049cc <led1_on>:

void led1_on()
{
 c0049cc:	e1a0c00d 	mov	ip, sp
 c0049d0:	e92dd800 	push	{fp, ip, lr, pc}
 c0049d4:	e24cb004 	sub	fp, ip, #4
	led_state = led_state | 0x1;
 c0049d8:	e59f3028 	ldr	r3, [pc, #40]	; c004a08 <led1_on+0x3c>
 c0049dc:	e5933000 	ldr	r3, [r3]
 c0049e0:	e3832001 	orr	r2, r3, #1
 c0049e4:	e59f301c 	ldr	r3, [pc, #28]	; c004a08 <led1_on+0x3c>
 c0049e8:	e5832000 	str	r2, [r3]
	Led_Display(led_state);
 c0049ec:	e59f3014 	ldr	r3, [pc, #20]	; c004a08 <led1_on+0x3c>
 c0049f0:	e5933000 	ldr	r3, [r3]
 c0049f4:	e1a00003 	mov	r0, r3
 c0049f8:	eb000043 	bl	c004b0c <Led_Display>
}
 c0049fc:	e24bd00c 	sub	sp, fp, #12
 c004a00:	e89d6800 	ldm	sp, {fp, sp, lr}
 c004a04:	e12fff1e 	bx	lr
 c004a08:	0c009ae0 	.word	0x0c009ae0

0c004a0c <led1_off>:

void led1_off()
{
 c004a0c:	e1a0c00d 	mov	ip, sp
 c004a10:	e92dd800 	push	{fp, ip, lr, pc}
 c004a14:	e24cb004 	sub	fp, ip, #4
	led_state = led_state & 0xfe;
 c004a18:	e59f3028 	ldr	r3, [pc, #40]	; c004a48 <led1_off+0x3c>
 c004a1c:	e5933000 	ldr	r3, [r3]
 c004a20:	e20320fe 	and	r2, r3, #254	; 0xfe
 c004a24:	e59f301c 	ldr	r3, [pc, #28]	; c004a48 <led1_off+0x3c>
 c004a28:	e5832000 	str	r2, [r3]
	Led_Display(led_state);
 c004a2c:	e59f3014 	ldr	r3, [pc, #20]	; c004a48 <led1_off+0x3c>
 c004a30:	e5933000 	ldr	r3, [r3]
 c004a34:	e1a00003 	mov	r0, r3
 c004a38:	eb000033 	bl	c004b0c <Led_Display>
}
 c004a3c:	e24bd00c 	sub	sp, fp, #12
 c004a40:	e89d6800 	ldm	sp, {fp, sp, lr}
 c004a44:	e12fff1e 	bx	lr
 c004a48:	0c009ae0 	.word	0x0c009ae0

0c004a4c <led2_on>:

void led2_on()
{
 c004a4c:	e1a0c00d 	mov	ip, sp
 c004a50:	e92dd800 	push	{fp, ip, lr, pc}
 c004a54:	e24cb004 	sub	fp, ip, #4
	led_state = led_state | 0x2;
 c004a58:	e59f3028 	ldr	r3, [pc, #40]	; c004a88 <led2_on+0x3c>
 c004a5c:	e5933000 	ldr	r3, [r3]
 c004a60:	e3832002 	orr	r2, r3, #2
 c004a64:	e59f301c 	ldr	r3, [pc, #28]	; c004a88 <led2_on+0x3c>
 c004a68:	e5832000 	str	r2, [r3]
	Led_Display(led_state);
 c004a6c:	e59f3014 	ldr	r3, [pc, #20]	; c004a88 <led2_on+0x3c>
 c004a70:	e5933000 	ldr	r3, [r3]
 c004a74:	e1a00003 	mov	r0, r3
 c004a78:	eb000023 	bl	c004b0c <Led_Display>
}
 c004a7c:	e24bd00c 	sub	sp, fp, #12
 c004a80:	e89d6800 	ldm	sp, {fp, sp, lr}
 c004a84:	e12fff1e 	bx	lr
 c004a88:	0c009ae0 	.word	0x0c009ae0

0c004a8c <led2_off>:

void led2_off()
{
 c004a8c:	e1a0c00d 	mov	ip, sp
 c004a90:	e92dd800 	push	{fp, ip, lr, pc}
 c004a94:	e24cb004 	sub	fp, ip, #4
	led_state = led_state & 0xfd;
 c004a98:	e59f3028 	ldr	r3, [pc, #40]	; c004ac8 <led2_off+0x3c>
 c004a9c:	e5933000 	ldr	r3, [r3]
 c004aa0:	e20320fd 	and	r2, r3, #253	; 0xfd
 c004aa4:	e59f301c 	ldr	r3, [pc, #28]	; c004ac8 <led2_off+0x3c>
 c004aa8:	e5832000 	str	r2, [r3]
	Led_Display(led_state);
 c004aac:	e59f3014 	ldr	r3, [pc, #20]	; c004ac8 <led2_off+0x3c>
 c004ab0:	e5933000 	ldr	r3, [r3]
 c004ab4:	e1a00003 	mov	r0, r3
 c004ab8:	eb000013 	bl	c004b0c <Led_Display>
}
 c004abc:	e24bd00c 	sub	sp, fp, #12
 c004ac0:	e89d6800 	ldm	sp, {fp, sp, lr}
 c004ac4:	e12fff1e 	bx	lr
 c004ac8:	0c009ae0 	.word	0x0c009ae0

0c004acc <leds_switch>:

void leds_switch()
{
 c004acc:	e1a0c00d 	mov	ip, sp
 c004ad0:	e92dd800 	push	{fp, ip, lr, pc}
 c004ad4:	e24cb004 	sub	fp, ip, #4
	led_state ^= 0x03;
 c004ad8:	e59f3028 	ldr	r3, [pc, #40]	; c004b08 <leds_switch+0x3c>
 c004adc:	e5933000 	ldr	r3, [r3]
 c004ae0:	e2232003 	eor	r2, r3, #3
 c004ae4:	e59f301c 	ldr	r3, [pc, #28]	; c004b08 <leds_switch+0x3c>
 c004ae8:	e5832000 	str	r2, [r3]
	Led_Display(led_state);
 c004aec:	e59f3014 	ldr	r3, [pc, #20]	; c004b08 <leds_switch+0x3c>
 c004af0:	e5933000 	ldr	r3, [r3]
 c004af4:	e1a00003 	mov	r0, r3
 c004af8:	eb000003 	bl	c004b0c <Led_Display>

}
 c004afc:	e24bd00c 	sub	sp, fp, #12
 c004b00:	e89d6800 	ldm	sp, {fp, sp, lr}
 c004b04:	e12fff1e 	bx	lr
 c004b08:	0c009ae0 	.word	0x0c009ae0

0c004b0c <Led_Display>:

void Led_Display(int LedStatus)
{
 c004b0c:	e1a0c00d 	mov	ip, sp
 c004b10:	e92dd800 	push	{fp, ip, lr, pc}
 c004b14:	e24cb004 	sub	fp, ip, #4
 c004b18:	e24dd008 	sub	sp, sp, #8
 c004b1c:	e50b0010 	str	r0, [fp, #-16]
	led_state = LedStatus;
 c004b20:	e59f3094 	ldr	r3, [pc, #148]	; c004bbc <Led_Display+0xb0>
 c004b24:	e51b2010 	ldr	r2, [fp, #-16]
 c004b28:	e5832000 	str	r2, [r3]

	if ((LedStatus & 0x01) == 0x01)
 c004b2c:	e51b3010 	ldr	r3, [fp, #-16]
 c004b30:	e2033001 	and	r3, r3, #1
 c004b34:	e20330ff 	and	r3, r3, #255	; 0xff
 c004b38:	e3530000 	cmp	r3, #0
 c004b3c:	0a000006 	beq	c004b5c <Led_Display+0x50>
		rPDATB = rPDATB & 0x5ff; /* poner a 0 el bit 9 del puerto B */
 c004b40:	e59f2078 	ldr	r2, [pc, #120]	; c004bc0 <Led_Display+0xb4>
 c004b44:	e59f3074 	ldr	r3, [pc, #116]	; c004bc0 <Led_Display+0xb4>
 c004b48:	e5931000 	ldr	r1, [r3]
 c004b4c:	e59f3070 	ldr	r3, [pc, #112]	; c004bc4 <Led_Display+0xb8>
 c004b50:	e0013003 	and	r3, r1, r3
 c004b54:	e5823000 	str	r3, [r2]
 c004b58:	ea000004 	b	c004b70 <Led_Display+0x64>
	else
		rPDATB = rPDATB | 0x200; /* poner a 1 el bit 9 del puerto B */
 c004b5c:	e59f305c 	ldr	r3, [pc, #92]	; c004bc0 <Led_Display+0xb4>
 c004b60:	e59f2058 	ldr	r2, [pc, #88]	; c004bc0 <Led_Display+0xb4>
 c004b64:	e5922000 	ldr	r2, [r2]
 c004b68:	e3822c02 	orr	r2, r2, #512	; 0x200
 c004b6c:	e5832000 	str	r2, [r3]

	if ((LedStatus & 0x02) == 0x02)
 c004b70:	e51b3010 	ldr	r3, [fp, #-16]
 c004b74:	e2033002 	and	r3, r3, #2
 c004b78:	e3530000 	cmp	r3, #0
 c004b7c:	0a000006 	beq	c004b9c <Led_Display+0x90>
		rPDATB = rPDATB & 0x3ff; /* poner a 0 el bit 10 del puerto B */
 c004b80:	e59f2038 	ldr	r2, [pc, #56]	; c004bc0 <Led_Display+0xb4>
 c004b84:	e59f3034 	ldr	r3, [pc, #52]	; c004bc0 <Led_Display+0xb4>
 c004b88:	e5933000 	ldr	r3, [r3]
 c004b8c:	e1a03b03 	lsl	r3, r3, #22
 c004b90:	e1a03b23 	lsr	r3, r3, #22
 c004b94:	e5823000 	str	r3, [r2]
 c004b98:	ea000004 	b	c004bb0 <Led_Display+0xa4>
	else
		rPDATB = rPDATB | 0x400; /* poner a 1 el bit 10 del puerto B */
 c004b9c:	e59f301c 	ldr	r3, [pc, #28]	; c004bc0 <Led_Display+0xb4>
 c004ba0:	e59f2018 	ldr	r2, [pc, #24]	; c004bc0 <Led_Display+0xb4>
 c004ba4:	e5922000 	ldr	r2, [r2]
 c004ba8:	e3822b01 	orr	r2, r2, #1024	; 0x400
 c004bac:	e5832000 	str	r2, [r3]
 c004bb0:	e24bd00c 	sub	sp, fp, #12
 c004bb4:	e89d6800 	ldm	sp, {fp, sp, lr}
 c004bb8:	e12fff1e 	bx	lr
 c004bbc:	0c009ae0 	.word	0x0c009ae0
 c004bc0:	01d2000c 	.word	0x01d2000c
 c004bc4:	000005ff 	.word	0x000005ff

0c004bc8 <Main>:
* ret:		none
* modify:
* comment:	Descomenta el bloque que quieras ejecutar (TOUCHSCREEN o SUDOKU)
*********************************************************************************************/
void Main(void)
{
 c004bc8:	e1a0c00d 	mov	ip, sp
 c004bcc:	e92dd800 	push	{fp, ip, lr, pc}
 c004bd0:	e24cb004 	sub	fp, ip, #4
 c004bd4:	e24dd008 	sub	sp, sp, #8
    sys_init();        /* Initial 44B0X's Interrupt, Port and UART */
 c004bd8:	ebfff0de 	bl	c000f58 <sys_init>
    
    /* Variables para observar la cola durante la depuracin */
    ColaDebug* p_cola;              // Puntero a la estructura completa de la cola
    
    /* Inicializa controladores del Sudoku */
    timer2_init();      // Inicializacion del timer2 para medicion de tiempo
 c004bdc:	eb0002f0 	bl	c0057a4 <timer2_init>
    timer1_init();      // Inicializacion del timer1 para latido (heartbeat) - Paso 6
 c004be0:	eb000299 	bl	c00564c <timer1_init>
    cola_init();        // Inicializacion de la cola de depuracion (Paso 4)
 c004be4:	ebfff587 	bl	c002208 <cola_init>
    Eint4567_init();    // inicializamos los pulsadores. Cada vez que se pulse se ver reflejado en el 8led
 c004be8:	ebfff54a 	bl	c002118 <Eint4567_init>
    D8Led_init();       // inicializamos el 8led
 c004bec:	ebfff0f5 	bl	c000fc8 <D8Led_init>

    /* Valor inicial de los leds */
    leds_off();
 c004bf0:	ebffff6d 	bl	c0049ac <leds_off>
    
    /* Apuntar a la cola para poder observarla en el depurador */
    p_cola = cola_global;
 c004bf4:	e59f3008 	ldr	r3, [pc, #8]	; c004c04 <Main+0x3c>
 c004bf8:	e5933000 	ldr	r3, [r3]
 c004bfc:	e50b3010 	str	r3, [fp, #-16]
    /* Bucle principal */
    while (1)
    {
        /* El latido (LED2 parpadeando) se gestiona automticamente por timer1 */
        /* El programa est vivo mientras el LED2 parpadee a 6 Hz */
    }
 c004c00:	eafffffe 	b	c004c00 <Main+0x38>
 c004c04:	0c0077c8 	.word	0x0c0077c8

0c004c08 <celda_eliminar_candidato>:
	
	/* *****************************************************************************
	 * elimina el candidato del valor almacenado en la celda indicada */
	__inline static void
	celda_eliminar_candidato(CELDA *celdaptr, uint8_t valor)
	{
 c004c08:	e1a0c00d 	mov	ip, sp
 c004c0c:	e92dd800 	push	{fp, ip, lr, pc}
 c004c10:	e24cb004 	sub	fp, ip, #4
 c004c14:	e24dd008 	sub	sp, sp, #8
 c004c18:	e50b0010 	str	r0, [fp, #-16]
 c004c1c:	e1a03001 	mov	r3, r1
 c004c20:	e54b3011 	strb	r3, [fp, #-17]	; 0xffffffef
		*celdaptr = *celdaptr | (0x0001 << (BIT_CANDIDATOS + valor - 1));
 c004c24:	e51b3010 	ldr	r3, [fp, #-16]
 c004c28:	e1d330b0 	ldrh	r3, [r3]
 c004c2c:	e1a03803 	lsl	r3, r3, #16
 c004c30:	e1a02823 	lsr	r2, r3, #16
 c004c34:	e55b3011 	ldrb	r3, [fp, #-17]	; 0xffffffef
 c004c38:	e2833006 	add	r3, r3, #6
 c004c3c:	e3a01001 	mov	r1, #1
 c004c40:	e1a03311 	lsl	r3, r1, r3
 c004c44:	e1a03803 	lsl	r3, r3, #16
 c004c48:	e1a03823 	lsr	r3, r3, #16
 c004c4c:	e1823003 	orr	r3, r2, r3
 c004c50:	e1a03803 	lsl	r3, r3, #16
 c004c54:	e1a03823 	lsr	r3, r3, #16
 c004c58:	e1a03803 	lsl	r3, r3, #16
 c004c5c:	e1a02823 	lsr	r2, r3, #16
 c004c60:	e51b3010 	ldr	r3, [fp, #-16]
 c004c64:	e1c320b0 	strh	r2, [r3]
	}
 c004c68:	e24bd00c 	sub	sp, fp, #12
 c004c6c:	e89d6800 	ldm	sp, {fp, sp, lr}
 c004c70:	e12fff1e 	bx	lr

0c004c74 <celda_leer_valor>:
	
	/* *****************************************************************************
	 * extrae el valor almacenado en los 16 bits de una celda */
        __inline static uint8_t
        celda_leer_valor(CELDA celda)
        {
 c004c74:	e1a0c00d 	mov	ip, sp
 c004c78:	e92dd800 	push	{fp, ip, lr, pc}
 c004c7c:	e24cb004 	sub	fp, ip, #4
 c004c80:	e24dd008 	sub	sp, sp, #8
 c004c84:	e1a03000 	mov	r3, r0
 c004c88:	e14b30be 	strh	r3, [fp, #-14]
                return (celda & 0x000F);
 c004c8c:	e15b30be 	ldrh	r3, [fp, #-14]
 c004c90:	e20330ff 	and	r3, r3, #255	; 0xff
 c004c94:	e203300f 	and	r3, r3, #15
 c004c98:	e20330ff 	and	r3, r3, #255	; 0xff
        }
 c004c9c:	e1a00003 	mov	r0, r3
 c004ca0:	e24bd00c 	sub	sp, fp, #12
 c004ca4:	e89d6800 	ldm	sp, {fp, sp, lr}
 c004ca8:	e12fff1e 	bx	lr

0c004cac <candidatos_propagar_c>:
/* Recibe como parmetro la cuadrcula, y la fila y columna de
 * la celda a propagar; no devuelve nada
 */
void candidatos_propagar_c(CELDA cuadricula[NUM_FILAS][NUM_COLUMNAS],
                             uint8_t fila, uint8_t columna)
{
 c004cac:	e1a0c00d 	mov	ip, sp
 c004cb0:	e92dd800 	push	{fp, ip, lr, pc}
 c004cb4:	e24cb004 	sub	fp, ip, #4
 c004cb8:	e24dd018 	sub	sp, sp, #24
 c004cbc:	e50b0020 	str	r0, [fp, #-32]	; 0xffffffe0
 c004cc0:	e1a03002 	mov	r3, r2
 c004cc4:	e1a02001 	mov	r2, r1
 c004cc8:	e54b2021 	strb	r2, [fp, #-33]	; 0xffffffdf
 c004ccc:	e54b3022 	strb	r3, [fp, #-34]	; 0xffffffde
	uint8_t j, i , init_i, init_j;
    /* puede ayudar esta "look up table" a mejorar el rendimiento */
    const uint8_t init_region[NUM_FILAS] = {0, 0, 0, 3, 3, 3, 6, 6, 6};
 c004cd0:	e59f21a4 	ldr	r2, [pc, #420]	; c004e7c <candidatos_propagar_c+0x1d0>
 c004cd4:	e24b301c 	sub	r3, fp, #28
 c004cd8:	e8920007 	ldm	r2, {r0, r1, r2}
 c004cdc:	e8a30003 	stmia	r3!, {r0, r1}
 c004ce0:	e5c32000 	strb	r2, [r3]

    /* valor que se propaga */
    uint8_t valor = celda_leer_valor(cuadricula[fila][columna]);
 c004ce4:	e55b3021 	ldrb	r3, [fp, #-33]	; 0xffffffdf
 c004ce8:	e1a03283 	lsl	r3, r3, #5
 c004cec:	e51b2020 	ldr	r2, [fp, #-32]	; 0xffffffe0
 c004cf0:	e0822003 	add	r2, r2, r3
 c004cf4:	e55b3022 	ldrb	r3, [fp, #-34]	; 0xffffffde
 c004cf8:	e1a03083 	lsl	r3, r3, #1
 c004cfc:	e0823003 	add	r3, r2, r3
 c004d00:	e1d330b0 	ldrh	r3, [r3]
 c004d04:	e1a00003 	mov	r0, r3
 c004d08:	ebffffd9 	bl	c004c74 <celda_leer_valor>
 c004d0c:	e1a03000 	mov	r3, r0
 c004d10:	e54b300f 	strb	r3, [fp, #-15]

    /* recorrer fila descartando valor de listas candidatos (incluyendo la celda origen) */
    for (j = 0; j < NUM_FILAS; j++) {
 c004d14:	e3a03000 	mov	r3, #0
 c004d18:	e54b300d 	strb	r3, [fp, #-13]
 c004d1c:	ea00000d 	b	c004d58 <candidatos_propagar_c+0xac>
        celda_eliminar_candidato(&cuadricula[fila][j], valor);
 c004d20:	e51b2020 	ldr	r2, [fp, #-32]	; 0xffffffe0
 c004d24:	e55b3021 	ldrb	r3, [fp, #-33]	; 0xffffffdf
 c004d28:	e1a01203 	lsl	r1, r3, #4
 c004d2c:	e55b300d 	ldrb	r3, [fp, #-13]
 c004d30:	e0813003 	add	r3, r1, r3
 c004d34:	e1a03083 	lsl	r3, r3, #1
 c004d38:	e0822003 	add	r2, r2, r3
 c004d3c:	e55b300f 	ldrb	r3, [fp, #-15]
 c004d40:	e1a00002 	mov	r0, r2
 c004d44:	e1a01003 	mov	r1, r3
 c004d48:	ebffffae 	bl	c004c08 <celda_eliminar_candidato>

    /* valor que se propaga */
    uint8_t valor = celda_leer_valor(cuadricula[fila][columna]);

    /* recorrer fila descartando valor de listas candidatos (incluyendo la celda origen) */
    for (j = 0; j < NUM_FILAS; j++) {
 c004d4c:	e55b300d 	ldrb	r3, [fp, #-13]
 c004d50:	e2833001 	add	r3, r3, #1
 c004d54:	e54b300d 	strb	r3, [fp, #-13]
 c004d58:	e55b300d 	ldrb	r3, [fp, #-13]
 c004d5c:	e3530008 	cmp	r3, #8
 c004d60:	9affffee 	bls	c004d20 <candidatos_propagar_c+0x74>
        celda_eliminar_candidato(&cuadricula[fila][j], valor);
    }

    /* recorrer columna descartando valor de listas candidatos (incluyendo la celda origen) */
    for (i = 0; i < NUM_FILAS; i++) {
 c004d64:	e3a03000 	mov	r3, #0
 c004d68:	e54b300e 	strb	r3, [fp, #-14]
 c004d6c:	ea00000d 	b	c004da8 <candidatos_propagar_c+0xfc>
        celda_eliminar_candidato(&cuadricula[i][columna], valor);
 c004d70:	e51b2020 	ldr	r2, [fp, #-32]	; 0xffffffe0
 c004d74:	e55b300e 	ldrb	r3, [fp, #-14]
 c004d78:	e1a01203 	lsl	r1, r3, #4
 c004d7c:	e55b3022 	ldrb	r3, [fp, #-34]	; 0xffffffde
 c004d80:	e0813003 	add	r3, r1, r3
 c004d84:	e1a03083 	lsl	r3, r3, #1
 c004d88:	e0822003 	add	r2, r2, r3
 c004d8c:	e55b300f 	ldrb	r3, [fp, #-15]
 c004d90:	e1a00002 	mov	r0, r2
 c004d94:	e1a01003 	mov	r1, r3
 c004d98:	ebffff9a 	bl	c004c08 <celda_eliminar_candidato>
    for (j = 0; j < NUM_FILAS; j++) {
        celda_eliminar_candidato(&cuadricula[fila][j], valor);
    }

    /* recorrer columna descartando valor de listas candidatos (incluyendo la celda origen) */
    for (i = 0; i < NUM_FILAS; i++) {
 c004d9c:	e55b300e 	ldrb	r3, [fp, #-14]
 c004da0:	e2833001 	add	r3, r3, #1
 c004da4:	e54b300e 	strb	r3, [fp, #-14]
 c004da8:	e55b300e 	ldrb	r3, [fp, #-14]
 c004dac:	e3530008 	cmp	r3, #8
 c004db0:	9affffee 	bls	c004d70 <candidatos_propagar_c+0xc4>
        celda_eliminar_candidato(&cuadricula[i][columna], valor);
    }

    /* recorrer regin descartando valor de listas candidatos */
    init_i = init_region[fila];
 c004db4:	e55b2021 	ldrb	r2, [fp, #-33]	; 0xffffffdf
 c004db8:	e3e0300f 	mvn	r3, #15
 c004dbc:	e24b100c 	sub	r1, fp, #12
 c004dc0:	e0812002 	add	r2, r1, r2
 c004dc4:	e0823003 	add	r3, r2, r3
 c004dc8:	e5d33000 	ldrb	r3, [r3]
 c004dcc:	e54b3010 	strb	r3, [fp, #-16]
    init_j = init_region[columna];
 c004dd0:	e55b2022 	ldrb	r2, [fp, #-34]	; 0xffffffde
 c004dd4:	e3e0300f 	mvn	r3, #15
 c004dd8:	e24b100c 	sub	r1, fp, #12
 c004ddc:	e0812002 	add	r2, r1, r2
 c004de0:	e0823003 	add	r3, r2, r3
 c004de4:	e5d33000 	ldrb	r3, [r3]
 c004de8:	e54b3011 	strb	r3, [fp, #-17]	; 0xffffffef
    
    for (i = init_i; i < init_i + 3; i++) {
 c004dec:	e55b3010 	ldrb	r3, [fp, #-16]
 c004df0:	e54b300e 	strb	r3, [fp, #-14]
 c004df4:	ea000018 	b	c004e5c <candidatos_propagar_c+0x1b0>
        for (j = init_j; j < init_j + 3; j++) {
 c004df8:	e55b3011 	ldrb	r3, [fp, #-17]	; 0xffffffef
 c004dfc:	e54b300d 	strb	r3, [fp, #-13]
 c004e00:	ea00000d 	b	c004e3c <candidatos_propagar_c+0x190>
            celda_eliminar_candidato(&cuadricula[i][j], valor);
 c004e04:	e51b2020 	ldr	r2, [fp, #-32]	; 0xffffffe0
 c004e08:	e55b300e 	ldrb	r3, [fp, #-14]
 c004e0c:	e1a01203 	lsl	r1, r3, #4
 c004e10:	e55b300d 	ldrb	r3, [fp, #-13]
 c004e14:	e0813003 	add	r3, r1, r3
 c004e18:	e1a03083 	lsl	r3, r3, #1
 c004e1c:	e0822003 	add	r2, r2, r3
 c004e20:	e55b300f 	ldrb	r3, [fp, #-15]
 c004e24:	e1a00002 	mov	r0, r2
 c004e28:	e1a01003 	mov	r1, r3
 c004e2c:	ebffff75 	bl	c004c08 <celda_eliminar_candidato>
    /* recorrer regin descartando valor de listas candidatos */
    init_i = init_region[fila];
    init_j = init_region[columna];
    
    for (i = init_i; i < init_i + 3; i++) {
        for (j = init_j; j < init_j + 3; j++) {
 c004e30:	e55b300d 	ldrb	r3, [fp, #-13]
 c004e34:	e2833001 	add	r3, r3, #1
 c004e38:	e54b300d 	strb	r3, [fp, #-13]
 c004e3c:	e55b200d 	ldrb	r2, [fp, #-13]
 c004e40:	e55b3011 	ldrb	r3, [fp, #-17]	; 0xffffffef
 c004e44:	e2833003 	add	r3, r3, #3
 c004e48:	e1520003 	cmp	r2, r3
 c004e4c:	baffffec 	blt	c004e04 <candidatos_propagar_c+0x158>

    /* recorrer regin descartando valor de listas candidatos */
    init_i = init_region[fila];
    init_j = init_region[columna];
    
    for (i = init_i; i < init_i + 3; i++) {
 c004e50:	e55b300e 	ldrb	r3, [fp, #-14]
 c004e54:	e2833001 	add	r3, r3, #1
 c004e58:	e54b300e 	strb	r3, [fp, #-14]
 c004e5c:	e55b200e 	ldrb	r2, [fp, #-14]
 c004e60:	e55b3010 	ldrb	r3, [fp, #-16]
 c004e64:	e2833003 	add	r3, r3, #3
 c004e68:	e1520003 	cmp	r2, r3
 c004e6c:	baffffe1 	blt	c004df8 <candidatos_propagar_c+0x14c>
        for (j = init_j; j < init_j + 3; j++) {
            celda_eliminar_candidato(&cuadricula[i][j], valor);
        }
    }
}
 c004e70:	e24bd00c 	sub	sp, fp, #12
 c004e74:	e89d6800 	ldm	sp, {fp, sp, lr}
 c004e78:	e12fff1e 	bx	lr
 c004e7c:	0c009a88 	.word	0x0c009a88

0c004e80 <candidatos_actualizar_c>:
 * necesario tras borrar o cambiar un valor (listas corrompidas)
 * retorna el numero de celdas vacas
 */

int candidatos_actualizar_c(CELDA cuadricula[NUM_FILAS][NUM_COLUMNAS])
{
 c004e80:	e1a0c00d 	mov	ip, sp
 c004e84:	e92dd800 	push	{fp, ip, lr, pc}
 c004e88:	e24cb004 	sub	fp, ip, #4
 c004e8c:	e24dd010 	sub	sp, sp, #16
 c004e90:	e50b0018 	str	r0, [fp, #-24]	; 0xffffffe8
    int celdas_vacias = 0;
 c004e94:	e3a03000 	mov	r3, #0
 c004e98:	e50b3010 	str	r3, [fp, #-16]
    uint8_t i, j;

    //borrar todos los candidatos de TODAS las celdas y contar las vacas
    for (i = 0; i < NUM_FILAS; i++) {
 c004e9c:	e3a03000 	mov	r3, #0
 c004ea0:	e54b3011 	strb	r3, [fp, #-17]	; 0xffffffef
 c004ea4:	ea00002e 	b	c004f64 <candidatos_actualizar_c+0xe4>
        for (j = 0; j < NUM_FILAS; j++) {
 c004ea8:	e3a03000 	mov	r3, #0
 c004eac:	e54b3012 	strb	r3, [fp, #-18]	; 0xffffffee
 c004eb0:	ea000025 	b	c004f4c <candidatos_actualizar_c+0xcc>
            // Resetear candidatos para TODAS las celdas (poner todos a 0, es decir, todos son candidatos)
            cuadricula[i][j] = cuadricula[i][j] & 0x007F; // Limpiar bits de candidatos [15,7]
 c004eb4:	e55b3011 	ldrb	r3, [fp, #-17]	; 0xffffffef
 c004eb8:	e1a03283 	lsl	r3, r3, #5
 c004ebc:	e51b2018 	ldr	r2, [fp, #-24]	; 0xffffffe8
 c004ec0:	e0821003 	add	r1, r2, r3
 c004ec4:	e55b3012 	ldrb	r3, [fp, #-18]	; 0xffffffee
 c004ec8:	e55b2011 	ldrb	r2, [fp, #-17]	; 0xffffffef
 c004ecc:	e1a02282 	lsl	r2, r2, #5
 c004ed0:	e51b0018 	ldr	r0, [fp, #-24]	; 0xffffffe8
 c004ed4:	e0800002 	add	r0, r0, r2
 c004ed8:	e55b2012 	ldrb	r2, [fp, #-18]	; 0xffffffee
 c004edc:	e1a02082 	lsl	r2, r2, #1
 c004ee0:	e0802002 	add	r2, r0, r2
 c004ee4:	e1d220b0 	ldrh	r2, [r2]
 c004ee8:	e202207f 	and	r2, r2, #127	; 0x7f
 c004eec:	e1a02802 	lsl	r2, r2, #16
 c004ef0:	e1a02822 	lsr	r2, r2, #16
 c004ef4:	e1a03083 	lsl	r3, r3, #1
 c004ef8:	e0813003 	add	r3, r1, r3
 c004efc:	e1c320b0 	strh	r2, [r3]
            
            if (celda_leer_valor(cuadricula[i][j]) == 0) {
 c004f00:	e55b3011 	ldrb	r3, [fp, #-17]	; 0xffffffef
 c004f04:	e1a03283 	lsl	r3, r3, #5
 c004f08:	e51b2018 	ldr	r2, [fp, #-24]	; 0xffffffe8
 c004f0c:	e0822003 	add	r2, r2, r3
 c004f10:	e55b3012 	ldrb	r3, [fp, #-18]	; 0xffffffee
 c004f14:	e1a03083 	lsl	r3, r3, #1
 c004f18:	e0823003 	add	r3, r2, r3
 c004f1c:	e1d330b0 	ldrh	r3, [r3]
 c004f20:	e1a00003 	mov	r0, r3
 c004f24:	ebffff52 	bl	c004c74 <celda_leer_valor>
 c004f28:	e1a03000 	mov	r3, r0
 c004f2c:	e3530000 	cmp	r3, #0
 c004f30:	1a000002 	bne	c004f40 <candidatos_actualizar_c+0xc0>
                celdas_vacias++;
 c004f34:	e51b3010 	ldr	r3, [fp, #-16]
 c004f38:	e2833001 	add	r3, r3, #1
 c004f3c:	e50b3010 	str	r3, [fp, #-16]
    int celdas_vacias = 0;
    uint8_t i, j;

    //borrar todos los candidatos de TODAS las celdas y contar las vacas
    for (i = 0; i < NUM_FILAS; i++) {
        for (j = 0; j < NUM_FILAS; j++) {
 c004f40:	e55b3012 	ldrb	r3, [fp, #-18]	; 0xffffffee
 c004f44:	e2833001 	add	r3, r3, #1
 c004f48:	e54b3012 	strb	r3, [fp, #-18]	; 0xffffffee
 c004f4c:	e55b3012 	ldrb	r3, [fp, #-18]	; 0xffffffee
 c004f50:	e3530008 	cmp	r3, #8
 c004f54:	9affffd6 	bls	c004eb4 <candidatos_actualizar_c+0x34>
{
    int celdas_vacias = 0;
    uint8_t i, j;

    //borrar todos los candidatos de TODAS las celdas y contar las vacas
    for (i = 0; i < NUM_FILAS; i++) {
 c004f58:	e55b3011 	ldrb	r3, [fp, #-17]	; 0xffffffef
 c004f5c:	e2833001 	add	r3, r3, #1
 c004f60:	e54b3011 	strb	r3, [fp, #-17]	; 0xffffffef
 c004f64:	e55b3011 	ldrb	r3, [fp, #-17]	; 0xffffffef
 c004f68:	e3530008 	cmp	r3, #8
 c004f6c:	9affffcd 	bls	c004ea8 <candidatos_actualizar_c+0x28>
        }
    }
    

    //recalcular candidatos usando candidatos_propagar_c
    for (i = 0; i < NUM_FILAS; i++) {
 c004f70:	e3a03000 	mov	r3, #0
 c004f74:	e54b3011 	strb	r3, [fp, #-17]	; 0xffffffef
 c004f78:	ea00001e 	b	c004ff8 <candidatos_actualizar_c+0x178>
        for (j = 0; j < NUM_FILAS; j++) {
 c004f7c:	e3a03000 	mov	r3, #0
 c004f80:	e54b3012 	strb	r3, [fp, #-18]	; 0xffffffee
 c004f84:	ea000015 	b	c004fe0 <candidatos_actualizar_c+0x160>
            if (celda_leer_valor(cuadricula[i][j]) != 0) {
 c004f88:	e55b3011 	ldrb	r3, [fp, #-17]	; 0xffffffef
 c004f8c:	e1a03283 	lsl	r3, r3, #5
 c004f90:	e51b2018 	ldr	r2, [fp, #-24]	; 0xffffffe8
 c004f94:	e0822003 	add	r2, r2, r3
 c004f98:	e55b3012 	ldrb	r3, [fp, #-18]	; 0xffffffee
 c004f9c:	e1a03083 	lsl	r3, r3, #1
 c004fa0:	e0823003 	add	r3, r2, r3
 c004fa4:	e1d330b0 	ldrh	r3, [r3]
 c004fa8:	e1a00003 	mov	r0, r3
 c004fac:	ebffff30 	bl	c004c74 <celda_leer_valor>
 c004fb0:	e1a03000 	mov	r3, r0
 c004fb4:	e3530000 	cmp	r3, #0
 c004fb8:	0a000005 	beq	c004fd4 <candidatos_actualizar_c+0x154>
                // Celda con valor - propagar su valor para eliminar candidatos
                candidatos_propagar_c(cuadricula, i, j);
 c004fbc:	e55b2011 	ldrb	r2, [fp, #-17]	; 0xffffffef
 c004fc0:	e55b3012 	ldrb	r3, [fp, #-18]	; 0xffffffee
 c004fc4:	e51b0018 	ldr	r0, [fp, #-24]	; 0xffffffe8
 c004fc8:	e1a01002 	mov	r1, r2
 c004fcc:	e1a02003 	mov	r2, r3
 c004fd0:	ebffff35 	bl	c004cac <candidatos_propagar_c>
    }
    

    //recalcular candidatos usando candidatos_propagar_c
    for (i = 0; i < NUM_FILAS; i++) {
        for (j = 0; j < NUM_FILAS; j++) {
 c004fd4:	e55b3012 	ldrb	r3, [fp, #-18]	; 0xffffffee
 c004fd8:	e2833001 	add	r3, r3, #1
 c004fdc:	e54b3012 	strb	r3, [fp, #-18]	; 0xffffffee
 c004fe0:	e55b3012 	ldrb	r3, [fp, #-18]	; 0xffffffee
 c004fe4:	e3530008 	cmp	r3, #8
 c004fe8:	9affffe6 	bls	c004f88 <candidatos_actualizar_c+0x108>
        }
    }
    

    //recalcular candidatos usando candidatos_propagar_c
    for (i = 0; i < NUM_FILAS; i++) {
 c004fec:	e55b3011 	ldrb	r3, [fp, #-17]	; 0xffffffef
 c004ff0:	e2833001 	add	r3, r3, #1
 c004ff4:	e54b3011 	strb	r3, [fp, #-17]	; 0xffffffef
 c004ff8:	e55b3011 	ldrb	r3, [fp, #-17]	; 0xffffffef
 c004ffc:	e3530008 	cmp	r3, #8
 c005000:	9affffdd 	bls	c004f7c <candidatos_actualizar_c+0xfc>
            }
        }
    }
    
    //retornar el numero de celdas vacas
    return celdas_vacias;
 c005004:	e51b3010 	ldr	r3, [fp, #-16]
}
 c005008:	e1a00003 	mov	r0, r3
 c00500c:	e24bd00c 	sub	sp, fp, #12
 c005010:	e89d6800 	ldm	sp, {fp, sp, lr}
 c005014:	e12fff1e 	bx	lr

0c005018 <candidatos_actualizar_c_arm>:
 * Recibe la cuadrcula como primer parmetro
 * y devuelve en celdas_vacias el nmero de celdas vacas
 */

int candidatos_actualizar_c_arm(CELDA cuadricula[NUM_FILAS][NUM_COLUMNAS])
{
 c005018:	e1a0c00d 	mov	ip, sp
 c00501c:	e92dd800 	push	{fp, ip, lr, pc}
 c005020:	e24cb004 	sub	fp, ip, #4
 c005024:	e24dd010 	sub	sp, sp, #16
 c005028:	e50b0018 	str	r0, [fp, #-24]	; 0xffffffe8
	int celdas_vacias = 0;
 c00502c:	e3a03000 	mov	r3, #0
 c005030:	e50b3010 	str	r3, [fp, #-16]
	uint8_t i, j;

	//borrar todos los candidatos de TODAS las celdas y contar las vacas
	for (i = 0; i < NUM_FILAS; i++) {
 c005034:	e3a03000 	mov	r3, #0
 c005038:	e54b3011 	strb	r3, [fp, #-17]	; 0xffffffef
 c00503c:	ea00002e 	b	c0050fc <candidatos_actualizar_c_arm+0xe4>
		for (j = 0; j < NUM_FILAS; j++) {
 c005040:	e3a03000 	mov	r3, #0
 c005044:	e54b3012 	strb	r3, [fp, #-18]	; 0xffffffee
 c005048:	ea000025 	b	c0050e4 <candidatos_actualizar_c_arm+0xcc>
			// Resetear candidatos para TODAS las celdas (poner todos a 0, es decir, todos son candidatos)
			cuadricula[i][j] = cuadricula[i][j] & 0x007F; // Limpiar bits de candidatos [15,7]
 c00504c:	e55b3011 	ldrb	r3, [fp, #-17]	; 0xffffffef
 c005050:	e1a03283 	lsl	r3, r3, #5
 c005054:	e51b2018 	ldr	r2, [fp, #-24]	; 0xffffffe8
 c005058:	e0821003 	add	r1, r2, r3
 c00505c:	e55b3012 	ldrb	r3, [fp, #-18]	; 0xffffffee
 c005060:	e55b2011 	ldrb	r2, [fp, #-17]	; 0xffffffef
 c005064:	e1a02282 	lsl	r2, r2, #5
 c005068:	e51b0018 	ldr	r0, [fp, #-24]	; 0xffffffe8
 c00506c:	e0800002 	add	r0, r0, r2
 c005070:	e55b2012 	ldrb	r2, [fp, #-18]	; 0xffffffee
 c005074:	e1a02082 	lsl	r2, r2, #1
 c005078:	e0802002 	add	r2, r0, r2
 c00507c:	e1d220b0 	ldrh	r2, [r2]
 c005080:	e202207f 	and	r2, r2, #127	; 0x7f
 c005084:	e1a02802 	lsl	r2, r2, #16
 c005088:	e1a02822 	lsr	r2, r2, #16
 c00508c:	e1a03083 	lsl	r3, r3, #1
 c005090:	e0813003 	add	r3, r1, r3
 c005094:	e1c320b0 	strh	r2, [r3]
			
			if (celda_leer_valor(cuadricula[i][j]) == 0) {
 c005098:	e55b3011 	ldrb	r3, [fp, #-17]	; 0xffffffef
 c00509c:	e1a03283 	lsl	r3, r3, #5
 c0050a0:	e51b2018 	ldr	r2, [fp, #-24]	; 0xffffffe8
 c0050a4:	e0822003 	add	r2, r2, r3
 c0050a8:	e55b3012 	ldrb	r3, [fp, #-18]	; 0xffffffee
 c0050ac:	e1a03083 	lsl	r3, r3, #1
 c0050b0:	e0823003 	add	r3, r2, r3
 c0050b4:	e1d330b0 	ldrh	r3, [r3]
 c0050b8:	e1a00003 	mov	r0, r3
 c0050bc:	ebfffeec 	bl	c004c74 <celda_leer_valor>
 c0050c0:	e1a03000 	mov	r3, r0
 c0050c4:	e3530000 	cmp	r3, #0
 c0050c8:	1a000002 	bne	c0050d8 <candidatos_actualizar_c_arm+0xc0>
				celdas_vacias++;
 c0050cc:	e51b3010 	ldr	r3, [fp, #-16]
 c0050d0:	e2833001 	add	r3, r3, #1
 c0050d4:	e50b3010 	str	r3, [fp, #-16]
	int celdas_vacias = 0;
	uint8_t i, j;

	//borrar todos los candidatos de TODAS las celdas y contar las vacas
	for (i = 0; i < NUM_FILAS; i++) {
		for (j = 0; j < NUM_FILAS; j++) {
 c0050d8:	e55b3012 	ldrb	r3, [fp, #-18]	; 0xffffffee
 c0050dc:	e2833001 	add	r3, r3, #1
 c0050e0:	e54b3012 	strb	r3, [fp, #-18]	; 0xffffffee
 c0050e4:	e55b3012 	ldrb	r3, [fp, #-18]	; 0xffffffee
 c0050e8:	e3530008 	cmp	r3, #8
 c0050ec:	9affffd6 	bls	c00504c <candidatos_actualizar_c_arm+0x34>
{
	int celdas_vacias = 0;
	uint8_t i, j;

	//borrar todos los candidatos de TODAS las celdas y contar las vacas
	for (i = 0; i < NUM_FILAS; i++) {
 c0050f0:	e55b3011 	ldrb	r3, [fp, #-17]	; 0xffffffef
 c0050f4:	e2833001 	add	r3, r3, #1
 c0050f8:	e54b3011 	strb	r3, [fp, #-17]	; 0xffffffef
 c0050fc:	e55b3011 	ldrb	r3, [fp, #-17]	; 0xffffffef
 c005100:	e3530008 	cmp	r3, #8
 c005104:	9affffcd 	bls	c005040 <candidatos_actualizar_c_arm+0x28>
			}
		}
	}

	//recalcular candidatos usando la funcin ARM
	for (i = 0; i < NUM_FILAS; i++) {
 c005108:	e3a03000 	mov	r3, #0
 c00510c:	e54b3011 	strb	r3, [fp, #-17]	; 0xffffffef
 c005110:	ea00001e 	b	c005190 <candidatos_actualizar_c_arm+0x178>
		for (j = 0; j < NUM_FILAS; j++) {
 c005114:	e3a03000 	mov	r3, #0
 c005118:	e54b3012 	strb	r3, [fp, #-18]	; 0xffffffee
 c00511c:	ea000015 	b	c005178 <candidatos_actualizar_c_arm+0x160>
			if (celda_leer_valor(cuadricula[i][j]) != 0) {
 c005120:	e55b3011 	ldrb	r3, [fp, #-17]	; 0xffffffef
 c005124:	e1a03283 	lsl	r3, r3, #5
 c005128:	e51b2018 	ldr	r2, [fp, #-24]	; 0xffffffe8
 c00512c:	e0822003 	add	r2, r2, r3
 c005130:	e55b3012 	ldrb	r3, [fp, #-18]	; 0xffffffee
 c005134:	e1a03083 	lsl	r3, r3, #1
 c005138:	e0823003 	add	r3, r2, r3
 c00513c:	e1d330b0 	ldrh	r3, [r3]
 c005140:	e1a00003 	mov	r0, r3
 c005144:	ebfffeca 	bl	c004c74 <celda_leer_valor>
 c005148:	e1a03000 	mov	r3, r0
 c00514c:	e3530000 	cmp	r3, #0
 c005150:	0a000005 	beq	c00516c <candidatos_actualizar_c_arm+0x154>
				// Celda con valor - propagar usando funcin ARM optimizada
				candidatos_propagar_arm(cuadricula, i, j);
 c005154:	e55b2011 	ldrb	r2, [fp, #-17]	; 0xffffffef
 c005158:	e55b3012 	ldrb	r3, [fp, #-18]	; 0xffffffee
 c00515c:	e51b0018 	ldr	r0, [fp, #-24]	; 0xffffffe8
 c005160:	e1a01002 	mov	r1, r2
 c005164:	e1a02003 	mov	r2, r3
 c005168:	ebfff4c2 	bl	c002478 <candidatos_propagar_arm>
		}
	}

	//recalcular candidatos usando la funcin ARM
	for (i = 0; i < NUM_FILAS; i++) {
		for (j = 0; j < NUM_FILAS; j++) {
 c00516c:	e55b3012 	ldrb	r3, [fp, #-18]	; 0xffffffee
 c005170:	e2833001 	add	r3, r3, #1
 c005174:	e54b3012 	strb	r3, [fp, #-18]	; 0xffffffee
 c005178:	e55b3012 	ldrb	r3, [fp, #-18]	; 0xffffffee
 c00517c:	e3530008 	cmp	r3, #8
 c005180:	9affffe6 	bls	c005120 <candidatos_actualizar_c_arm+0x108>
			}
		}
	}

	//recalcular candidatos usando la funcin ARM
	for (i = 0; i < NUM_FILAS; i++) {
 c005184:	e55b3011 	ldrb	r3, [fp, #-17]	; 0xffffffef
 c005188:	e2833001 	add	r3, r3, #1
 c00518c:	e54b3011 	strb	r3, [fp, #-17]	; 0xffffffef
 c005190:	e55b3011 	ldrb	r3, [fp, #-17]	; 0xffffffef
 c005194:	e3530008 	cmp	r3, #8
 c005198:	9affffdd 	bls	c005114 <candidatos_actualizar_c_arm+0xfc>
			}
		}
	}

	//retornar el numero de celdas vacas
	return celdas_vacias;
 c00519c:	e51b3010 	ldr	r3, [fp, #-16]
}
 c0051a0:	e1a00003 	mov	r0, r3
 c0051a4:	e24bd00c 	sub	sp, fp, #12
 c0051a8:	e89d6800 	ldm	sp, {fp, sp, lr}
 c0051ac:	e12fff1e 	bx	lr

0c0051b0 <cuadricula_candidatos_verificar>:

static int
cuadricula_candidatos_verificar(CELDA cuadricula[NUM_FILAS][NUM_COLUMNAS],
	 CELDA solucion[NUM_FILAS][NUM_COLUMNAS])
{
 c0051b0:	e1a0c00d 	mov	ip, sp
 c0051b4:	e92dd800 	push	{fp, ip, lr, pc}
 c0051b8:	e24cb004 	sub	fp, ip, #4
 c0051bc:	e24dd018 	sub	sp, sp, #24
 c0051c0:	e50b0020 	str	r0, [fp, #-32]	; 0xffffffe0
 c0051c4:	e50b1024 	str	r1, [fp, #-36]	; 0xffffffdc
    int correcto = TRUE;
 c0051c8:	e3a03001 	mov	r3, #1
 c0051cc:	e50b3010 	str	r3, [fp, #-16]
    uint8_t i;
    uint8_t j;

    // Verificar que los candidatos coincidan con la solucin
    for (i = 0; i < NUM_FILAS && correcto; i++) {
 c0051d0:	e3a03000 	mov	r3, #0
 c0051d4:	e54b3011 	strb	r3, [fp, #-17]	; 0xffffffef
 c0051d8:	ea000026 	b	c005278 <cuadricula_candidatos_verificar+0xc8>

    	for (j = 0; j < NUM_COLUMNAS && correcto; j++) {
 c0051dc:	e3a03000 	mov	r3, #0
 c0051e0:	e54b3012 	strb	r3, [fp, #-18]	; 0xffffffee
 c0051e4:	ea00001a 	b	c005254 <cuadricula_candidatos_verificar+0xa4>
            // Compara candidatos con solucin
			// Extraer bits de candidatos [15,7] de ambas celdas
			uint16_t valor_cuadricula = cuadricula[i][j];
 c0051e8:	e55b3011 	ldrb	r3, [fp, #-17]	; 0xffffffef
 c0051ec:	e1a03283 	lsl	r3, r3, #5
 c0051f0:	e51b2020 	ldr	r2, [fp, #-32]	; 0xffffffe0
 c0051f4:	e0822003 	add	r2, r2, r3
 c0051f8:	e55b3012 	ldrb	r3, [fp, #-18]	; 0xffffffee
 c0051fc:	e1a03083 	lsl	r3, r3, #1
 c005200:	e0823003 	add	r3, r2, r3
 c005204:	e1d330b0 	ldrh	r3, [r3]
 c005208:	e14b31b4 	strh	r3, [fp, #-20]	; 0xffffffec
			uint16_t valor_solucion = solucion[i][j];
 c00520c:	e55b3011 	ldrb	r3, [fp, #-17]	; 0xffffffef
 c005210:	e1a03283 	lsl	r3, r3, #5
 c005214:	e51b2024 	ldr	r2, [fp, #-36]	; 0xffffffdc
 c005218:	e0822003 	add	r2, r2, r3
 c00521c:	e55b3012 	ldrb	r3, [fp, #-18]	; 0xffffffee
 c005220:	e1a03083 	lsl	r3, r3, #1
 c005224:	e0823003 	add	r3, r2, r3
 c005228:	e1d330b0 	ldrh	r3, [r3]
 c00522c:	e14b31b6 	strh	r3, [fp, #-22]	; 0xffffffea
                
			// Los candidatos deben coincidir exactamente
			if (valor_cuadricula != valor_solucion) {
 c005230:	e15b21b4 	ldrh	r2, [fp, #-20]	; 0xffffffec
 c005234:	e15b31b6 	ldrh	r3, [fp, #-22]	; 0xffffffea
 c005238:	e1520003 	cmp	r2, r3
 c00523c:	0a000001 	beq	c005248 <cuadricula_candidatos_verificar+0x98>
				correcto = FALSE;
 c005240:	e3a03000 	mov	r3, #0
 c005244:	e50b3010 	str	r3, [fp, #-16]
    uint8_t j;

    // Verificar que los candidatos coincidan con la solucin
    for (i = 0; i < NUM_FILAS && correcto; i++) {

    	for (j = 0; j < NUM_COLUMNAS && correcto; j++) {
 c005248:	e55b3012 	ldrb	r3, [fp, #-18]	; 0xffffffee
 c00524c:	e2833001 	add	r3, r3, #1
 c005250:	e54b3012 	strb	r3, [fp, #-18]	; 0xffffffee
 c005254:	e55b3012 	ldrb	r3, [fp, #-18]	; 0xffffffee
 c005258:	e353000f 	cmp	r3, #15
 c00525c:	8a000002 	bhi	c00526c <cuadricula_candidatos_verificar+0xbc>
 c005260:	e51b3010 	ldr	r3, [fp, #-16]
 c005264:	e3530000 	cmp	r3, #0
 c005268:	1affffde 	bne	c0051e8 <cuadricula_candidatos_verificar+0x38>
    int correcto = TRUE;
    uint8_t i;
    uint8_t j;

    // Verificar que los candidatos coincidan con la solucin
    for (i = 0; i < NUM_FILAS && correcto; i++) {
 c00526c:	e55b3011 	ldrb	r3, [fp, #-17]	; 0xffffffef
 c005270:	e2833001 	add	r3, r3, #1
 c005274:	e54b3011 	strb	r3, [fp, #-17]	; 0xffffffef
 c005278:	e55b3011 	ldrb	r3, [fp, #-17]	; 0xffffffef
 c00527c:	e3530008 	cmp	r3, #8
 c005280:	8a000002 	bhi	c005290 <cuadricula_candidatos_verificar+0xe0>
 c005284:	e51b3010 	ldr	r3, [fp, #-16]
 c005288:	e3530000 	cmp	r3, #0
 c00528c:	1affffd2 	bne	c0051dc <cuadricula_candidatos_verificar+0x2c>
				correcto = FALSE;
			}
        }
    }

    return correcto;
 c005290:	e51b3010 	ldr	r3, [fp, #-16]
}
 c005294:	e1a00003 	mov	r0, r3
 c005298:	e24bd00c 	sub	sp, fp, #12
 c00529c:	e89d6800 	ldm	sp, {fp, sp, lr}
 c0052a0:	e12fff1e 	bx	lr

0c0052a4 <sudoku9x9>:
	CELDA cuadricula_C_ARM[NUM_FILAS][NUM_COLUMNAS],
	CELDA cuadricula_ARM_ARM[NUM_FILAS][NUM_COLUMNAS],
	CELDA cuadricula_ARM_ARM_ALL[NUM_FILAS][NUM_COLUMNAS],
	CELDA cuadricula_ARM_C[NUM_FILAS][NUM_COLUMNAS],
	CELDA solucion[NUM_FILAS][NUM_COLUMNAS])
{
 c0052a4:	e1a0c00d 	mov	ip, sp
 c0052a8:	e92dd800 	push	{fp, ip, lr, pc}
 c0052ac:	e24cb004 	sub	fp, ip, #4
 c0052b0:	e24dd030 	sub	sp, sp, #48	; 0x30
 c0052b4:	e50b0030 	str	r0, [fp, #-48]	; 0xffffffd0
 c0052b8:	e50b1034 	str	r1, [fp, #-52]	; 0xffffffcc
 c0052bc:	e50b2038 	str	r2, [fp, #-56]	; 0xffffffc8
 c0052c0:	e50b303c 	str	r3, [fp, #-60]	; 0xffffffc4
    int celdas_vacias[5];    //numero de celdas aun vacas
    int correcto = 0;
 c0052c4:	e3a03000 	mov	r3, #0
 c0052c8:	e50b3014 	str	r3, [fp, #-20]	; 0xffffffec
    size_t i;

    /* calcula lista de candidatos, versin C */
    celdas_vacias[0] = candidatos_actualizar_c(cuadricula_C_C);
 c0052cc:	e51b0030 	ldr	r0, [fp, #-48]	; 0xffffffd0
 c0052d0:	ebfffeea 	bl	c004e80 <candidatos_actualizar_c>
 c0052d4:	e1a03000 	mov	r3, r0
 c0052d8:	e50b3028 	str	r3, [fp, #-40]	; 0xffffffd8

    /* Calcular candidatos para las otras versiones */
    celdas_vacias[1] = candidatos_actualizar_c_arm(cuadricula_C_ARM);
 c0052dc:	e51b0034 	ldr	r0, [fp, #-52]	; 0xffffffcc
 c0052e0:	ebffff4c 	bl	c005018 <candidatos_actualizar_c_arm>
 c0052e4:	e1a03000 	mov	r3, r0
 c0052e8:	e50b3024 	str	r3, [fp, #-36]	; 0xffffffdc
    celdas_vacias[2] = candidatos_actualizar_arm_arm(cuadricula_ARM_ARM);
 c0052ec:	e51b0038 	ldr	r0, [fp, #-56]	; 0xffffffc8
 c0052f0:	ebfff4a6 	bl	c002590 <candidatos_actualizar_arm_arm>
 c0052f4:	e1a03000 	mov	r3, r0
 c0052f8:	e50b3020 	str	r3, [fp, #-32]	; 0xffffffe0
    celdas_vacias[3] = candidatos_actualizar_all(cuadricula_ARM_ARM_ALL);
 c0052fc:	e51b003c 	ldr	r0, [fp, #-60]	; 0xffffffc4
 c005300:	ebfff512 	bl	c002750 <candidatos_actualizar_all>
 c005304:	e1a03000 	mov	r3, r0
 c005308:	e50b301c 	str	r3, [fp, #-28]	; 0xffffffe4
    celdas_vacias[4] = candidatos_actualizar_arm_c(cuadricula_ARM_C);
 c00530c:	e59b0004 	ldr	r0, [fp, #4]
 c005310:	ebfff4d6 	bl	c002670 <candidatos_actualizar_arm_c>
 c005314:	e1a03000 	mov	r3, r0
 c005318:	e50b3018 	str	r3, [fp, #-24]	; 0xffffffe8

 	for (i=1; i < 5; ++i) {
 c00531c:	e3a03001 	mov	r3, #1
 c005320:	e50b3010 	str	r3, [fp, #-16]
 c005324:	ea00000e 	b	c005364 <sudoku9x9+0xc0>
		if (celdas_vacias[i] != celdas_vacias[0]) {
 c005328:	e51b2010 	ldr	r2, [fp, #-16]
 c00532c:	e3e0301b 	mvn	r3, #27
 c005330:	e1a02102 	lsl	r2, r2, #2
 c005334:	e24b100c 	sub	r1, fp, #12
 c005338:	e0812002 	add	r2, r1, r2
 c00533c:	e0823003 	add	r3, r2, r3
 c005340:	e5932000 	ldr	r2, [r3]
 c005344:	e51b3028 	ldr	r3, [fp, #-40]	; 0xffffffd8
 c005348:	e1520003 	cmp	r2, r3
 c00534c:	0a000001 	beq	c005358 <sudoku9x9+0xb4>
		return -1;
 c005350:	e3e03000 	mvn	r3, #0
 c005354:	ea000033 	b	c005428 <sudoku9x9+0x184>
    celdas_vacias[1] = candidatos_actualizar_c_arm(cuadricula_C_ARM);
    celdas_vacias[2] = candidatos_actualizar_arm_arm(cuadricula_ARM_ARM);
    celdas_vacias[3] = candidatos_actualizar_all(cuadricula_ARM_ARM_ALL);
    celdas_vacias[4] = candidatos_actualizar_arm_c(cuadricula_ARM_C);

 	for (i=1; i < 5; ++i) {
 c005358:	e51b3010 	ldr	r3, [fp, #-16]
 c00535c:	e2833001 	add	r3, r3, #1
 c005360:	e50b3010 	str	r3, [fp, #-16]
 c005364:	e51b3010 	ldr	r3, [fp, #-16]
 c005368:	e3530004 	cmp	r3, #4
 c00536c:	9affffed 	bls	c005328 <sudoku9x9+0x84>
		}
	}

    /* verificar que la lista de candidatos calculada es correcta */
 	// cuadricula_C_C
    correcto = cuadricula_candidatos_verificar(cuadricula_C_C, solucion);
 c005370:	e51b0030 	ldr	r0, [fp, #-48]	; 0xffffffd0
 c005374:	e59b1008 	ldr	r1, [fp, #8]
 c005378:	ebffff8c 	bl	c0051b0 <cuadricula_candidatos_verificar>
 c00537c:	e50b0014 	str	r0, [fp, #-20]	; 0xffffffec
    if (correcto == FALSE) {
 c005380:	e51b3014 	ldr	r3, [fp, #-20]	; 0xffffffec
 c005384:	e3530000 	cmp	r3, #0
 c005388:	1a000001 	bne	c005394 <sudoku9x9+0xf0>
        return -2;
 c00538c:	e3e03001 	mvn	r3, #1
 c005390:	ea000024 	b	c005428 <sudoku9x9+0x184>
    }

    // cuadricula_C_ARM
    correcto = cuadricula_candidatos_verificar(cuadricula_C_ARM, solucion);
 c005394:	e51b0034 	ldr	r0, [fp, #-52]	; 0xffffffcc
 c005398:	e59b1008 	ldr	r1, [fp, #8]
 c00539c:	ebffff83 	bl	c0051b0 <cuadricula_candidatos_verificar>
 c0053a0:	e50b0014 	str	r0, [fp, #-20]	; 0xffffffec
    if (correcto == FALSE) {
 c0053a4:	e51b3014 	ldr	r3, [fp, #-20]	; 0xffffffec
 c0053a8:	e3530000 	cmp	r3, #0
 c0053ac:	1a000001 	bne	c0053b8 <sudoku9x9+0x114>
    	return -3;
 c0053b0:	e3e03002 	mvn	r3, #2
 c0053b4:	ea00001b 	b	c005428 <sudoku9x9+0x184>
    }

    // cuadricula_ARM_ARM
    correcto = cuadricula_candidatos_verificar(cuadricula_ARM_ARM, solucion);
 c0053b8:	e51b0038 	ldr	r0, [fp, #-56]	; 0xffffffc8
 c0053bc:	e59b1008 	ldr	r1, [fp, #8]
 c0053c0:	ebffff7a 	bl	c0051b0 <cuadricula_candidatos_verificar>
 c0053c4:	e50b0014 	str	r0, [fp, #-20]	; 0xffffffec
	if (correcto == FALSE) {
 c0053c8:	e51b3014 	ldr	r3, [fp, #-20]	; 0xffffffec
 c0053cc:	e3530000 	cmp	r3, #0
 c0053d0:	1a000001 	bne	c0053dc <sudoku9x9+0x138>
		return -4;
 c0053d4:	e3e03003 	mvn	r3, #3
 c0053d8:	ea000012 	b	c005428 <sudoku9x9+0x184>
	}

	// cuadricula_ARM_ARM_ALL
    correcto = cuadricula_candidatos_verificar(cuadricula_ARM_ARM_ALL, solucion);
 c0053dc:	e51b003c 	ldr	r0, [fp, #-60]	; 0xffffffc4
 c0053e0:	e59b1008 	ldr	r1, [fp, #8]
 c0053e4:	ebffff71 	bl	c0051b0 <cuadricula_candidatos_verificar>
 c0053e8:	e50b0014 	str	r0, [fp, #-20]	; 0xffffffec
	if (correcto == FALSE) {
 c0053ec:	e51b3014 	ldr	r3, [fp, #-20]	; 0xffffffec
 c0053f0:	e3530000 	cmp	r3, #0
 c0053f4:	1a000001 	bne	c005400 <sudoku9x9+0x15c>
		return -5;
 c0053f8:	e3e03004 	mvn	r3, #4
 c0053fc:	ea000009 	b	c005428 <sudoku9x9+0x184>
	}

	// cuadricula_ARM_C
    correcto = cuadricula_candidatos_verificar(cuadricula_ARM_C, solucion);
 c005400:	e59b0004 	ldr	r0, [fp, #4]
 c005404:	e59b1008 	ldr	r1, [fp, #8]
 c005408:	ebffff68 	bl	c0051b0 <cuadricula_candidatos_verificar>
 c00540c:	e50b0014 	str	r0, [fp, #-20]	; 0xffffffec
	if (correcto == FALSE) {
 c005410:	e51b3014 	ldr	r3, [fp, #-20]	; 0xffffffec
 c005414:	e3530000 	cmp	r3, #0
 c005418:	1a000001 	bne	c005424 <sudoku9x9+0x180>
		return -6;
 c00541c:	e3e03005 	mvn	r3, #5
 c005420:	ea000000 	b	c005428 <sudoku9x9+0x184>
	}

	return 0; // Todo correcto
 c005424:	e3a03000 	mov	r3, #0
}
 c005428:	e1a00003 	mov	r0, r3
 c00542c:	e24bd00c 	sub	sp, fp, #12
 c005430:	e89d6800 	ldm	sp, {fp, sp, lr}
 c005434:	e12fff1e 	bx	lr

0c005438 <main>:

int main(int argc, char const *argv[])
{
 c005438:	e1a0c00d 	mov	ip, sp
 c00543c:	e92dd800 	push	{fp, ip, lr, pc}
 c005440:	e24cb004 	sub	fp, ip, #4
 c005444:	e24dd010 	sub	sp, sp, #16
 c005448:	e50b0010 	str	r0, [fp, #-16]
 c00544c:	e50b1014 	str	r1, [fp, #-20]	; 0xffffffec
    sudoku9x9(cuadricula_C_C, cuadricula_C_ARM, cuadricula_ARM_ARM, cuadricula_ARM_ARM_ALL, cuadricula_ARM_C, solucion);
 c005450:	e59f3030 	ldr	r3, [pc, #48]	; c005488 <main+0x50>
 c005454:	e58d3000 	str	r3, [sp]
 c005458:	e59f302c 	ldr	r3, [pc, #44]	; c00548c <main+0x54>
 c00545c:	e58d3004 	str	r3, [sp, #4]
 c005460:	e59f0028 	ldr	r0, [pc, #40]	; c005490 <main+0x58>
 c005464:	e59f1028 	ldr	r1, [pc, #40]	; c005494 <main+0x5c>
 c005468:	e59f2028 	ldr	r2, [pc, #40]	; c005498 <main+0x60>
 c00546c:	e59f3028 	ldr	r3, [pc, #40]	; c00549c <main+0x64>
 c005470:	ebffff8b 	bl	c0052a4 <sudoku9x9>
    return 0;
 c005474:	e3a03000 	mov	r3, #0
}
 c005478:	e1a00003 	mov	r0, r3
 c00547c:	e24bd00c 	sub	sp, fp, #12
 c005480:	e89d6800 	ldm	sp, {fp, sp, lr}
 c005484:	e12fff1e 	bx	lr
 c005488:	0c008100 	.word	0x0c008100
 c00548c:	0c008460 	.word	0x0c008460
 c005490:	0c007ec0 	.word	0x0c007ec0
 c005494:	0c007fe0 	.word	0x0c007fe0
 c005498:	0c008220 	.word	0x0c008220
 c00549c:	0c008340 	.word	0x0c008340

0c0054a0 <timer_ISR>:
 * https://gcc.gnu.org/onlinedocs/gcc/ARM-Function-Attributes.html */
void timer_ISR(void) __attribute__((interrupt("IRQ")));

/*--- codigo de las funciones ---*/
void timer_ISR(void)
{
 c0054a0:	e52dc004 	push	{ip}		; (str ip, [sp, #-4]!)
 c0054a4:	e1a0c00d 	mov	ip, sp
 c0054a8:	e92dd80c 	push	{r2, r3, fp, ip, lr, pc}
 c0054ac:	e24cb004 	sub	fp, ip, #4
	switch_leds = 1;
 c0054b0:	e59f3028 	ldr	r3, [pc, #40]	; c0054e0 <timer_ISR+0x40>
 c0054b4:	e3a02001 	mov	r2, #1
 c0054b8:	e5832000 	str	r2, [r3]

	/* borrar bit en I_ISPC para desactivar la solicitud de interrupcin*/
	rI_ISPC |= BIT_TIMER0; // BIT_TIMER0 est definido en 44b.h y pone un uno en el bit 13 que corresponde al Timer0
 c0054bc:	e59f3020 	ldr	r3, [pc, #32]	; c0054e4 <timer_ISR+0x44>
 c0054c0:	e59f201c 	ldr	r2, [pc, #28]	; c0054e4 <timer_ISR+0x44>
 c0054c4:	e5922000 	ldr	r2, [r2]
 c0054c8:	e3822a02 	orr	r2, r2, #8192	; 0x2000
 c0054cc:	e5832000 	str	r2, [r3]
}
 c0054d0:	e24bd014 	sub	sp, fp, #20
 c0054d4:	e89d680c 	ldm	sp, {r2, r3, fp, sp, lr}
 c0054d8:	e49dc004 	pop	{ip}		; (ldr ip, [sp], #4)
 c0054dc:	e25ef004 	subs	pc, lr, #4
 c0054e0:	0c009ae8 	.word	0x0c009ae8
 c0054e4:	01e00024 	.word	0x01e00024

0c0054e8 <timer_init>:

void timer_init(void)
{
 c0054e8:	e1a0c00d 	mov	ip, sp
 c0054ec:	e92dd800 	push	{fp, ip, lr, pc}
 c0054f0:	e24cb004 	sub	fp, ip, #4
	/* Configuracion controlador de interrupciones */
	rINTMOD = 0x0; // Configura las lineas como de tipo IRQ
 c0054f4:	e59f3084 	ldr	r3, [pc, #132]	; c005580 <timer_init+0x98>
 c0054f8:	e3a02000 	mov	r2, #0
 c0054fc:	e5832000 	str	r2, [r3]
	rINTCON = 0x1; // Habilita int. vectorizadas y la linea IRQ (FIQ no)
 c005500:	e3a0361e 	mov	r3, #31457280	; 0x1e00000
 c005504:	e3a02001 	mov	r2, #1
 c005508:	e5832000 	str	r2, [r3]
	rINTMSK &= ~(BIT_TIMER0); // habilitamos en vector de mascaras de interrupcion el Timer0 (bits 26 y 13, BIT_GLOBAL y BIT_TIMER0 estn definidos en 44b.h)
 c00550c:	e59f3070 	ldr	r3, [pc, #112]	; c005584 <timer_init+0x9c>
 c005510:	e59f206c 	ldr	r2, [pc, #108]	; c005584 <timer_init+0x9c>
 c005514:	e5922000 	ldr	r2, [r2]
 c005518:	e3c22a02 	bic	r2, r2, #8192	; 0x2000
 c00551c:	e5832000 	str	r2, [r3]

	/* Establece la rutina de servicio para TIMER0 */
	pISR_TIMER0 = (unsigned) timer_ISR;
 c005520:	e59f3060 	ldr	r3, [pc, #96]	; c005588 <timer_init+0xa0>
 c005524:	e59f2060 	ldr	r2, [pc, #96]	; c00558c <timer_init+0xa4>
 c005528:	e5832000 	str	r2, [r3]

	/* Configura el Timer0 */
	rTCFG0 = 255; // ajusta el preescalado
 c00552c:	e59f305c 	ldr	r3, [pc, #92]	; c005590 <timer_init+0xa8>
 c005530:	e3a020ff 	mov	r2, #255	; 0xff
 c005534:	e5832000 	str	r2, [r3]
	rTCFG1 = 0x0; // selecciona la entrada del mux que proporciona el reloj. La 00 corresponde a un divisor de 1/2.
 c005538:	e59f3054 	ldr	r3, [pc, #84]	; c005594 <timer_init+0xac>
 c00553c:	e3a02000 	mov	r2, #0
 c005540:	e5832000 	str	r2, [r3]
	rTCNTB0 = 65535;// valor inicial de cuenta (la cuenta es descendente)
 c005544:	e59f304c 	ldr	r3, [pc, #76]	; c005598 <timer_init+0xb0>
 c005548:	e59f204c 	ldr	r2, [pc, #76]	; c00559c <timer_init+0xb4>
 c00554c:	e5832000 	str	r2, [r3]
	rTCMPB0 = 12800;// valor de comparacin
 c005550:	e59f3048 	ldr	r3, [pc, #72]	; c0055a0 <timer_init+0xb8>
 c005554:	e3a02c32 	mov	r2, #12800	; 0x3200
 c005558:	e5832000 	str	r2, [r3]
	/* establecer update=manual (bit 1) + inverter=on (? ser inverter off un cero en el bit 2 pone el inverter en off)*/
	rTCON = 0x2;
 c00555c:	e59f3040 	ldr	r3, [pc, #64]	; c0055a4 <timer_init+0xbc>
 c005560:	e3a02002 	mov	r2, #2
 c005564:	e5832000 	str	r2, [r3]
	/* iniciar timer (bit 0) con auto-reload (bit 3)*/
	rTCON = 0x09;
 c005568:	e59f3034 	ldr	r3, [pc, #52]	; c0055a4 <timer_init+0xbc>
 c00556c:	e3a02009 	mov	r2, #9
 c005570:	e5832000 	str	r2, [r3]
 c005574:	e24bd00c 	sub	sp, fp, #12
 c005578:	e89d6800 	ldm	sp, {fp, sp, lr}
 c00557c:	e12fff1e 	bx	lr
 c005580:	01e00008 	.word	0x01e00008
 c005584:	01e0000c 	.word	0x01e0000c
 c005588:	0c7fff54 	.word	0x0c7fff54
 c00558c:	0c0054a0 	.word	0x0c0054a0
 c005590:	01d50000 	.word	0x01d50000
 c005594:	01d50004 	.word	0x01d50004
 c005598:	01d5000c 	.word	0x01d5000c
 c00559c:	0000ffff 	.word	0x0000ffff
 c0055a0:	01d50010 	.word	0x01d50010
 c0055a4:	01d50008 	.word	0x01d50008

0c0055a8 <timer1_ISR>:
 * Interrupciones por segundo: 60
 * Interrupciones por ciclo de parpadeo: 60 / 6 = 10
 * Por tanto, alternamos el LED cada 10 interrupciones.
 */
void timer1_ISR(void)
{
 c0055a8:	e52dc004 	push	{ip}		; (str ip, [sp, #-4]!)
 c0055ac:	e1a0c00d 	mov	ip, sp
 c0055b0:	e92dd80f 	push	{r0, r1, r2, r3, fp, ip, lr, pc}
 c0055b4:	e24cb004 	sub	fp, ip, #4
	timer1_contador++;
 c0055b8:	e59f3080 	ldr	r3, [pc, #128]	; c005640 <timer1_ISR+0x98>
 c0055bc:	e5933000 	ldr	r3, [r3]
 c0055c0:	e2832001 	add	r2, r3, #1
 c0055c4:	e59f3074 	ldr	r3, [pc, #116]	; c005640 <timer1_ISR+0x98>
 c0055c8:	e5832000 	str	r2, [r3]
	
	/* Cambiar estado del LED cada 10 interrupciones */
	/* 60 interrupciones/seg  6 Hz = 10 interrupciones por ciclo completo */
	if (timer1_contador >= 10)
 c0055cc:	e59f306c 	ldr	r3, [pc, #108]	; c005640 <timer1_ISR+0x98>
 c0055d0:	e5933000 	ldr	r3, [r3]
 c0055d4:	e3530009 	cmp	r3, #9
 c0055d8:	9a00000f 	bls	c00561c <timer1_ISR+0x74>
	{
		if (led2_encendido)
 c0055dc:	e59f3060 	ldr	r3, [pc, #96]	; c005644 <timer1_ISR+0x9c>
 c0055e0:	e5933000 	ldr	r3, [r3]
 c0055e4:	e3530000 	cmp	r3, #0
 c0055e8:	0a000004 	beq	c005600 <timer1_ISR+0x58>
		{
			led2_off();  // Apaga el LED de la derecha
 c0055ec:	ebfffd26 	bl	c004a8c <led2_off>
			led2_encendido = 0;
 c0055f0:	e59f304c 	ldr	r3, [pc, #76]	; c005644 <timer1_ISR+0x9c>
 c0055f4:	e3a02000 	mov	r2, #0
 c0055f8:	e5832000 	str	r2, [r3]
 c0055fc:	ea000003 	b	c005610 <timer1_ISR+0x68>
		}
		else
		{
			led2_on();   // Enciende el LED de la derecha
 c005600:	ebfffd11 	bl	c004a4c <led2_on>
			led2_encendido = 1;
 c005604:	e59f3038 	ldr	r3, [pc, #56]	; c005644 <timer1_ISR+0x9c>
 c005608:	e3a02001 	mov	r2, #1
 c00560c:	e5832000 	str	r2, [r3]
		}
		timer1_contador = 0;
 c005610:	e59f3028 	ldr	r3, [pc, #40]	; c005640 <timer1_ISR+0x98>
 c005614:	e3a02000 	mov	r2, #0
 c005618:	e5832000 	str	r2, [r3]
	}
	
	/* Borrar bit en I_ISPC para desactivar la solicitud de interrupcin */
	rI_ISPC |= BIT_TIMER1;
 c00561c:	e59f3024 	ldr	r3, [pc, #36]	; c005648 <timer1_ISR+0xa0>
 c005620:	e59f2020 	ldr	r2, [pc, #32]	; c005648 <timer1_ISR+0xa0>
 c005624:	e5922000 	ldr	r2, [r2]
 c005628:	e3822a01 	orr	r2, r2, #4096	; 0x1000
 c00562c:	e5832000 	str	r2, [r3]
}
 c005630:	e24bd01c 	sub	sp, fp, #28
 c005634:	e89d680f 	ldm	sp, {r0, r1, r2, r3, fp, sp, lr}
 c005638:	e49dc004 	pop	{ip}		; (ldr ip, [sp], #4)
 c00563c:	e25ef004 	subs	pc, lr, #4
 c005640:	0c009aec 	.word	0x0c009aec
 c005644:	0c009af0 	.word	0x0c009af0
 c005648:	01e00024 	.word	0x01e00024

0c00564c <timer1_init>:
 * - Cuenta: 260 ticks para obtener 60 interrupciones/segundo
 * - Resolucin: 1/15625 Hz = 64 s por tick
 * - Rango: 260 ticks  64 s  16.64 ms por interrupcin
 */
void timer1_init(void)
{
 c00564c:	e1a0c00d 	mov	ip, sp
 c005650:	e92dd800 	push	{fp, ip, lr, pc}
 c005654:	e24cb004 	sub	fp, ip, #4
	/* Configuracin del controlador de interrupciones */
	rINTMOD = 0x0;				// Configura las lneas como de tipo IRQ
 c005658:	e59f30c8 	ldr	r3, [pc, #200]	; c005728 <timer1_init+0xdc>
 c00565c:	e3a02000 	mov	r2, #0
 c005660:	e5832000 	str	r2, [r3]
	rINTCON = 0x1;				// Habilita int. vectorizadas y la lnea IRQ
 c005664:	e3a0361e 	mov	r3, #31457280	; 0x1e00000
 c005668:	e3a02001 	mov	r2, #1
 c00566c:	e5832000 	str	r2, [r3]
	rINTMSK &= ~(BIT_TIMER1);	// Habilita interrupcin del Timer1
 c005670:	e59f30b4 	ldr	r3, [pc, #180]	; c00572c <timer1_init+0xe0>
 c005674:	e59f20b0 	ldr	r2, [pc, #176]	; c00572c <timer1_init+0xe0>
 c005678:	e5922000 	ldr	r2, [r2]
 c00567c:	e3c22a01 	bic	r2, r2, #4096	; 0x1000
 c005680:	e5832000 	str	r2, [r3]
	
	/* Establece la rutina de servicio para TIMER1 */
	pISR_TIMER1 = (unsigned) timer1_ISR;
 c005684:	e59f30a4 	ldr	r3, [pc, #164]	; c005730 <timer1_init+0xe4>
 c005688:	e59f20a4 	ldr	r2, [pc, #164]	; c005734 <timer1_init+0xe8>
 c00568c:	e5832000 	str	r2, [r3]
	
	/* Configura el Timer1 */
	/* TCFG0[7:0] controla el prescaler del timer1 (compartido con timer0) */
	rTCFG0 = (rTCFG0 & ~(0xFF << 0)) | (TIMER1_PRESCALER << 0);
 c005690:	e59f30a0 	ldr	r3, [pc, #160]	; c005738 <timer1_init+0xec>
 c005694:	e59f209c 	ldr	r2, [pc, #156]	; c005738 <timer1_init+0xec>
 c005698:	e5922000 	ldr	r2, [r2]
 c00569c:	e38220ff 	orr	r2, r2, #255	; 0xff
 c0056a0:	e5832000 	str	r2, [r3]
	
	/* TCFG1[7:4] controla el divisor MUX del timer1 */
	rTCFG1 = (rTCFG1 & ~(0xF << 4)) | (TIMER1_MUX_DIV << 4);
 c0056a4:	e59f3090 	ldr	r3, [pc, #144]	; c00573c <timer1_init+0xf0>
 c0056a8:	e59f208c 	ldr	r2, [pc, #140]	; c00573c <timer1_init+0xf0>
 c0056ac:	e5922000 	ldr	r2, [r2]
 c0056b0:	e3c220f0 	bic	r2, r2, #240	; 0xf0
 c0056b4:	e3822030 	orr	r2, r2, #48	; 0x30
 c0056b8:	e5832000 	str	r2, [r3]
	
	/* Configura el valor de cuenta inicial */
	rTCNTB1 = TIMER1_COUNT;
 c0056bc:	e59f307c 	ldr	r3, [pc, #124]	; c005740 <timer1_init+0xf4>
 c0056c0:	e3a02f41 	mov	r2, #260	; 0x104
 c0056c4:	e5832000 	str	r2, [r3]
	
	/* Valor de comparacin (no se usa para generar seal, solo interrupcin) */
	rTCMPB1 = 0;
 c0056c8:	e59f3074 	ldr	r3, [pc, #116]	; c005744 <timer1_init+0xf8>
 c0056cc:	e3a02000 	mov	r2, #0
 c0056d0:	e5832000 	str	r2, [r3]
	
	/* Manual update (bit 9) para cargar TCNTB1 en TCNT1 */
	rTCON |= (1 << 9);
 c0056d4:	e59f306c 	ldr	r3, [pc, #108]	; c005748 <timer1_init+0xfc>
 c0056d8:	e59f2068 	ldr	r2, [pc, #104]	; c005748 <timer1_init+0xfc>
 c0056dc:	e5922000 	ldr	r2, [r2]
 c0056e0:	e3822c02 	orr	r2, r2, #512	; 0x200
 c0056e4:	e5832000 	str	r2, [r3]
	
	/* Iniciar timer1 (bit 8) con auto-reload (bit 11), quitar manual update (bit 9) */
	rTCON = (rTCON & ~(0xF << 8)) | (1 << 11) | (1 << 8);
 c0056e8:	e59f3058 	ldr	r3, [pc, #88]	; c005748 <timer1_init+0xfc>
 c0056ec:	e59f2054 	ldr	r2, [pc, #84]	; c005748 <timer1_init+0xfc>
 c0056f0:	e5922000 	ldr	r2, [r2]
 c0056f4:	e3c22c0f 	bic	r2, r2, #3840	; 0xf00
 c0056f8:	e3822c09 	orr	r2, r2, #2304	; 0x900
 c0056fc:	e5832000 	str	r2, [r3]
	
	/* Inicializar contadores y estado del LED */
	timer1_contador = 0;
 c005700:	e59f3044 	ldr	r3, [pc, #68]	; c00574c <timer1_init+0x100>
 c005704:	e3a02000 	mov	r2, #0
 c005708:	e5832000 	str	r2, [r3]
	led2_encendido = 0;
 c00570c:	e59f303c 	ldr	r3, [pc, #60]	; c005750 <timer1_init+0x104>
 c005710:	e3a02000 	mov	r2, #0
 c005714:	e5832000 	str	r2, [r3]
	led2_off();  // Asegurar que el LED empieza apagado
 c005718:	ebfffcdb 	bl	c004a8c <led2_off>
 c00571c:	e24bd00c 	sub	sp, fp, #12
 c005720:	e89d6800 	ldm	sp, {fp, sp, lr}
 c005724:	e12fff1e 	bx	lr
 c005728:	01e00008 	.word	0x01e00008
 c00572c:	01e0000c 	.word	0x01e0000c
 c005730:	0c7fff50 	.word	0x0c7fff50
 c005734:	0c0055a8 	.word	0x0c0055a8
 c005738:	01d50000 	.word	0x01d50000
 c00573c:	01d50004 	.word	0x01d50004
 c005740:	01d50018 	.word	0x01d50018
 c005744:	01d5001c 	.word	0x01d5001c
 c005748:	01d50008 	.word	0x01d50008
 c00574c:	0c009aec 	.word	0x0c009aec
 c005750:	0c009af0 	.word	0x0c009af0

0c005754 <timer2_ISR>:
 * NOTA: No registramos cada interrupcin en la cola para no sobrecargarla,
 * ya que el timer2 genera muchas interrupciones por segundo (~488 Hz).
 * Solo registramos si es necesario para depuracin especfica.
 */
void timer2_ISR(void)
{
 c005754:	e52dc004 	push	{ip}		; (str ip, [sp, #-4]!)
 c005758:	e1a0c00d 	mov	ip, sp
 c00575c:	e92dd80c 	push	{r2, r3, fp, ip, lr, pc}
 c005760:	e24cb004 	sub	fp, ip, #4
	/* Incrementar el contador de periodos completos */
	timer2_numero_int++;
 c005764:	e59f3030 	ldr	r3, [pc, #48]	; c00579c <timer2_ISR+0x48>
 c005768:	e5933000 	ldr	r3, [r3]
 c00576c:	e2832001 	add	r2, r3, #1
 c005770:	e59f3024 	ldr	r3, [pc, #36]	; c00579c <timer2_ISR+0x48>
 c005774:	e5832000 	str	r2, [r3]
	
	/* Borrar bit en I_ISPC para desactivar la solicitud de interrupcin */
	rI_ISPC |= BIT_TIMER2; // BIT_TIMER2 pone un uno en el bit 11 que corresponde al Timer2
 c005778:	e59f3020 	ldr	r3, [pc, #32]	; c0057a0 <timer2_ISR+0x4c>
 c00577c:	e59f201c 	ldr	r2, [pc, #28]	; c0057a0 <timer2_ISR+0x4c>
 c005780:	e5922000 	ldr	r2, [r2]
 c005784:	e3822b02 	orr	r2, r2, #2048	; 0x800
 c005788:	e5832000 	str	r2, [r3]
}
 c00578c:	e24bd014 	sub	sp, fp, #20
 c005790:	e89d680c 	ldm	sp, {r2, r3, fp, sp, lr}
 c005794:	e49dc004 	pop	{ip}		; (ldr ip, [sp], #4)
 c005798:	e25ef004 	subs	pc, lr, #4
 c00579c:	0c009af4 	.word	0x0c009af4
 c0057a0:	01e00024 	.word	0x01e00024

0c0057a4 <timer2_init>:
 * - Periodo del timer: 1/32 MHz = 0.03125 microsegundos
 * - Valor de cuenta mximo: 65535 (16 bits)
 * - Tiempo por ciclo completo: 65535 * 0.03125 = 2047.96875 microsegundos (~2.048 ms)
 */
void timer2_init(void)
{
 c0057a4:	e1a0c00d 	mov	ip, sp
 c0057a8:	e92dd800 	push	{fp, ip, lr, pc}
 c0057ac:	e24cb004 	sub	fp, ip, #4
	/* Configuracin del controlador de interrupciones */
	rINTMOD = 0x0;              // Configura las lneas como de tipo IRQ
 c0057b0:	e59f30ec 	ldr	r3, [pc, #236]	; c0058a4 <timer2_init+0x100>
 c0057b4:	e3a02000 	mov	r2, #0
 c0057b8:	e5832000 	str	r2, [r3]
	rINTCON = 0x1;              // Habilita int. vectorizadas y la lnea IRQ (FIQ no)
 c0057bc:	e3a0361e 	mov	r3, #31457280	; 0x1e00000
 c0057c0:	e3a02001 	mov	r2, #1
 c0057c4:	e5832000 	str	r2, [r3]
	rINTMSK &= ~(BIT_TIMER2);   // Habilita en vector de mscaras de interrupcin el Timer2
 c0057c8:	e59f30d8 	ldr	r3, [pc, #216]	; c0058a8 <timer2_init+0x104>
 c0057cc:	e59f20d4 	ldr	r2, [pc, #212]	; c0058a8 <timer2_init+0x104>
 c0057d0:	e5922000 	ldr	r2, [r2]
 c0057d4:	e3c22b02 	bic	r2, r2, #2048	; 0x800
 c0057d8:	e5832000 	str	r2, [r3]
	
	/* Establece la rutina de servicio para TIMER2 */
	pISR_TIMER2 = (unsigned) timer2_ISR;
 c0057dc:	e59f30c8 	ldr	r3, [pc, #200]	; c0058ac <timer2_init+0x108>
 c0057e0:	e59f20c8 	ldr	r2, [pc, #200]	; c0058b0 <timer2_init+0x10c>
 c0057e4:	e5832000 	str	r2, [r3]
	
	/* Configura el Timer2 para mxima precisin */
	/* TCFG0: registro de preescalado
	 * Timer2 y Timer3 comparten los bits [15:8]
	 * Preescalado = 0 para mxima precisin (divide por 1) */
	rTCFG0 &= ~(0xFF << 8);     // Limpia los bits [15:8]
 c0057e8:	e59f30c4 	ldr	r3, [pc, #196]	; c0058b4 <timer2_init+0x110>
 c0057ec:	e59f20c0 	ldr	r2, [pc, #192]	; c0058b4 <timer2_init+0x110>
 c0057f0:	e5922000 	ldr	r2, [r2]
 c0057f4:	e3c22cff 	bic	r2, r2, #65280	; 0xff00
 c0057f8:	e5832000 	str	r2, [r3]
	rTCFG0 |= (0 << 8);         // Establece preescalado = 0 (divide por 0+1 = 1)
 c0057fc:	e59f30b0 	ldr	r3, [pc, #176]	; c0058b4 <timer2_init+0x110>
 c005800:	e59f20ac 	ldr	r2, [pc, #172]	; c0058b4 <timer2_init+0x110>
 c005804:	e5922000 	ldr	r2, [r2]
 c005808:	e5832000 	str	r2, [r3]
	
	/* TCFG1: registro de seleccin de divisor
	 * Timer2 usa los bits [11:8]
	 * Valor 0000 = divisor 1/2 */
	rTCFG1 &= ~(0xF << 8);      // Limpia los bits [11:8]
 c00580c:	e59f30a4 	ldr	r3, [pc, #164]	; c0058b8 <timer2_init+0x114>
 c005810:	e59f20a0 	ldr	r2, [pc, #160]	; c0058b8 <timer2_init+0x114>
 c005814:	e5922000 	ldr	r2, [r2]
 c005818:	e3c22c0f 	bic	r2, r2, #3840	; 0xf00
 c00581c:	e5832000 	str	r2, [r3]
	rTCFG1 |= (0x0 << 8);       // Establece divisor = 1/2
 c005820:	e59f3090 	ldr	r3, [pc, #144]	; c0058b8 <timer2_init+0x114>
 c005824:	e59f208c 	ldr	r2, [pc, #140]	; c0058b8 <timer2_init+0x114>
 c005828:	e5922000 	ldr	r2, [r2]
 c00582c:	e5832000 	str	r2, [r3]
	
	/* TCNTB2: valor inicial de cuenta (cuenta descendente) 
	 * Usamos el valor mximo de 16 bits para maximizar el rango */
	rTCNTB2 = 65535;
 c005830:	e59f3084 	ldr	r3, [pc, #132]	; c0058bc <timer2_init+0x118>
 c005834:	e59f2084 	ldr	r2, [pc, #132]	; c0058c0 <timer2_init+0x11c>
 c005838:	e5832000 	str	r2, [r3]
	
	/* TCMPB2: valor de comparacin (no se usa para medicin de tiempo) */
	rTCMPB2 = 0;
 c00583c:	e59f3080 	ldr	r3, [pc, #128]	; c0058c4 <timer2_init+0x120>
 c005840:	e3a02000 	mov	r2, #0
 c005844:	e5832000 	str	r2, [r3]
	 * Bit 14: Timer2 manual update (1=update TCNTB2 y TCMPB2)
	 * Bit 13: Timer2 output inverter on/off
	 * Bit 12: Timer2 auto reload on/off (1=auto-reload) */
	
	/* Primero establecer manual update para cargar los valores */
	rTCON &= ~(0xF << 12);      // Limpia los bits del Timer2
 c005848:	e59f3078 	ldr	r3, [pc, #120]	; c0058c8 <timer2_init+0x124>
 c00584c:	e59f2074 	ldr	r2, [pc, #116]	; c0058c8 <timer2_init+0x124>
 c005850:	e5922000 	ldr	r2, [r2]
 c005854:	e3c22a0f 	bic	r2, r2, #61440	; 0xf000
 c005858:	e5832000 	str	r2, [r3]
	rTCON |= (1 << 13);         // Establece manual update
 c00585c:	e59f3064 	ldr	r3, [pc, #100]	; c0058c8 <timer2_init+0x124>
 c005860:	e59f2060 	ldr	r2, [pc, #96]	; c0058c8 <timer2_init+0x124>
 c005864:	e5922000 	ldr	r2, [r2]
 c005868:	e3822a02 	orr	r2, r2, #8192	; 0x2000
 c00586c:	e5832000 	str	r2, [r3]
	
	/* Luego iniciar el timer con auto-reload (sin manual update) */
	rTCON &= ~(0xF << 12);      // Limpia los bits del Timer2
 c005870:	e59f3050 	ldr	r3, [pc, #80]	; c0058c8 <timer2_init+0x124>
 c005874:	e59f204c 	ldr	r2, [pc, #76]	; c0058c8 <timer2_init+0x124>
 c005878:	e5922000 	ldr	r2, [r2]
 c00587c:	e3c22a0f 	bic	r2, r2, #61440	; 0xf000
 c005880:	e5832000 	str	r2, [r3]
	rTCON |= (1 << 15) | (1 << 12);  // Start + auto-reload
 c005884:	e59f303c 	ldr	r3, [pc, #60]	; c0058c8 <timer2_init+0x124>
 c005888:	e59f2038 	ldr	r2, [pc, #56]	; c0058c8 <timer2_init+0x124>
 c00588c:	e5922000 	ldr	r2, [r2]
 c005890:	e3822a09 	orr	r2, r2, #36864	; 0x9000
 c005894:	e5832000 	str	r2, [r3]
}
 c005898:	e24bd00c 	sub	sp, fp, #12
 c00589c:	e89d6800 	ldm	sp, {fp, sp, lr}
 c0058a0:	e12fff1e 	bx	lr
 c0058a4:	01e00008 	.word	0x01e00008
 c0058a8:	01e0000c 	.word	0x01e0000c
 c0058ac:	0c7fff4c 	.word	0x0c7fff4c
 c0058b0:	0c005754 	.word	0x0c005754
 c0058b4:	01d50000 	.word	0x01d50000
 c0058b8:	01d50004 	.word	0x01d50004
 c0058bc:	01d50024 	.word	0x01d50024
 c0058c0:	0000ffff 	.word	0x0000ffff
 c0058c4:	01d50028 	.word	0x01d50028
 c0058c8:	01d50008 	.word	0x01d50008

0c0058cc <timer2_start>:
/**
 * Reinicia la cuenta de tiempo y comienza a medir.
 * Resetea tanto el contador de interrupciones como el valor del timer.
 */
void timer2_start(void)
{
 c0058cc:	e1a0c00d 	mov	ip, sp
 c0058d0:	e92dd800 	push	{fp, ip, lr, pc}
 c0058d4:	e24cb004 	sub	fp, ip, #4
	/* Reiniciar el contador de interrupciones */
	timer2_numero_int = 0;
 c0058d8:	e59f306c 	ldr	r3, [pc, #108]	; c00594c <timer2_start+0x80>
 c0058dc:	e3a02000 	mov	r2, #0
 c0058e0:	e5832000 	str	r2, [r3]
	
	/* Detener el timer */
	rTCON &= ~(1 << 15);        // Clear bit 15 (stop timer2)
 c0058e4:	e59f3064 	ldr	r3, [pc, #100]	; c005950 <timer2_start+0x84>
 c0058e8:	e59f2060 	ldr	r2, [pc, #96]	; c005950 <timer2_start+0x84>
 c0058ec:	e5922000 	ldr	r2, [r2]
 c0058f0:	e3c22902 	bic	r2, r2, #32768	; 0x8000
 c0058f4:	e5832000 	str	r2, [r3]
	
	/* Recargar el valor inicial del contador */
	rTCNTB2 = 65535;
 c0058f8:	e59f3054 	ldr	r3, [pc, #84]	; c005954 <timer2_start+0x88>
 c0058fc:	e59f2054 	ldr	r2, [pc, #84]	; c005958 <timer2_start+0x8c>
 c005900:	e5832000 	str	r2, [r3]
	
	/* Establecer manual update para recargar el valor */
	rTCON |= (1 << 13);         // Set manual update
 c005904:	e59f3044 	ldr	r3, [pc, #68]	; c005950 <timer2_start+0x84>
 c005908:	e59f2040 	ldr	r2, [pc, #64]	; c005950 <timer2_start+0x84>
 c00590c:	e5922000 	ldr	r2, [r2]
 c005910:	e3822a02 	orr	r2, r2, #8192	; 0x2000
 c005914:	e5832000 	str	r2, [r3]
	
	/* Iniciar el timer con auto-reload */
	rTCON &= ~(0xF << 12);      // Limpia los bits del Timer2
 c005918:	e59f3030 	ldr	r3, [pc, #48]	; c005950 <timer2_start+0x84>
 c00591c:	e59f202c 	ldr	r2, [pc, #44]	; c005950 <timer2_start+0x84>
 c005920:	e5922000 	ldr	r2, [r2]
 c005924:	e3c22a0f 	bic	r2, r2, #61440	; 0xf000
 c005928:	e5832000 	str	r2, [r3]
	rTCON |= (1 << 15) | (1 << 12);  // Start + auto-reload
 c00592c:	e59f301c 	ldr	r3, [pc, #28]	; c005950 <timer2_start+0x84>
 c005930:	e59f2018 	ldr	r2, [pc, #24]	; c005950 <timer2_start+0x84>
 c005934:	e5922000 	ldr	r2, [r2]
 c005938:	e3822a09 	orr	r2, r2, #36864	; 0x9000
 c00593c:	e5832000 	str	r2, [r3]
}
 c005940:	e24bd00c 	sub	sp, fp, #12
 c005944:	e89d6800 	ldm	sp, {fp, sp, lr}
 c005948:	e12fff1e 	bx	lr
 c00594c:	0c009af4 	.word	0x0c009af4
 c005950:	01d50008 	.word	0x01d50008
 c005954:	01d50024 	.word	0x01d50024
 c005958:	0000ffff 	.word	0x0000ffff

0c00595c <timer2_count>:
 * - Cada tick del timer: 0.03125 microsegundos (1/32 MHz)
 * - Ticks transcurridos = (65535 - TCNTO2) + (65536 * timer2_numero_int)
 * - Tiempo (s) = ticks * 0.03125 = ticks / 32
 */
unsigned int timer2_count(void)
{
 c00595c:	e1a0c00d 	mov	ip, sp
 c005960:	e92dd800 	push	{fp, ip, lr, pc}
 c005964:	e24cb004 	sub	fp, ip, #4
 c005968:	e24dd018 	sub	sp, sp, #24
	unsigned int contador_actual;
	unsigned int ticks_totales;
	unsigned int tiempo_us;
	
	/* Leer el nmero de interrupciones de forma atmica */
	interrupciones = timer2_numero_int;
 c00596c:	e59f3054 	ldr	r3, [pc, #84]	; c0059c8 <timer2_count+0x6c>
 c005970:	e5933000 	ldr	r3, [r3]
 c005974:	e50b3010 	str	r3, [fp, #-16]
	
	/* Leer el valor actual del contador (cuenta descendente desde 65535) */
	contador_actual = rTCNTO2;
 c005978:	e59f304c 	ldr	r3, [pc, #76]	; c0059cc <timer2_count+0x70>
 c00597c:	e5933000 	ldr	r3, [r3]
 c005980:	e50b3014 	str	r3, [fp, #-20]	; 0xffffffec
	
	/* Calcular los ticks transcurridos en el periodo actual */
	/* Como cuenta descendente: ticks = valor_inicial - valor_actual */
	unsigned int ticks_periodo_actual = 65535 - contador_actual;
 c005984:	e51b3014 	ldr	r3, [fp, #-20]	; 0xffffffec
 c005988:	e2633cff 	rsb	r3, r3, #65280	; 0xff00
 c00598c:	e28330ff 	add	r3, r3, #255	; 0xff
 c005990:	e50b3018 	str	r3, [fp, #-24]	; 0xffffffe8
	
	/* Calcular el total de ticks:
	 * ticks totales = ticks de periodos completos + ticks del periodo actual */
	ticks_totales = (interrupciones * 65536) + ticks_periodo_actual;
 c005994:	e51b3010 	ldr	r3, [fp, #-16]
 c005998:	e1a02803 	lsl	r2, r3, #16
 c00599c:	e51b3018 	ldr	r3, [fp, #-24]	; 0xffffffe8
 c0059a0:	e0823003 	add	r3, r2, r3
 c0059a4:	e50b301c 	str	r3, [fp, #-28]	; 0xffffffe4
	
	/* Convertir ticks a microsegundos:
	 * Cada tick = 1/(32 MHz) = 0.03125 s
	 * Tiempo (s) = ticks / 32
	 * Para evitar usar divisin en punto flotante: ticks * 1000000 / 32000000 = ticks / 32 */
	tiempo_us = ticks_totales / 32;
 c0059a8:	e51b301c 	ldr	r3, [fp, #-28]	; 0xffffffe4
 c0059ac:	e1a032a3 	lsr	r3, r3, #5
 c0059b0:	e50b3020 	str	r3, [fp, #-32]	; 0xffffffe0
	
	return tiempo_us;
 c0059b4:	e51b3020 	ldr	r3, [fp, #-32]	; 0xffffffe0
}
 c0059b8:	e1a00003 	mov	r0, r3
 c0059bc:	e24bd00c 	sub	sp, fp, #12
 c0059c0:	e89d6800 	ldm	sp, {fp, sp, lr}
 c0059c4:	e12fff1e 	bx	lr
 c0059c8:	0c009af4 	.word	0x0c009af4
 c0059cc:	01d5002c 	.word	0x01d5002c

0c0059d0 <boton_sigue_pulsado>:
/* Declaracin de la ISR del timer3 */
void timer3_ISR(void) __attribute__((interrupt("IRQ")));

/*--- Funciones auxiliares internas ---*/
static inline int boton_sigue_pulsado(void)
{
 c0059d0:	e1a0c00d 	mov	ip, sp
 c0059d4:	e92dd800 	push	{fp, ip, lr, pc}
 c0059d8:	e24cb004 	sub	fp, ip, #4
 c0059dc:	e24dd008 	sub	sp, sp, #8
        unsigned int estado = (~rPDATG) & mascara_boton;
 c0059e0:	e59f3034 	ldr	r3, [pc, #52]	; c005a1c <boton_sigue_pulsado+0x4c>
 c0059e4:	e5933000 	ldr	r3, [r3]
 c0059e8:	e1e02003 	mvn	r2, r3
 c0059ec:	e59f302c 	ldr	r3, [pc, #44]	; c005a20 <boton_sigue_pulsado+0x50>
 c0059f0:	e5933000 	ldr	r3, [r3]
 c0059f4:	e0023003 	and	r3, r2, r3
 c0059f8:	e50b3010 	str	r3, [fp, #-16]
        return (estado != 0);
 c0059fc:	e51b3010 	ldr	r3, [fp, #-16]
 c005a00:	e3530000 	cmp	r3, #0
 c005a04:	03a03000 	moveq	r3, #0
 c005a08:	13a03001 	movne	r3, #1
}
 c005a0c:	e1a00003 	mov	r0, r3
 c005a10:	e24bd00c 	sub	sp, fp, #12
 c005a14:	e89d6800 	ldm	sp, {fp, sp, lr}
 c005a18:	e12fff1e 	bx	lr
 c005a1c:	01d20044 	.word	0x01d20044
 c005a20:	0c009b0c 	.word	0x0c009b0c

0c005a24 <timer3_detener>:

static void timer3_detener(void)
{
 c005a24:	e1a0c00d 	mov	ip, sp
 c005a28:	e92dd800 	push	{fp, ip, lr, pc}
 c005a2c:	e24cb004 	sub	fp, ip, #4
        /* Parar el timer y enmascarar la interrupcin */
        rTCON &= ~(1 << 16);             /* Bit 16 controla start/stop del timer3 */
 c005a30:	e59f302c 	ldr	r3, [pc, #44]	; c005a64 <timer3_detener+0x40>
 c005a34:	e59f2028 	ldr	r2, [pc, #40]	; c005a64 <timer3_detener+0x40>
 c005a38:	e5922000 	ldr	r2, [r2]
 c005a3c:	e3c22801 	bic	r2, r2, #65536	; 0x10000
 c005a40:	e5832000 	str	r2, [r3]
        rINTMSK |= BIT_TIMER3;
 c005a44:	e59f301c 	ldr	r3, [pc, #28]	; c005a68 <timer3_detener+0x44>
 c005a48:	e59f2018 	ldr	r2, [pc, #24]	; c005a68 <timer3_detener+0x44>
 c005a4c:	e5922000 	ldr	r2, [r2]
 c005a50:	e3822b01 	orr	r2, r2, #1024	; 0x400
 c005a54:	e5832000 	str	r2, [r3]
}
 c005a58:	e24bd00c 	sub	sp, fp, #12
 c005a5c:	e89d6800 	ldm	sp, {fp, sp, lr}
 c005a60:	e12fff1e 	bx	lr
 c005a64:	01d50008 	.word	0x01d50008
 c005a68:	01e0000c 	.word	0x01e0000c

0c005a6c <timer3_preparar_tick>:

static void timer3_preparar_tick(void)
{
 c005a6c:	e1a0c00d 	mov	ip, sp
 c005a70:	e92dd800 	push	{fp, ip, lr, pc}
 c005a74:	e24cb004 	sub	fp, ip, #4
        /* Configurar el valor de cuenta para 1 ms */
        rTCNTB3 = TIMER3_1MS_COUNT;
 c005a78:	e59f304c 	ldr	r3, [pc, #76]	; c005acc <timer3_preparar_tick+0x60>
 c005a7c:	e3a02c7d 	mov	r2, #32000	; 0x7d00
 c005a80:	e5832000 	str	r2, [r3]
        rTCMPB3 = 0;
 c005a84:	e59f3044 	ldr	r3, [pc, #68]	; c005ad0 <timer3_preparar_tick+0x64>
 c005a88:	e3a02000 	mov	r2, #0
 c005a8c:	e5832000 	str	r2, [r3]

        /* Cargar los nuevos valores (manual update) */
        rTCON = (rTCON & ~(0xF << 16)) | (1 << 17);
 c005a90:	e59f303c 	ldr	r3, [pc, #60]	; c005ad4 <timer3_preparar_tick+0x68>
 c005a94:	e59f2038 	ldr	r2, [pc, #56]	; c005ad4 <timer3_preparar_tick+0x68>
 c005a98:	e5922000 	ldr	r2, [r2]
 c005a9c:	e3c2280f 	bic	r2, r2, #983040	; 0xf0000
 c005aa0:	e3822802 	orr	r2, r2, #131072	; 0x20000
 c005aa4:	e5832000 	str	r2, [r3]
        /* Activar auto-reload y arrancar el timer */
        rTCON = (rTCON & ~(0xF << 16)) | (1 << 19) | (1 << 16);
 c005aa8:	e59f3024 	ldr	r3, [pc, #36]	; c005ad4 <timer3_preparar_tick+0x68>
 c005aac:	e59f2020 	ldr	r2, [pc, #32]	; c005ad4 <timer3_preparar_tick+0x68>
 c005ab0:	e5922000 	ldr	r2, [r2]
 c005ab4:	e3c2280f 	bic	r2, r2, #983040	; 0xf0000
 c005ab8:	e3822809 	orr	r2, r2, #589824	; 0x90000
 c005abc:	e5832000 	str	r2, [r3]
}
 c005ac0:	e24bd00c 	sub	sp, fp, #12
 c005ac4:	e89d6800 	ldm	sp, {fp, sp, lr}
 c005ac8:	e12fff1e 	bx	lr
 c005acc:	01d50030 	.word	0x01d50030
 c005ad0:	01d50034 	.word	0x01d50034
 c005ad4:	01d50008 	.word	0x01d50008

0c005ad8 <finalizar_antirrebote>:

static void finalizar_antirrebote(void)
{
 c005ad8:	e1a0c00d 	mov	ip, sp
 c005adc:	e92dd800 	push	{fp, ip, lr, pc}
 c005ae0:	e24cb004 	sub	fp, ip, #4
        /* Rehabilitar las interrupciones de los botones */
        rEXTINTPND = 0xf;
 c005ae4:	e59f3080 	ldr	r3, [pc, #128]	; c005b6c <finalizar_antirrebote+0x94>
 c005ae8:	e3a0200f 	mov	r2, #15
 c005aec:	e5832000 	str	r2, [r3]
        rINTMSK &= ~(BIT_EINT4567);
 c005af0:	e59f3078 	ldr	r3, [pc, #120]	; c005b70 <finalizar_antirrebote+0x98>
 c005af4:	e59f2074 	ldr	r2, [pc, #116]	; c005b70 <finalizar_antirrebote+0x98>
 c005af8:	e5922000 	ldr	r2, [r2]
 c005afc:	e3c22602 	bic	r2, r2, #2097152	; 0x200000
 c005b00:	e5832000 	str	r2, [r3]
        rI_ISPC |= BIT_EINT4567;
 c005b04:	e59f3068 	ldr	r3, [pc, #104]	; c005b74 <finalizar_antirrebote+0x9c>
 c005b08:	e59f2064 	ldr	r2, [pc, #100]	; c005b74 <finalizar_antirrebote+0x9c>
 c005b0c:	e5922000 	ldr	r2, [r2]
 c005b10:	e3822602 	orr	r2, r2, #2097152	; 0x200000
 c005b14:	e5832000 	str	r2, [r3]

        /* Resetear el estado interno */
        estado_actual = ESPERANDO_PULSACION;
 c005b18:	e59f3058 	ldr	r3, [pc, #88]	; c005b78 <finalizar_antirrebote+0xa0>
 c005b1c:	e3a02000 	mov	r2, #0
 c005b20:	e5c32000 	strb	r2, [r3]
        contador_ms = 0;
 c005b24:	e59f3050 	ldr	r3, [pc, #80]	; c005b7c <finalizar_antirrebote+0xa4>
 c005b28:	e3a02000 	mov	r2, #0
 c005b2c:	e5832000 	str	r2, [r3]
        monitor_ms = 0;
 c005b30:	e59f3048 	ldr	r3, [pc, #72]	; c005b80 <finalizar_antirrebote+0xa8>
 c005b34:	e3a02000 	mov	r2, #0
 c005b38:	e5832000 	str	r2, [r3]
        tiempo_pulsacion_ms = 0;
 c005b3c:	e59f3040 	ldr	r3, [pc, #64]	; c005b84 <finalizar_antirrebote+0xac>
 c005b40:	e3a02000 	mov	r2, #0
 c005b44:	e5832000 	str	r2, [r3]
        boton_en_proceso = 0;
 c005b48:	e59f3038 	ldr	r3, [pc, #56]	; c005b88 <finalizar_antirrebote+0xb0>
 c005b4c:	e3a02000 	mov	r2, #0
 c005b50:	e5c32000 	strb	r2, [r3]
        mascara_boton = 0;
 c005b54:	e59f3030 	ldr	r3, [pc, #48]	; c005b8c <finalizar_antirrebote+0xb4>
 c005b58:	e3a02000 	mov	r2, #0
 c005b5c:	e5832000 	str	r2, [r3]
}
 c005b60:	e24bd00c 	sub	sp, fp, #12
 c005b64:	e89d6800 	ldm	sp, {fp, sp, lr}
 c005b68:	e12fff1e 	bx	lr
 c005b6c:	01d20054 	.word	0x01d20054
 c005b70:	01e0000c 	.word	0x01e0000c
 c005b74:	01e00024 	.word	0x01e00024
 c005b78:	0c009af8 	.word	0x0c009af8
 c005b7c:	0c009afc 	.word	0x0c009afc
 c005b80:	0c009b00 	.word	0x0c009b00
 c005b84:	0c009b04 	.word	0x0c009b04
 c005b88:	0c009b08 	.word	0x0c009b08
 c005b8c:	0c009b0c 	.word	0x0c009b0c

0c005b90 <timer3_init>:

/*--- Cdigo de las funciones pblicas ---*/
void timer3_init(timer3_callback_t callback)
{
 c005b90:	e1a0c00d 	mov	ip, sp
 c005b94:	e92dd800 	push	{fp, ip, lr, pc}
 c005b98:	e24cb004 	sub	fp, ip, #4
 c005b9c:	e24dd008 	sub	sp, sp, #8
 c005ba0:	e50b0010 	str	r0, [fp, #-16]
        callback_validacion = callback;
 c005ba4:	e59f30d8 	ldr	r3, [pc, #216]	; c005c84 <timer3_init+0xf4>
 c005ba8:	e51b2010 	ldr	r2, [fp, #-16]
 c005bac:	e5832000 	str	r2, [r3]
        estado_actual = ESPERANDO_PULSACION;
 c005bb0:	e59f30d0 	ldr	r3, [pc, #208]	; c005c88 <timer3_init+0xf8>
 c005bb4:	e3a02000 	mov	r2, #0
 c005bb8:	e5c32000 	strb	r2, [r3]
        contador_ms = 0;
 c005bbc:	e59f30c8 	ldr	r3, [pc, #200]	; c005c8c <timer3_init+0xfc>
 c005bc0:	e3a02000 	mov	r2, #0
 c005bc4:	e5832000 	str	r2, [r3]
        monitor_ms = 0;
 c005bc8:	e59f30c0 	ldr	r3, [pc, #192]	; c005c90 <timer3_init+0x100>
 c005bcc:	e3a02000 	mov	r2, #0
 c005bd0:	e5832000 	str	r2, [r3]
        boton_en_proceso = 0;
 c005bd4:	e59f30b8 	ldr	r3, [pc, #184]	; c005c94 <timer3_init+0x104>
 c005bd8:	e3a02000 	mov	r2, #0
 c005bdc:	e5c32000 	strb	r2, [r3]
        mascara_boton = 0;
 c005be0:	e59f30b0 	ldr	r3, [pc, #176]	; c005c98 <timer3_init+0x108>
 c005be4:	e3a02000 	mov	r2, #0
 c005be8:	e5832000 	str	r2, [r3]

        /* Enmascarar la interrupcin del timer3 inicialmente */
        rINTMSK |= BIT_TIMER3;
 c005bec:	e59f30a8 	ldr	r3, [pc, #168]	; c005c9c <timer3_init+0x10c>
 c005bf0:	e59f20a4 	ldr	r2, [pc, #164]	; c005c9c <timer3_init+0x10c>
 c005bf4:	e5922000 	ldr	r2, [r2]
 c005bf8:	e3822b01 	orr	r2, r2, #1024	; 0x400
 c005bfc:	e5832000 	str	r2, [r3]

        /* Configurar el vector de interrupcin */
        pISR_TIMER3 = (unsigned) timer3_ISR;
 c005c00:	e59f3098 	ldr	r3, [pc, #152]	; c005ca0 <timer3_init+0x110>
 c005c04:	e59f2098 	ldr	r2, [pc, #152]	; c005ca4 <timer3_init+0x114>
 c005c08:	e5832000 	str	r2, [r3]

        /* Configurar divisor (1/2) compartido con el timer2 */
        rTCFG1 = (rTCFG1 & ~(0xF << 12)) | (0x0 << 12);
 c005c0c:	e59f3094 	ldr	r3, [pc, #148]	; c005ca8 <timer3_init+0x118>
 c005c10:	e59f2090 	ldr	r2, [pc, #144]	; c005ca8 <timer3_init+0x118>
 c005c14:	e5922000 	ldr	r2, [r2]
 c005c18:	e3c22a0f 	bic	r2, r2, #61440	; 0xf000
 c005c1c:	e5832000 	str	r2, [r3]

        /* Cargar el valor inicial y dejar el timer parado */
        rTCNTB3 = TIMER3_1MS_COUNT;
 c005c20:	e59f3084 	ldr	r3, [pc, #132]	; c005cac <timer3_init+0x11c>
 c005c24:	e3a02c7d 	mov	r2, #32000	; 0x7d00
 c005c28:	e5832000 	str	r2, [r3]
        rTCMPB3 = 0;
 c005c2c:	e59f307c 	ldr	r3, [pc, #124]	; c005cb0 <timer3_init+0x120>
 c005c30:	e3a02000 	mov	r2, #0
 c005c34:	e5832000 	str	r2, [r3]
        rTCON = (rTCON & ~(0xF << 16)) | (1 << 17);
 c005c38:	e59f3074 	ldr	r3, [pc, #116]	; c005cb4 <timer3_init+0x124>
 c005c3c:	e59f2070 	ldr	r2, [pc, #112]	; c005cb4 <timer3_init+0x124>
 c005c40:	e5922000 	ldr	r2, [r2]
 c005c44:	e3c2280f 	bic	r2, r2, #983040	; 0xf0000
 c005c48:	e3822802 	orr	r2, r2, #131072	; 0x20000
 c005c4c:	e5832000 	str	r2, [r3]
        rTCON &= ~(0xF << 16);
 c005c50:	e59f305c 	ldr	r3, [pc, #92]	; c005cb4 <timer3_init+0x124>
 c005c54:	e59f2058 	ldr	r2, [pc, #88]	; c005cb4 <timer3_init+0x124>
 c005c58:	e5922000 	ldr	r2, [r2]
 c005c5c:	e3c2280f 	bic	r2, r2, #983040	; 0xf0000
 c005c60:	e5832000 	str	r2, [r3]

        /* Limpiar posibles peticiones pendientes */
        rI_ISPC |= BIT_TIMER3;
 c005c64:	e59f304c 	ldr	r3, [pc, #76]	; c005cb8 <timer3_init+0x128>
 c005c68:	e59f2048 	ldr	r2, [pc, #72]	; c005cb8 <timer3_init+0x128>
 c005c6c:	e5922000 	ldr	r2, [r2]
 c005c70:	e3822b01 	orr	r2, r2, #1024	; 0x400
 c005c74:	e5832000 	str	r2, [r3]
}
 c005c78:	e24bd00c 	sub	sp, fp, #12
 c005c7c:	e89d6800 	ldm	sp, {fp, sp, lr}
 c005c80:	e12fff1e 	bx	lr
 c005c84:	0c009b10 	.word	0x0c009b10
 c005c88:	0c009af8 	.word	0x0c009af8
 c005c8c:	0c009afc 	.word	0x0c009afc
 c005c90:	0c009b00 	.word	0x0c009b00
 c005c94:	0c009b08 	.word	0x0c009b08
 c005c98:	0c009b0c 	.word	0x0c009b0c
 c005c9c:	01e0000c 	.word	0x01e0000c
 c005ca0:	0c7fff48 	.word	0x0c7fff48
 c005ca4:	0c005e00 	.word	0x0c005e00
 c005ca8:	01d50004 	.word	0x01d50004
 c005cac:	01d50030 	.word	0x01d50030
 c005cb0:	01d50034 	.word	0x01d50034
 c005cb4:	01d50008 	.word	0x01d50008
 c005cb8:	01e00024 	.word	0x01e00024

0c005cbc <timer3_start_antirrebote>:

int timer3_start_antirrebote(uint8_t boton_id)
{
 c005cbc:	e1a0c00d 	mov	ip, sp
 c005cc0:	e92dd800 	push	{fp, ip, lr, pc}
 c005cc4:	e24cb004 	sub	fp, ip, #4
 c005cc8:	e24dd008 	sub	sp, sp, #8
 c005ccc:	e1a03000 	mov	r3, r0
 c005cd0:	e54b300d 	strb	r3, [fp, #-13]
        if (estado_actual != ESPERANDO_PULSACION)
 c005cd4:	e59f30d0 	ldr	r3, [pc, #208]	; c005dac <timer3_start_antirrebote+0xf0>
 c005cd8:	e5d33000 	ldrb	r3, [r3]
 c005cdc:	e20330ff 	and	r3, r3, #255	; 0xff
 c005ce0:	e3530000 	cmp	r3, #0
 c005ce4:	0a000001 	beq	c005cf0 <timer3_start_antirrebote+0x34>
        {
                return 0;
 c005ce8:	e3a03000 	mov	r3, #0
 c005cec:	ea00002a 	b	c005d9c <timer3_start_antirrebote+0xe0>
        }

        /* Seleccionar la mscara del puerto correspondiente */
        switch (boton_id)
 c005cf0:	e55b300d 	ldrb	r3, [fp, #-13]
 c005cf4:	e3530004 	cmp	r3, #4
 c005cf8:	0a000002 	beq	c005d08 <timer3_start_antirrebote+0x4c>
 c005cfc:	e3530008 	cmp	r3, #8
 c005d00:	0a000004 	beq	c005d18 <timer3_start_antirrebote+0x5c>
 c005d04:	ea000007 	b	c005d28 <timer3_start_antirrebote+0x6c>
        {
                case EVENTO_BOTON_IZQUIERDO:
                        mascara_boton = BOTON_MASK_EINT6;
 c005d08:	e59f30a0 	ldr	r3, [pc, #160]	; c005db0 <timer3_start_antirrebote+0xf4>
 c005d0c:	e3a02040 	mov	r2, #64	; 0x40
 c005d10:	e5832000 	str	r2, [r3]
                        break;
 c005d14:	ea000005 	b	c005d30 <timer3_start_antirrebote+0x74>
                case EVENTO_BOTON_DERECHO:
                        mascara_boton = BOTON_MASK_EINT7;
 c005d18:	e59f3090 	ldr	r3, [pc, #144]	; c005db0 <timer3_start_antirrebote+0xf4>
 c005d1c:	e3a02080 	mov	r2, #128	; 0x80
 c005d20:	e5832000 	str	r2, [r3]
                        break;
 c005d24:	ea000001 	b	c005d30 <timer3_start_antirrebote+0x74>
                default:
                        return 0;
 c005d28:	e3a03000 	mov	r3, #0
 c005d2c:	ea00001a 	b	c005d9c <timer3_start_antirrebote+0xe0>
        }

        boton_en_proceso = boton_id;
 c005d30:	e59f307c 	ldr	r3, [pc, #124]	; c005db4 <timer3_start_antirrebote+0xf8>
 c005d34:	e55b200d 	ldrb	r2, [fp, #-13]
 c005d38:	e5c32000 	strb	r2, [r3]
        estado_actual = REBOTE_PRESION;
 c005d3c:	e59f3068 	ldr	r3, [pc, #104]	; c005dac <timer3_start_antirrebote+0xf0>
 c005d40:	e3a02001 	mov	r2, #1
 c005d44:	e5c32000 	strb	r2, [r3]
        contador_ms = TIMER3_TRP_MS;
 c005d48:	e59f3068 	ldr	r3, [pc, #104]	; c005db8 <timer3_start_antirrebote+0xfc>
 c005d4c:	e3a0201e 	mov	r2, #30
 c005d50:	e5832000 	str	r2, [r3]
        monitor_ms = TIMER3_MONITOR_MS;
 c005d54:	e59f3060 	ldr	r3, [pc, #96]	; c005dbc <timer3_start_antirrebote+0x100>
 c005d58:	e3a02064 	mov	r2, #100	; 0x64
 c005d5c:	e5832000 	str	r2, [r3]
        tiempo_pulsacion_ms = 0;
 c005d60:	e59f3058 	ldr	r3, [pc, #88]	; c005dc0 <timer3_start_antirrebote+0x104>
 c005d64:	e3a02000 	mov	r2, #0
 c005d68:	e5832000 	str	r2, [r3]

        /* Deshabilitar las interrupciones de los botones */
        rINTMSK |= BIT_EINT4567;
 c005d6c:	e59f3050 	ldr	r3, [pc, #80]	; c005dc4 <timer3_start_antirrebote+0x108>
 c005d70:	e59f204c 	ldr	r2, [pc, #76]	; c005dc4 <timer3_start_antirrebote+0x108>
 c005d74:	e5922000 	ldr	r2, [r2]
 c005d78:	e3822602 	orr	r2, r2, #2097152	; 0x200000
 c005d7c:	e5832000 	str	r2, [r3]

        /* Preparar y arrancar el temporizador */
        timer3_preparar_tick();
 c005d80:	ebffff39 	bl	c005a6c <timer3_preparar_tick>

        /* Habilitar la interrupcin del timer3 */
        rINTMSK &= ~(BIT_TIMER3);
 c005d84:	e59f3038 	ldr	r3, [pc, #56]	; c005dc4 <timer3_start_antirrebote+0x108>
 c005d88:	e59f2034 	ldr	r2, [pc, #52]	; c005dc4 <timer3_start_antirrebote+0x108>
 c005d8c:	e5922000 	ldr	r2, [r2]
 c005d90:	e3c22b01 	bic	r2, r2, #1024	; 0x400
 c005d94:	e5832000 	str	r2, [r3]

        return 1;
 c005d98:	e3a03001 	mov	r3, #1
}
 c005d9c:	e1a00003 	mov	r0, r3
 c005da0:	e24bd00c 	sub	sp, fp, #12
 c005da4:	e89d6800 	ldm	sp, {fp, sp, lr}
 c005da8:	e12fff1e 	bx	lr
 c005dac:	0c009af8 	.word	0x0c009af8
 c005db0:	0c009b0c 	.word	0x0c009b0c
 c005db4:	0c009b08 	.word	0x0c009b08
 c005db8:	0c009afc 	.word	0x0c009afc
 c005dbc:	0c009b00 	.word	0x0c009b00
 c005dc0:	0c009b04 	.word	0x0c009b04
 c005dc4:	01e0000c 	.word	0x01e0000c

0c005dc8 <timer3_esta_ocupado>:

int timer3_esta_ocupado(void)
{
 c005dc8:	e1a0c00d 	mov	ip, sp
 c005dcc:	e92dd800 	push	{fp, ip, lr, pc}
 c005dd0:	e24cb004 	sub	fp, ip, #4
        return (estado_actual != ESPERANDO_PULSACION);
 c005dd4:	e59f3020 	ldr	r3, [pc, #32]	; c005dfc <timer3_esta_ocupado+0x34>
 c005dd8:	e5d33000 	ldrb	r3, [r3]
 c005ddc:	e20330ff 	and	r3, r3, #255	; 0xff
 c005de0:	e3530000 	cmp	r3, #0
 c005de4:	03a03000 	moveq	r3, #0
 c005de8:	13a03001 	movne	r3, #1
}
 c005dec:	e1a00003 	mov	r0, r3
 c005df0:	e24bd00c 	sub	sp, fp, #12
 c005df4:	e89d6800 	ldm	sp, {fp, sp, lr}
 c005df8:	e12fff1e 	bx	lr
 c005dfc:	0c009af8 	.word	0x0c009af8

0c005e00 <timer3_ISR>:

/*--- Cdigo de la ISR ---*/
void timer3_ISR(void)
{
 c005e00:	e52dc004 	push	{ip}		; (str ip, [sp, #-4]!)
 c005e04:	e1a0c00d 	mov	ip, sp
 c005e08:	e92dd80f 	push	{r0, r1, r2, r3, fp, ip, lr, pc}
 c005e0c:	e24cb004 	sub	fp, ip, #4
        switch (estado_actual)
 c005e10:	e59f32b4 	ldr	r3, [pc, #692]	; c0060cc <timer3_ISR+0x2cc>
 c005e14:	e5d33000 	ldrb	r3, [r3]
 c005e18:	e20330ff 	and	r3, r3, #255	; 0xff
 c005e1c:	e2433001 	sub	r3, r3, #1
 c005e20:	e3530003 	cmp	r3, #3
 c005e24:	979ff103 	ldrls	pc, [pc, r3, lsl #2]
 c005e28:	ea000091 	b	c006074 <timer3_ISR+0x274>
 c005e2c:	0c005e3c 	.word	0x0c005e3c
 c005e30:	0c005ebc 	.word	0x0c005ebc
 c005e34:	0c005f80 	.word	0x0c005f80
 c005e38:	0c006034 	.word	0x0c006034
        {
                case REBOTE_PRESION:
                        if (contador_ms > 0)
 c005e3c:	e59f328c 	ldr	r3, [pc, #652]	; c0060d0 <timer3_ISR+0x2d0>
 c005e40:	e5933000 	ldr	r3, [r3]
 c005e44:	e3530000 	cmp	r3, #0
 c005e48:	0a000004 	beq	c005e60 <timer3_ISR+0x60>
                        {
                                contador_ms -= TIMER3_TICK_MS;
 c005e4c:	e59f327c 	ldr	r3, [pc, #636]	; c0060d0 <timer3_ISR+0x2d0>
 c005e50:	e5933000 	ldr	r3, [r3]
 c005e54:	e2432001 	sub	r2, r3, #1
 c005e58:	e59f3270 	ldr	r3, [pc, #624]	; c0060d0 <timer3_ISR+0x2d0>
 c005e5c:	e5832000 	str	r2, [r3]
                        }
                        if (contador_ms == 0)
 c005e60:	e59f3268 	ldr	r3, [pc, #616]	; c0060d0 <timer3_ISR+0x2d0>
 c005e64:	e5933000 	ldr	r3, [r3]
 c005e68:	e3530000 	cmp	r3, #0
 c005e6c:	1a000082 	bne	c00607c <timer3_ISR+0x27c>
                        {
                                /* Notificar la pulsacin validada (cuando se confirma que est pulsado) */
                                if (callback_validacion)
 c005e70:	e59f325c 	ldr	r3, [pc, #604]	; c0060d4 <timer3_ISR+0x2d4>
 c005e74:	e5933000 	ldr	r3, [r3]
 c005e78:	e3530000 	cmp	r3, #0
 c005e7c:	0a000007 	beq	c005ea0 <timer3_ISR+0xa0>
                                {
                                        callback_validacion(boton_en_proceso);
 c005e80:	e59f324c 	ldr	r3, [pc, #588]	; c0060d4 <timer3_ISR+0x2d4>
 c005e84:	e5933000 	ldr	r3, [r3]
 c005e88:	e59f2248 	ldr	r2, [pc, #584]	; c0060d8 <timer3_ISR+0x2d8>
 c005e8c:	e5d22000 	ldrb	r2, [r2]
 c005e90:	e20220ff 	and	r2, r2, #255	; 0xff
 c005e94:	e1a00002 	mov	r0, r2
 c005e98:	e1a0e00f 	mov	lr, pc
 c005e9c:	e12fff13 	bx	r3
                                }
                                
                                estado_actual = MONITORIZANDO;
 c005ea0:	e59f3224 	ldr	r3, [pc, #548]	; c0060cc <timer3_ISR+0x2cc>
 c005ea4:	e3a02002 	mov	r2, #2
 c005ea8:	e5c32000 	strb	r2, [r3]
                                monitor_ms = TIMER3_MONITOR_MS;
 c005eac:	e59f3228 	ldr	r3, [pc, #552]	; c0060dc <timer3_ISR+0x2dc>
 c005eb0:	e3a02064 	mov	r2, #100	; 0x64
 c005eb4:	e5832000 	str	r2, [r3]
                        }
                        break;
 c005eb8:	ea00007a 	b	c0060a8 <timer3_ISR+0x2a8>

                case MONITORIZANDO:
                        /* Incrementar el tiempo total de pulsacin */
                        tiempo_pulsacion_ms += TIMER3_TICK_MS;
 c005ebc:	e59f321c 	ldr	r3, [pc, #540]	; c0060e0 <timer3_ISR+0x2e0>
 c005ec0:	e5933000 	ldr	r3, [r3]
 c005ec4:	e2832001 	add	r2, r3, #1
 c005ec8:	e59f3210 	ldr	r3, [pc, #528]	; c0060e0 <timer3_ISR+0x2e0>
 c005ecc:	e5832000 	str	r2, [r3]
                        
                        if (monitor_ms > 0)
 c005ed0:	e59f3204 	ldr	r3, [pc, #516]	; c0060dc <timer3_ISR+0x2dc>
 c005ed4:	e5933000 	ldr	r3, [r3]
 c005ed8:	e3530000 	cmp	r3, #0
 c005edc:	0a000004 	beq	c005ef4 <timer3_ISR+0xf4>
                        {
                                monitor_ms -= TIMER3_TICK_MS;
 c005ee0:	e59f31f4 	ldr	r3, [pc, #500]	; c0060dc <timer3_ISR+0x2dc>
 c005ee4:	e5933000 	ldr	r3, [r3]
 c005ee8:	e2432001 	sub	r2, r3, #1
 c005eec:	e59f31e8 	ldr	r3, [pc, #488]	; c0060dc <timer3_ISR+0x2dc>
 c005ef0:	e5832000 	str	r2, [r3]
                        }
                        if (monitor_ms == 0)
 c005ef4:	e59f31e0 	ldr	r3, [pc, #480]	; c0060dc <timer3_ISR+0x2dc>
 c005ef8:	e5933000 	ldr	r3, [r3]
 c005efc:	e3530000 	cmp	r3, #0
 c005f00:	1a00005f 	bne	c006084 <timer3_ISR+0x284>
                        {
                                if (boton_sigue_pulsado())
 c005f04:	ebfffeb1 	bl	c0059d0 <boton_sigue_pulsado>
 c005f08:	e1a03000 	mov	r3, r0
 c005f0c:	e3530000 	cmp	r3, #0
 c005f10:	0a000013 	beq	c005f64 <timer3_ISR+0x164>
                                {
                                        monitor_ms = TIMER3_MONITOR_MS;
 c005f14:	e59f31c0 	ldr	r3, [pc, #448]	; c0060dc <timer3_ISR+0x2dc>
 c005f18:	e3a02064 	mov	r2, #100	; 0x64
 c005f1c:	e5832000 	str	r2, [r3]
                                        
                                        /* Comprobar si se debe activar auto-repeticin */
                                        if (tiempo_pulsacion_ms >= TIMER3_TIEMPO_AUTOREPETICION_MS)
 c005f20:	e59f31b8 	ldr	r3, [pc, #440]	; c0060e0 <timer3_ISR+0x2e0>
 c005f24:	e5932000 	ldr	r2, [r3]
 c005f28:	e59f31b4 	ldr	r3, [pc, #436]	; c0060e4 <timer3_ISR+0x2e4>
 c005f2c:	e1520003 	cmp	r2, r3
 c005f30:	9a000055 	bls	c00608c <timer3_ISR+0x28c>
                                        {
                                                /* Activar auto-repeticin solo para botn derecho */
                                                if (boton_en_proceso == EVENTO_BOTON_DERECHO)
 c005f34:	e59f319c 	ldr	r3, [pc, #412]	; c0060d8 <timer3_ISR+0x2d8>
 c005f38:	e5d33000 	ldrb	r3, [r3]
 c005f3c:	e20330ff 	and	r3, r3, #255	; 0xff
 c005f40:	e3530008 	cmp	r3, #8
 c005f44:	1a000052 	bne	c006094 <timer3_ISR+0x294>
                                                {
                                                        estado_actual = AUTOREPETICION;
 c005f48:	e59f317c 	ldr	r3, [pc, #380]	; c0060cc <timer3_ISR+0x2cc>
 c005f4c:	e3a02003 	mov	r2, #3
 c005f50:	e5c32000 	strb	r2, [r3]
                                                        contador_ms = TIMER3_PERIODO_AUTOREPETICION_MS;
 c005f54:	e59f3174 	ldr	r3, [pc, #372]	; c0060d0 <timer3_ISR+0x2d0>
 c005f58:	e3a02f4b 	mov	r2, #300	; 0x12c
 c005f5c:	e5832000 	str	r2, [r3]
                                {
                                        estado_actual = REBOTE_DEPRESION;
                                        contador_ms = TIMER3_TRD_MS;
                                }
                        }
                        break;
 c005f60:	ea000050 	b	c0060a8 <timer3_ISR+0x2a8>
                                                }
                                        }
                                }
                                else
                                {
                                        estado_actual = REBOTE_DEPRESION;
 c005f64:	e59f3160 	ldr	r3, [pc, #352]	; c0060cc <timer3_ISR+0x2cc>
 c005f68:	e3a02004 	mov	r2, #4
 c005f6c:	e5c32000 	strb	r2, [r3]
                                        contador_ms = TIMER3_TRD_MS;
 c005f70:	e59f3158 	ldr	r3, [pc, #344]	; c0060d0 <timer3_ISR+0x2d0>
 c005f74:	e3a0201e 	mov	r2, #30
 c005f78:	e5832000 	str	r2, [r3]
                                }
                        }
                        break;
 c005f7c:	ea000049 	b	c0060a8 <timer3_ISR+0x2a8>

                case AUTOREPETICION:
                        /* Incrementar el tiempo total de pulsacin */
                        tiempo_pulsacion_ms += TIMER3_TICK_MS;
 c005f80:	e59f3158 	ldr	r3, [pc, #344]	; c0060e0 <timer3_ISR+0x2e0>
 c005f84:	e5933000 	ldr	r3, [r3]
 c005f88:	e2832001 	add	r2, r3, #1
 c005f8c:	e59f314c 	ldr	r3, [pc, #332]	; c0060e0 <timer3_ISR+0x2e0>
 c005f90:	e5832000 	str	r2, [r3]
                        
                        if (contador_ms > 0)
 c005f94:	e59f3134 	ldr	r3, [pc, #308]	; c0060d0 <timer3_ISR+0x2d0>
 c005f98:	e5933000 	ldr	r3, [r3]
 c005f9c:	e3530000 	cmp	r3, #0
 c005fa0:	0a000004 	beq	c005fb8 <timer3_ISR+0x1b8>
                        {
                                contador_ms -= TIMER3_TICK_MS;
 c005fa4:	e59f3124 	ldr	r3, [pc, #292]	; c0060d0 <timer3_ISR+0x2d0>
 c005fa8:	e5933000 	ldr	r3, [r3]
 c005fac:	e2432001 	sub	r2, r3, #1
 c005fb0:	e59f3118 	ldr	r3, [pc, #280]	; c0060d0 <timer3_ISR+0x2d0>
 c005fb4:	e5832000 	str	r2, [r3]
                        }
                        if (contador_ms == 0)
 c005fb8:	e59f3110 	ldr	r3, [pc, #272]	; c0060d0 <timer3_ISR+0x2d0>
 c005fbc:	e5933000 	ldr	r3, [r3]
 c005fc0:	e3530000 	cmp	r3, #0
 c005fc4:	1a000034 	bne	c00609c <timer3_ISR+0x29c>
                        {
                                if (boton_sigue_pulsado())
 c005fc8:	ebfffe80 	bl	c0059d0 <boton_sigue_pulsado>
 c005fcc:	e1a03000 	mov	r3, r0
 c005fd0:	e3530000 	cmp	r3, #0
 c005fd4:	0a00000f 	beq	c006018 <timer3_ISR+0x218>
                                {
                                        /* Generar evento de auto-incremento */
                                        if (callback_validacion)
 c005fd8:	e59f30f4 	ldr	r3, [pc, #244]	; c0060d4 <timer3_ISR+0x2d4>
 c005fdc:	e5933000 	ldr	r3, [r3]
 c005fe0:	e3530000 	cmp	r3, #0
 c005fe4:	0a000007 	beq	c006008 <timer3_ISR+0x208>
                                        {
                                                callback_validacion(boton_en_proceso);
 c005fe8:	e59f30e4 	ldr	r3, [pc, #228]	; c0060d4 <timer3_ISR+0x2d4>
 c005fec:	e5933000 	ldr	r3, [r3]
 c005ff0:	e59f20e0 	ldr	r2, [pc, #224]	; c0060d8 <timer3_ISR+0x2d8>
 c005ff4:	e5d22000 	ldrb	r2, [r2]
 c005ff8:	e20220ff 	and	r2, r2, #255	; 0xff
 c005ffc:	e1a00002 	mov	r0, r2
 c006000:	e1a0e00f 	mov	lr, pc
 c006004:	e12fff13 	bx	r3
                                        }
                                        
                                        /* Reiniciar contador para siguiente auto-incremento */
                                        contador_ms = TIMER3_PERIODO_AUTOREPETICION_MS;
 c006008:	e59f30c0 	ldr	r3, [pc, #192]	; c0060d0 <timer3_ISR+0x2d0>
 c00600c:	e3a02f4b 	mov	r2, #300	; 0x12c
 c006010:	e5832000 	str	r2, [r3]
                                {
                                        estado_actual = REBOTE_DEPRESION;
                                        contador_ms = TIMER3_TRD_MS;
                                }
                        }
                        break;
 c006014:	ea000023 	b	c0060a8 <timer3_ISR+0x2a8>
                                        /* Reiniciar contador para siguiente auto-incremento */
                                        contador_ms = TIMER3_PERIODO_AUTOREPETICION_MS;
                                }
                                else
                                {
                                        estado_actual = REBOTE_DEPRESION;
 c006018:	e59f30ac 	ldr	r3, [pc, #172]	; c0060cc <timer3_ISR+0x2cc>
 c00601c:	e3a02004 	mov	r2, #4
 c006020:	e5c32000 	strb	r2, [r3]
                                        contador_ms = TIMER3_TRD_MS;
 c006024:	e59f30a4 	ldr	r3, [pc, #164]	; c0060d0 <timer3_ISR+0x2d0>
 c006028:	e3a0201e 	mov	r2, #30
 c00602c:	e5832000 	str	r2, [r3]
                                }
                        }
                        break;
 c006030:	ea00001c 	b	c0060a8 <timer3_ISR+0x2a8>

                case REBOTE_DEPRESION:
                        if (contador_ms > 0)
 c006034:	e59f3094 	ldr	r3, [pc, #148]	; c0060d0 <timer3_ISR+0x2d0>
 c006038:	e5933000 	ldr	r3, [r3]
 c00603c:	e3530000 	cmp	r3, #0
 c006040:	0a000004 	beq	c006058 <timer3_ISR+0x258>
                        {
                                contador_ms -= TIMER3_TICK_MS;
 c006044:	e59f3084 	ldr	r3, [pc, #132]	; c0060d0 <timer3_ISR+0x2d0>
 c006048:	e5933000 	ldr	r3, [r3]
 c00604c:	e2432001 	sub	r2, r3, #1
 c006050:	e59f3078 	ldr	r3, [pc, #120]	; c0060d0 <timer3_ISR+0x2d0>
 c006054:	e5832000 	str	r2, [r3]
                        }
                        if (contador_ms == 0)
 c006058:	e59f3070 	ldr	r3, [pc, #112]	; c0060d0 <timer3_ISR+0x2d0>
 c00605c:	e5933000 	ldr	r3, [r3]
 c006060:	e3530000 	cmp	r3, #0
 c006064:	1a00000e 	bne	c0060a4 <timer3_ISR+0x2a4>
                        {
                                /* Detener el temporizador */
                                timer3_detener();
 c006068:	ebfffe6d 	bl	c005a24 <timer3_detener>
                                
                                /* Finalizar el proceso de antirrebote */
                                finalizar_antirrebote();
 c00606c:	ebfffe99 	bl	c005ad8 <finalizar_antirrebote>
                        }
                        break;
 c006070:	ea00000c 	b	c0060a8 <timer3_ISR+0x2a8>

                default:
                        break;
 c006074:	e1a00000 	nop			; (mov r0, r0)
 c006078:	ea00000a 	b	c0060a8 <timer3_ISR+0x2a8>
                                }
                                
                                estado_actual = MONITORIZANDO;
                                monitor_ms = TIMER3_MONITOR_MS;
                        }
                        break;
 c00607c:	e1a00000 	nop			; (mov r0, r0)
 c006080:	ea000008 	b	c0060a8 <timer3_ISR+0x2a8>
                                {
                                        estado_actual = REBOTE_DEPRESION;
                                        contador_ms = TIMER3_TRD_MS;
                                }
                        }
                        break;
 c006084:	e1a00000 	nop			; (mov r0, r0)
 c006088:	ea000006 	b	c0060a8 <timer3_ISR+0x2a8>
 c00608c:	e1a00000 	nop			; (mov r0, r0)
 c006090:	ea000004 	b	c0060a8 <timer3_ISR+0x2a8>
 c006094:	e1a00000 	nop			; (mov r0, r0)
 c006098:	ea000002 	b	c0060a8 <timer3_ISR+0x2a8>
                                {
                                        estado_actual = REBOTE_DEPRESION;
                                        contador_ms = TIMER3_TRD_MS;
                                }
                        }
                        break;
 c00609c:	e1a00000 	nop			; (mov r0, r0)
 c0060a0:	ea000000 	b	c0060a8 <timer3_ISR+0x2a8>
                                timer3_detener();
                                
                                /* Finalizar el proceso de antirrebote */
                                finalizar_antirrebote();
                        }
                        break;
 c0060a4:	e1a00000 	nop			; (mov r0, r0)
                default:
                        break;
        }

        /* Limpiar la peticin de interrupcin */
        rI_ISPC |= BIT_TIMER3;
 c0060a8:	e59f3038 	ldr	r3, [pc, #56]	; c0060e8 <timer3_ISR+0x2e8>
 c0060ac:	e59f2034 	ldr	r2, [pc, #52]	; c0060e8 <timer3_ISR+0x2e8>
 c0060b0:	e5922000 	ldr	r2, [r2]
 c0060b4:	e3822b01 	orr	r2, r2, #1024	; 0x400
 c0060b8:	e5832000 	str	r2, [r3]
}
 c0060bc:	e24bd01c 	sub	sp, fp, #28
 c0060c0:	e89d680f 	ldm	sp, {r0, r1, r2, r3, fp, sp, lr}
 c0060c4:	e49dc004 	pop	{ip}		; (ldr ip, [sp], #4)
 c0060c8:	e25ef004 	subs	pc, lr, #4
 c0060cc:	0c009af8 	.word	0x0c009af8
 c0060d0:	0c009afc 	.word	0x0c009afc
 c0060d4:	0c009b10 	.word	0x0c009b10
 c0060d8:	0c009b08 	.word	0x0c009b08
 c0060dc:	0c009b00 	.word	0x0c009b00
 c0060e0:	0c009b04 	.word	0x0c009b04
 c0060e4:	000001f3 	.word	0x000001f3
 c0060e8:	01e00024 	.word	0x01e00024

0c0060ec <TS_Test>:
#include "lcd.h"

void TSInt(void) __attribute__((interrupt("IRQ")));

void TS_Test(void)
{
 c0060ec:	e1a0c00d 	mov	ip, sp
 c0060f0:	e92dd800 	push	{fp, ip, lr, pc}
 c0060f4:	e24cb004 	sub	fp, ip, #4
		Lcd_TC();
 c0060f8:	eb000132 	bl	c0065c8 <Lcd_TC>
		TS_init();
 c0060fc:	eb0000e6 	bl	c00649c <TS_init>
		Check_Sel();
 c006100:	eb00025b 	bl	c006a74 <Check_Sel>
			
//		Uart_Printf("\n Pixel: 320 X 240. Coordinate Rang in: (0,0) - (320,240)\n");
//		Uart_Printf("\nLCD TouchScreen Test Example(please touch LCD screen)\n");
}
 c006104:	e24bd00c 	sub	sp, fp, #12
 c006108:	e89d6800 	ldm	sp, {fp, sp, lr}
 c00610c:	e12fff1e 	bx	lr

0c006110 <TSInt>:
* ret:		none
* modify:
* comment:		
********************************************************************************************/
void TSInt(void)
{
 c006110:	e52dc004 	push	{ip}		; (str ip, [sp, #-4]!)
 c006114:	e1a0c00d 	mov	ip, sp
 c006118:	e92dd80f 	push	{r0, r1, r2, r3, fp, ip, lr, pc}
 c00611c:	e24cb004 	sub	fp, ip, #4
 c006120:	e24dd028 	sub	sp, sp, #40	; 0x28
    int   i;
    char fail = 0;
 c006124:	e3a03000 	mov	r3, #0
 c006128:	e54b3025 	strb	r3, [fp, #-37]	; 0xffffffdb
    ULONG Pt[6];

	// <X-Position Read>
	// TSPX(GPE4_Q4(+)) TSPY(GPE5_Q3(-)) TSMY(GPE6_Q2(+)) TSMX(GPE7_Q1(-))
    //       0               1                 1                0
	rPDATE=0x68;
 c00612c:	e59f3340 	ldr	r3, [pc, #832]	; c006474 <TSInt+0x364>
 c006130:	e3a02068 	mov	r2, #104	; 0x68
 c006134:	e5832000 	str	r2, [r3]
	rADCCON=0x1<<2;			// AIN1
 c006138:	e3a03775 	mov	r3, #30670848	; 0x1d40000
 c00613c:	e3a02004 	mov	r2, #4
 c006140:	e5832000 	str	r2, [r3]
	
	DelayTime(1000);                // delay to set up the next channel
 c006144:	e3a00ffa 	mov	r0, #1000	; 0x3e8
 c006148:	ebffe9d6 	bl	c0008a8 <DelayTime>
	for( i=0; i<5; i++ )
 c00614c:	e3a03000 	mov	r3, #0
 c006150:	e50b3020 	str	r3, [fp, #-32]	; 0xffffffe0
 c006154:	ea00001f 	b	c0061d8 <TSInt+0xc8>
	{
		rADCCON |= 0x1;				// Start X-position A/D conversion
 c006158:	e3a03775 	mov	r3, #30670848	; 0x1d40000
 c00615c:	e3a02775 	mov	r2, #30670848	; 0x1d40000
 c006160:	e5922000 	ldr	r2, [r2]
 c006164:	e3822001 	orr	r2, r2, #1
 c006168:	e5832000 	str	r2, [r3]
	    while( rADCCON & 0x1 );		// Check if Enable_start is low
 c00616c:	e1a00000 	nop			; (mov r0, r0)
 c006170:	e3a03775 	mov	r3, #30670848	; 0x1d40000
 c006174:	e5933000 	ldr	r3, [r3]
 c006178:	e2033001 	and	r3, r3, #1
 c00617c:	e20330ff 	and	r3, r3, #255	; 0xff
 c006180:	e3530000 	cmp	r3, #0
 c006184:	1afffff9 	bne	c006170 <TSInt+0x60>
    	while( !(rADCCON & 0x40) );	// Check ECFLG
 c006188:	e1a00000 	nop			; (mov r0, r0)
 c00618c:	e3a03775 	mov	r3, #30670848	; 0x1d40000
 c006190:	e5933000 	ldr	r3, [r3]
 c006194:	e2033040 	and	r3, r3, #64	; 0x40
 c006198:	e3530000 	cmp	r3, #0
 c00619c:	0afffffa 	beq	c00618c <TSInt+0x7c>
	    Pt[i] = (0x3ff&rADCDAT);
 c0061a0:	e59f32d0 	ldr	r3, [pc, #720]	; c006478 <TSInt+0x368>
 c0061a4:	e5933000 	ldr	r3, [r3]
 c0061a8:	e1a03b03 	lsl	r3, r3, #22
 c0061ac:	e1a03b23 	lsr	r3, r3, #22
 c0061b0:	e51b1020 	ldr	r1, [fp, #-32]	; 0xffffffe0
 c0061b4:	e3e02023 	mvn	r2, #35	; 0x23
 c0061b8:	e1a01101 	lsl	r1, r1, #2
 c0061bc:	e24b001c 	sub	r0, fp, #28
 c0061c0:	e0801001 	add	r1, r0, r1
 c0061c4:	e0812002 	add	r2, r1, r2
 c0061c8:	e5823000 	str	r3, [r2]
    //       0               1                 1                0
	rPDATE=0x68;
	rADCCON=0x1<<2;			// AIN1
	
	DelayTime(1000);                // delay to set up the next channel
	for( i=0; i<5; i++ )
 c0061cc:	e51b3020 	ldr	r3, [fp, #-32]	; 0xffffffe0
 c0061d0:	e2833001 	add	r3, r3, #1
 c0061d4:	e50b3020 	str	r3, [fp, #-32]	; 0xffffffe0
 c0061d8:	e51b3020 	ldr	r3, [fp, #-32]	; 0xffffffe0
 c0061dc:	e3530004 	cmp	r3, #4
 c0061e0:	daffffdc 	ble	c006158 <TSInt+0x48>
	    while( rADCCON & 0x1 );		// Check if Enable_start is low
    	while( !(rADCCON & 0x40) );	// Check ECFLG
	    Pt[i] = (0x3ff&rADCDAT);
	}
	// read X-position average value
	Pt[5] = (Pt[0]+Pt[1]+Pt[2]+Pt[3]+Pt[4])/5;
 c0061e4:	e51b2040 	ldr	r2, [fp, #-64]	; 0xffffffc0
 c0061e8:	e51b303c 	ldr	r3, [fp, #-60]	; 0xffffffc4
 c0061ec:	e0822003 	add	r2, r2, r3
 c0061f0:	e51b3038 	ldr	r3, [fp, #-56]	; 0xffffffc8
 c0061f4:	e0822003 	add	r2, r2, r3
 c0061f8:	e51b3034 	ldr	r3, [fp, #-52]	; 0xffffffcc
 c0061fc:	e0822003 	add	r2, r2, r3
 c006200:	e51b3030 	ldr	r3, [fp, #-48]	; 0xffffffd0
 c006204:	e0822003 	add	r2, r2, r3
 c006208:	e59f326c 	ldr	r3, [pc, #620]	; c00647c <TSInt+0x36c>
 c00620c:	e0831392 	umull	r1, r3, r2, r3
 c006210:	e1a03123 	lsr	r3, r3, #2
 c006214:	e50b302c 	str	r3, [fp, #-44]	; 0xffffffd4
	
	tmp = Pt[5];	
 c006218:	e51b302c 	ldr	r3, [fp, #-44]	; 0xffffffd4
 c00621c:	e50b3024 	str	r3, [fp, #-36]	; 0xffffffdc
	
    // <Y-Position Read>
	// TSPX(GPE4_Q4(-)) TSPY(GPE5_Q3(+)) TSMY(GPE6_Q2(-)) TSMX(GPE7_Q1(+))
    //       1               0                 0                1
	rPDATE=0x98;
 c006220:	e59f324c 	ldr	r3, [pc, #588]	; c006474 <TSInt+0x364>
 c006224:	e3a02098 	mov	r2, #152	; 0x98
 c006228:	e5832000 	str	r2, [r3]
	rADCCON=0x0<<2;		        	// AIN0
 c00622c:	e3a03775 	mov	r3, #30670848	; 0x1d40000
 c006230:	e3a02000 	mov	r2, #0
 c006234:	e5832000 	str	r2, [r3]
	
	DelayTime(1000);                // delay to set up the next channel
 c006238:	e3a00ffa 	mov	r0, #1000	; 0x3e8
 c00623c:	ebffe999 	bl	c0008a8 <DelayTime>
	for( i=0; i<5; i++ )
 c006240:	e3a03000 	mov	r3, #0
 c006244:	e50b3020 	str	r3, [fp, #-32]	; 0xffffffe0
 c006248:	ea00001f 	b	c0062cc <TSInt+0x1bc>
	{
    	rADCCON |= 0x1;             // Start Y-position conversion
 c00624c:	e3a03775 	mov	r3, #30670848	; 0x1d40000
 c006250:	e3a02775 	mov	r2, #30670848	; 0x1d40000
 c006254:	e5922000 	ldr	r2, [r2]
 c006258:	e3822001 	orr	r2, r2, #1
 c00625c:	e5832000 	str	r2, [r3]
	    while( rADCCON & 0x1 );     // Check if Enable_start is low
 c006260:	e1a00000 	nop			; (mov r0, r0)
 c006264:	e3a03775 	mov	r3, #30670848	; 0x1d40000
 c006268:	e5933000 	ldr	r3, [r3]
 c00626c:	e2033001 	and	r3, r3, #1
 c006270:	e20330ff 	and	r3, r3, #255	; 0xff
 c006274:	e3530000 	cmp	r3, #0
 c006278:	1afffff9 	bne	c006264 <TSInt+0x154>
    	while( !(rADCCON & 0x40) ); // Check ECFLG
 c00627c:	e1a00000 	nop			; (mov r0, r0)
 c006280:	e3a03775 	mov	r3, #30670848	; 0x1d40000
 c006284:	e5933000 	ldr	r3, [r3]
 c006288:	e2033040 	and	r3, r3, #64	; 0x40
 c00628c:	e3530000 	cmp	r3, #0
 c006290:	0afffffa 	beq	c006280 <TSInt+0x170>
	    Pt[i] = (0x3ff&rADCDAT);
 c006294:	e59f31dc 	ldr	r3, [pc, #476]	; c006478 <TSInt+0x368>
 c006298:	e5933000 	ldr	r3, [r3]
 c00629c:	e1a03b03 	lsl	r3, r3, #22
 c0062a0:	e1a03b23 	lsr	r3, r3, #22
 c0062a4:	e51b1020 	ldr	r1, [fp, #-32]	; 0xffffffe0
 c0062a8:	e3e02023 	mvn	r2, #35	; 0x23
 c0062ac:	e1a01101 	lsl	r1, r1, #2
 c0062b0:	e24b001c 	sub	r0, fp, #28
 c0062b4:	e0801001 	add	r1, r0, r1
 c0062b8:	e0812002 	add	r2, r1, r2
 c0062bc:	e5823000 	str	r3, [r2]
    //       1               0                 0                1
	rPDATE=0x98;
	rADCCON=0x0<<2;		        	// AIN0
	
	DelayTime(1000);                // delay to set up the next channel
	for( i=0; i<5; i++ )
 c0062c0:	e51b3020 	ldr	r3, [fp, #-32]	; 0xffffffe0
 c0062c4:	e2833001 	add	r3, r3, #1
 c0062c8:	e50b3020 	str	r3, [fp, #-32]	; 0xffffffe0
 c0062cc:	e51b3020 	ldr	r3, [fp, #-32]	; 0xffffffe0
 c0062d0:	e3530004 	cmp	r3, #4
 c0062d4:	daffffdc 	ble	c00624c <TSInt+0x13c>
	    while( rADCCON & 0x1 );     // Check if Enable_start is low
    	while( !(rADCCON & 0x40) ); // Check ECFLG
	    Pt[i] = (0x3ff&rADCDAT);
	}
	// read Y-position average value
	Pt[5] = (Pt[0]+Pt[1]+Pt[2]+Pt[3]+Pt[4])/5;
 c0062d8:	e51b2040 	ldr	r2, [fp, #-64]	; 0xffffffc0
 c0062dc:	e51b303c 	ldr	r3, [fp, #-60]	; 0xffffffc4
 c0062e0:	e0822003 	add	r2, r2, r3
 c0062e4:	e51b3038 	ldr	r3, [fp, #-56]	; 0xffffffc8
 c0062e8:	e0822003 	add	r2, r2, r3
 c0062ec:	e51b3034 	ldr	r3, [fp, #-52]	; 0xffffffcc
 c0062f0:	e0822003 	add	r2, r2, r3
 c0062f4:	e51b3030 	ldr	r3, [fp, #-48]	; 0xffffffd0
 c0062f8:	e0822003 	add	r2, r2, r3
 c0062fc:	e59f3178 	ldr	r3, [pc, #376]	; c00647c <TSInt+0x36c>
 c006300:	e0831392 	umull	r1, r3, r2, r3
 c006304:	e1a03123 	lsr	r3, r3, #2
 c006308:	e50b302c 	str	r3, [fp, #-44]	; 0xffffffd4
     
	if(!(CheckTSP|(tmp < Xmin)|(tmp > Xmax)|(Pt[5] < Ymin)|(Pt[5] > Ymax)))   // Is valid value?
 c00630c:	e59f316c 	ldr	r3, [pc, #364]	; c006480 <TSInt+0x370>
 c006310:	e5933000 	ldr	r3, [r3]
 c006314:	e51b2024 	ldr	r2, [fp, #-36]	; 0xffffffdc
 c006318:	e1520003 	cmp	r2, r3
 c00631c:	23a02000 	movcs	r2, #0
 c006320:	33a02001 	movcc	r2, #1
 c006324:	e59f3158 	ldr	r3, [pc, #344]	; c006484 <TSInt+0x374>
 c006328:	e5933000 	ldr	r3, [r3]
 c00632c:	e1822003 	orr	r2, r2, r3
 c006330:	e59f3150 	ldr	r3, [pc, #336]	; c006488 <TSInt+0x378>
 c006334:	e5933000 	ldr	r3, [r3]
 c006338:	e51b1024 	ldr	r1, [fp, #-36]	; 0xffffffdc
 c00633c:	e1510003 	cmp	r1, r3
 c006340:	93a03000 	movls	r3, #0
 c006344:	83a03001 	movhi	r3, #1
 c006348:	e1822003 	orr	r2, r2, r3
 c00634c:	e51b102c 	ldr	r1, [fp, #-44]	; 0xffffffd4
 c006350:	e59f3134 	ldr	r3, [pc, #308]	; c00648c <TSInt+0x37c>
 c006354:	e5933000 	ldr	r3, [r3]
 c006358:	e1510003 	cmp	r1, r3
 c00635c:	23a03000 	movcs	r3, #0
 c006360:	33a03001 	movcc	r3, #1
 c006364:	e1822003 	orr	r2, r2, r3
 c006368:	e51b102c 	ldr	r1, [fp, #-44]	; 0xffffffd4
 c00636c:	e59f311c 	ldr	r3, [pc, #284]	; c006490 <TSInt+0x380>
 c006370:	e5933000 	ldr	r3, [r3]
 c006374:	e1510003 	cmp	r1, r3
 c006378:	93a03000 	movls	r3, #0
 c00637c:	83a03001 	movhi	r3, #1
 c006380:	e1823003 	orr	r3, r2, r3
 c006384:	e3530000 	cmp	r3, #0
 c006388:	1a000025 	bne	c006424 <TSInt+0x314>
	  {
		tmp = 320*(tmp - Xmin)/(Xmax - Xmin);   // X - position
 c00638c:	e59f30ec 	ldr	r3, [pc, #236]	; c006480 <TSInt+0x370>
 c006390:	e5933000 	ldr	r3, [r3]
 c006394:	e51b2024 	ldr	r2, [fp, #-36]	; 0xffffffdc
 c006398:	e0632002 	rsb	r2, r3, r2
 c00639c:	e1a03002 	mov	r3, r2
 c0063a0:	e1a03103 	lsl	r3, r3, #2
 c0063a4:	e0833002 	add	r3, r3, r2
 c0063a8:	e1a03303 	lsl	r3, r3, #6
 c0063ac:	e1a02003 	mov	r2, r3
 c0063b0:	e59f30d0 	ldr	r3, [pc, #208]	; c006488 <TSInt+0x378>
 c0063b4:	e5931000 	ldr	r1, [r3]
 c0063b8:	e59f30c0 	ldr	r3, [pc, #192]	; c006480 <TSInt+0x370>
 c0063bc:	e5933000 	ldr	r3, [r3]
 c0063c0:	e0633001 	rsb	r3, r3, r1
 c0063c4:	e1a00002 	mov	r0, r2
 c0063c8:	e1a01003 	mov	r1, r3
 c0063cc:	eb0001ea 	bl	c006b7c <__aeabi_uidiv>
 c0063d0:	e1a03000 	mov	r3, r0
 c0063d4:	e50b3024 	str	r3, [fp, #-36]	; 0xffffffdc
//		Uart_Printf("X-Posion[AIN1] is %04d   ", tmp);
			
		Pt[5] = 240*(Pt[5] - Xmin)/(Ymax - Ymin);
 c0063d8:	e51b202c 	ldr	r2, [fp, #-44]	; 0xffffffd4
 c0063dc:	e59f309c 	ldr	r3, [pc, #156]	; c006480 <TSInt+0x370>
 c0063e0:	e5933000 	ldr	r3, [r3]
 c0063e4:	e0632002 	rsb	r2, r3, r2
 c0063e8:	e1a03002 	mov	r3, r2
 c0063ec:	e1a03203 	lsl	r3, r3, #4
 c0063f0:	e0623003 	rsb	r3, r2, r3
 c0063f4:	e1a03203 	lsl	r3, r3, #4
 c0063f8:	e1a02003 	mov	r2, r3
 c0063fc:	e59f308c 	ldr	r3, [pc, #140]	; c006490 <TSInt+0x380>
 c006400:	e5931000 	ldr	r1, [r3]
 c006404:	e59f3080 	ldr	r3, [pc, #128]	; c00648c <TSInt+0x37c>
 c006408:	e5933000 	ldr	r3, [r3]
 c00640c:	e0633001 	rsb	r3, r3, r1
 c006410:	e1a00002 	mov	r0, r2
 c006414:	e1a01003 	mov	r1, r3
 c006418:	eb0001d7 	bl	c006b7c <__aeabi_uidiv>
 c00641c:	e1a03000 	mov	r3, r0
 c006420:	e50b302c 	str	r3, [fp, #-44]	; 0xffffffd4
//		Uart_Printf("  Y-Posion[AIN0] is %04d\n", Pt[5]);
      }

    if(CheckTSP)
 c006424:	e59f3058 	ldr	r3, [pc, #88]	; c006484 <TSInt+0x374>
 c006428:	e5933000 	ldr	r3, [r3]
 c00642c:	e3530000 	cmp	r3, #0
 c006430:	0a000003 	beq	c006444 <TSInt+0x334>
 	/*----------- check to ensure Xmax Ymax Xmin Ymin ------------*/
 	    DesignREC(tmp,Pt[5]);
 c006434:	e51b302c 	ldr	r3, [fp, #-44]	; 0xffffffd4
 c006438:	e51b0024 	ldr	r0, [fp, #-36]	; 0xffffffdc
 c00643c:	e1a01003 	mov	r1, r3
 c006440:	eb00013e 	bl	c006940 <DesignREC>

	rPDATE = 0xb8;                  // should be enabled	
 c006444:	e59f3028 	ldr	r3, [pc, #40]	; c006474 <TSInt+0x364>
 c006448:	e3a020b8 	mov	r2, #184	; 0xb8
 c00644c:	e5832000 	str	r2, [r3]
	DelayTime(3000);                // delay to set up the next channel	
 c006450:	e59f003c 	ldr	r0, [pc, #60]	; c006494 <TSInt+0x384>
 c006454:	ebffe913 	bl	c0008a8 <DelayTime>

    rI_ISPC = BIT_EINT2;            // clear pending_bit
 c006458:	e59f3038 	ldr	r3, [pc, #56]	; c006498 <TSInt+0x388>
 c00645c:	e3a02502 	mov	r2, #8388608	; 0x800000
 c006460:	e5832000 	str	r2, [r3]
}
 c006464:	e24bd01c 	sub	sp, fp, #28
 c006468:	e89d680f 	ldm	sp, {r0, r1, r2, r3, fp, sp, lr}
 c00646c:	e49dc004 	pop	{ip}		; (ldr ip, [sp], #4)
 c006470:	e25ef004 	subs	pc, lr, #4
 c006474:	01d2002c 	.word	0x01d2002c
 c006478:	01d40008 	.word	0x01d40008
 c00647c:	cccccccd 	.word	0xcccccccd
 c006480:	0c009bb4 	.word	0x0c009bb4
 c006484:	0c009bb8 	.word	0x0c009bb8
 c006488:	0c009b9c 	.word	0x0c009b9c
 c00648c:	0c009b98 	.word	0x0c009b98
 c006490:	0c009ba8 	.word	0x0c009ba8
 c006494:	00000bb8 	.word	0x00000bb8
 c006498:	01e00024 	.word	0x01e00024

0c00649c <TS_init>:
* ret:		none
* modify:
* comment:		
*********************************************************************************************/
void TS_init(void)
{
 c00649c:	e1a0c00d 	mov	ip, sp
 c0064a0:	e92dd800 	push	{fp, ip, lr, pc}
 c0064a4:	e24cb004 	sub	fp, ip, #4
    /* enable interrupt */
	rINTMOD=0x0;
 c0064a8:	e59f30a8 	ldr	r3, [pc, #168]	; c006558 <TS_init+0xbc>
 c0064ac:	e3a02000 	mov	r2, #0
 c0064b0:	e5832000 	str	r2, [r3]
	rINTCON=0x1;
 c0064b4:	e3a0361e 	mov	r3, #31457280	; 0x1e00000
 c0064b8:	e3a02001 	mov	r2, #1
 c0064bc:	e5832000 	str	r2, [r3]
    rI_ISPC |= BIT_EINT2;            // clear pending_bit
 c0064c0:	e59f3094 	ldr	r3, [pc, #148]	; c00655c <TS_init+0xc0>
 c0064c4:	e59f2090 	ldr	r2, [pc, #144]	; c00655c <TS_init+0xc0>
 c0064c8:	e5922000 	ldr	r2, [r2]
 c0064cc:	e3822502 	orr	r2, r2, #8388608	; 0x800000
 c0064d0:	e5832000 	str	r2, [r3]
	
	// TSPX(GPE4_Q4(-)) TSPY(GPE5_Q3(-)) TSMY(GPE6_Q2(-)) TSMX(GPE7_Q1(+)) 
	//          1               1                0                 1
    rPUPE  = 0x0;	                 // Pull up
 c0064d4:	e59f3084 	ldr	r3, [pc, #132]	; c006560 <TS_init+0xc4>
 c0064d8:	e3a02000 	mov	r2, #0
 c0064dc:	e5832000 	str	r2, [r3]
    rPDATE = 0xb8;                   // should be enabled	
 c0064e0:	e59f307c 	ldr	r3, [pc, #124]	; c006564 <TS_init+0xc8>
 c0064e4:	e3a020b8 	mov	r2, #184	; 0xb8
 c0064e8:	e5832000 	str	r2, [r3]
    DelayTime(100); 
 c0064ec:	e3a00064 	mov	r0, #100	; 0x64
 c0064f0:	ebffe8ec 	bl	c0008a8 <DelayTime>
    
    rEXTINT |= 0x200;                // falling edge trigger
 c0064f4:	e59f306c 	ldr	r3, [pc, #108]	; c006568 <TS_init+0xcc>
 c0064f8:	e59f2068 	ldr	r2, [pc, #104]	; c006568 <TS_init+0xcc>
 c0064fc:	e5922000 	ldr	r2, [r2]
 c006500:	e3822c02 	orr	r2, r2, #512	; 0x200
 c006504:	e5832000 	str	r2, [r3]
    pISR_EINT2=(unsigned *)TSInt;       // set interrupt handler
 c006508:	e59f305c 	ldr	r3, [pc, #92]	; c00656c <TS_init+0xd0>
 c00650c:	e59f205c 	ldr	r2, [pc, #92]	; c006570 <TS_init+0xd4>
 c006510:	e5832000 	str	r2, [r3]
    
    rCLKCON = 0x7ff8;                // enable clock
 c006514:	e59f3058 	ldr	r3, [pc, #88]	; c006574 <TS_init+0xd8>
 c006518:	e59f2058 	ldr	r2, [pc, #88]	; c006578 <TS_init+0xdc>
 c00651c:	e5832000 	str	r2, [r3]
    rADCPSR = 0x1;//0x4;             // A/D prescaler
 c006520:	e59f3054 	ldr	r3, [pc, #84]	; c00657c <TS_init+0xe0>
 c006524:	e3a02001 	mov	r2, #1
 c006528:	e5832000 	str	r2, [r3]
    rINTMSK &= ~(BIT_EINT2);
 c00652c:	e59f304c 	ldr	r3, [pc, #76]	; c006580 <TS_init+0xe4>
 c006530:	e59f2048 	ldr	r2, [pc, #72]	; c006580 <TS_init+0xe4>
 c006534:	e5922000 	ldr	r2, [r2]
 c006538:	e3c22502 	bic	r2, r2, #8388608	; 0x800000
 c00653c:	e5832000 	str	r2, [r3]

    oneTouch = 0;
 c006540:	e59f303c 	ldr	r3, [pc, #60]	; c006584 <TS_init+0xe8>
 c006544:	e3a02000 	mov	r2, #0
 c006548:	e5832000 	str	r2, [r3]
}
 c00654c:	e24bd00c 	sub	sp, fp, #12
 c006550:	e89d6800 	ldm	sp, {fp, sp, lr}
 c006554:	e12fff1e 	bx	lr
 c006558:	01e00008 	.word	0x01e00008
 c00655c:	01e00024 	.word	0x01e00024
 c006560:	01d20030 	.word	0x01d20030
 c006564:	01d2002c 	.word	0x01d2002c
 c006568:	01d20050 	.word	0x01d20050
 c00656c:	0c7fff7c 	.word	0x0c7fff7c
 c006570:	0c006110 	.word	0x0c006110
 c006574:	01d80004 	.word	0x01d80004
 c006578:	00007ff8 	.word	0x00007ff8
 c00657c:	01d40004 	.word	0x01d40004
 c006580:	01e0000c 	.word	0x01e0000c
 c006584:	0c009bac 	.word	0x0c009bac

0c006588 <TS_close>:
* ret:		none
* modify:
* comment:		
*********************************************************************************************/
void TS_close(void)
{
 c006588:	e1a0c00d 	mov	ip, sp
 c00658c:	e92dd800 	push	{fp, ip, lr, pc}
 c006590:	e24cb004 	sub	fp, ip, #4
	/* Mask interrupt */
	rINTMSK |=BIT_GLOBAL|BIT_EINT2;
 c006594:	e59f3024 	ldr	r3, [pc, #36]	; c0065c0 <TS_close+0x38>
 c006598:	e59f2020 	ldr	r2, [pc, #32]	; c0065c0 <TS_close+0x38>
 c00659c:	e5922000 	ldr	r2, [r2]
 c0065a0:	e3822512 	orr	r2, r2, #75497472	; 0x4800000
 c0065a4:	e5832000 	str	r2, [r3]
	pISR_EINT2 = (int)NULL;
 c0065a8:	e59f3014 	ldr	r3, [pc, #20]	; c0065c4 <TS_close+0x3c>
 c0065ac:	e3a02000 	mov	r2, #0
 c0065b0:	e5832000 	str	r2, [r3]
}
 c0065b4:	e24bd00c 	sub	sp, fp, #12
 c0065b8:	e89d6800 	ldm	sp, {fp, sp, lr}
 c0065bc:	e12fff1e 	bx	lr
 c0065c0:	01e0000c 	.word	0x01e0000c
 c0065c4:	0c7fff7c 	.word	0x0c7fff7c

0c0065c8 <Lcd_TC>:

void Lcd_TC(void)
{
 c0065c8:	e1a0c00d 	mov	ip, sp
 c0065cc:	e92dd800 	push	{fp, ip, lr, pc}
 c0065d0:	e24cb004 	sub	fp, ip, #4
 c0065d4:	e24dd008 	sub	sp, sp, #8
	/* initial LCD controller */
	Lcd_Init();
 c0065d8:	ebfff0c9 	bl	c002904 <Lcd_Init>
	/* clear screen */
	Lcd_Clr();
 c0065dc:	ebfff17b 	bl	c002bd0 <Lcd_Clr>
	Lcd_Active_Clr();
 c0065e0:	ebfff12c 	bl	c002a98 <Lcd_Active_Clr>
	/* draw rectangle pattern */ 
	Lcd_Draw_Box(0,0,80,60,15);
 c0065e4:	e3a0300f 	mov	r3, #15
 c0065e8:	e58d3000 	str	r3, [sp]
 c0065ec:	e3a00000 	mov	r0, #0
 c0065f0:	e3a01000 	mov	r1, #0
 c0065f4:	e3a02050 	mov	r2, #80	; 0x50
 c0065f8:	e3a0303c 	mov	r3, #60	; 0x3c
 c0065fc:	ebfff322 	bl	c00328c <Lcd_Draw_Box>
	Lcd_Draw_Box(80,0,160,60,15);
 c006600:	e3a0300f 	mov	r3, #15
 c006604:	e58d3000 	str	r3, [sp]
 c006608:	e3a00050 	mov	r0, #80	; 0x50
 c00660c:	e3a01000 	mov	r1, #0
 c006610:	e3a020a0 	mov	r2, #160	; 0xa0
 c006614:	e3a0303c 	mov	r3, #60	; 0x3c
 c006618:	ebfff31b 	bl	c00328c <Lcd_Draw_Box>
	Lcd_Draw_Box(160,0,240,60,15);
 c00661c:	e3a0300f 	mov	r3, #15
 c006620:	e58d3000 	str	r3, [sp]
 c006624:	e3a000a0 	mov	r0, #160	; 0xa0
 c006628:	e3a01000 	mov	r1, #0
 c00662c:	e3a020f0 	mov	r2, #240	; 0xf0
 c006630:	e3a0303c 	mov	r3, #60	; 0x3c
 c006634:	ebfff314 	bl	c00328c <Lcd_Draw_Box>
	Lcd_Draw_Box(240,0,320,60,15);
 c006638:	e3a0300f 	mov	r3, #15
 c00663c:	e58d3000 	str	r3, [sp]
 c006640:	e3a000f0 	mov	r0, #240	; 0xf0
 c006644:	e3a01000 	mov	r1, #0
 c006648:	e3a02d05 	mov	r2, #320	; 0x140
 c00664c:	e3a0303c 	mov	r3, #60	; 0x3c
 c006650:	ebfff30d 	bl	c00328c <Lcd_Draw_Box>
	Lcd_Draw_Box(0,60,80,120,15);
 c006654:	e3a0300f 	mov	r3, #15
 c006658:	e58d3000 	str	r3, [sp]
 c00665c:	e3a00000 	mov	r0, #0
 c006660:	e3a0103c 	mov	r1, #60	; 0x3c
 c006664:	e3a02050 	mov	r2, #80	; 0x50
 c006668:	e3a03078 	mov	r3, #120	; 0x78
 c00666c:	ebfff306 	bl	c00328c <Lcd_Draw_Box>
	Lcd_Draw_Box(80,60,160,120,15);
 c006670:	e3a0300f 	mov	r3, #15
 c006674:	e58d3000 	str	r3, [sp]
 c006678:	e3a00050 	mov	r0, #80	; 0x50
 c00667c:	e3a0103c 	mov	r1, #60	; 0x3c
 c006680:	e3a020a0 	mov	r2, #160	; 0xa0
 c006684:	e3a03078 	mov	r3, #120	; 0x78
 c006688:	ebfff2ff 	bl	c00328c <Lcd_Draw_Box>
	Lcd_Draw_Box(160,60,240,120,15);
 c00668c:	e3a0300f 	mov	r3, #15
 c006690:	e58d3000 	str	r3, [sp]
 c006694:	e3a000a0 	mov	r0, #160	; 0xa0
 c006698:	e3a0103c 	mov	r1, #60	; 0x3c
 c00669c:	e3a020f0 	mov	r2, #240	; 0xf0
 c0066a0:	e3a03078 	mov	r3, #120	; 0x78
 c0066a4:	ebfff2f8 	bl	c00328c <Lcd_Draw_Box>
	Lcd_Draw_Box(240,60,320,120,15);
 c0066a8:	e3a0300f 	mov	r3, #15
 c0066ac:	e58d3000 	str	r3, [sp]
 c0066b0:	e3a000f0 	mov	r0, #240	; 0xf0
 c0066b4:	e3a0103c 	mov	r1, #60	; 0x3c
 c0066b8:	e3a02d05 	mov	r2, #320	; 0x140
 c0066bc:	e3a03078 	mov	r3, #120	; 0x78
 c0066c0:	ebfff2f1 	bl	c00328c <Lcd_Draw_Box>
	Lcd_Draw_Box(0,120,80,180,15);
 c0066c4:	e3a0300f 	mov	r3, #15
 c0066c8:	e58d3000 	str	r3, [sp]
 c0066cc:	e3a00000 	mov	r0, #0
 c0066d0:	e3a01078 	mov	r1, #120	; 0x78
 c0066d4:	e3a02050 	mov	r2, #80	; 0x50
 c0066d8:	e3a030b4 	mov	r3, #180	; 0xb4
 c0066dc:	ebfff2ea 	bl	c00328c <Lcd_Draw_Box>
	Lcd_Draw_Box(80,120,160,180,15);
 c0066e0:	e3a0300f 	mov	r3, #15
 c0066e4:	e58d3000 	str	r3, [sp]
 c0066e8:	e3a00050 	mov	r0, #80	; 0x50
 c0066ec:	e3a01078 	mov	r1, #120	; 0x78
 c0066f0:	e3a020a0 	mov	r2, #160	; 0xa0
 c0066f4:	e3a030b4 	mov	r3, #180	; 0xb4
 c0066f8:	ebfff2e3 	bl	c00328c <Lcd_Draw_Box>
	Lcd_Draw_Box(160,120,240,180,15);
 c0066fc:	e3a0300f 	mov	r3, #15
 c006700:	e58d3000 	str	r3, [sp]
 c006704:	e3a000a0 	mov	r0, #160	; 0xa0
 c006708:	e3a01078 	mov	r1, #120	; 0x78
 c00670c:	e3a020f0 	mov	r2, #240	; 0xf0
 c006710:	e3a030b4 	mov	r3, #180	; 0xb4
 c006714:	ebfff2dc 	bl	c00328c <Lcd_Draw_Box>
	Lcd_Draw_Box(240,120,320,180,15);
 c006718:	e3a0300f 	mov	r3, #15
 c00671c:	e58d3000 	str	r3, [sp]
 c006720:	e3a000f0 	mov	r0, #240	; 0xf0
 c006724:	e3a01078 	mov	r1, #120	; 0x78
 c006728:	e3a02d05 	mov	r2, #320	; 0x140
 c00672c:	e3a030b4 	mov	r3, #180	; 0xb4
 c006730:	ebfff2d5 	bl	c00328c <Lcd_Draw_Box>
	Lcd_Draw_Box(0,180,80,240,15);
 c006734:	e3a0300f 	mov	r3, #15
 c006738:	e58d3000 	str	r3, [sp]
 c00673c:	e3a00000 	mov	r0, #0
 c006740:	e3a010b4 	mov	r1, #180	; 0xb4
 c006744:	e3a02050 	mov	r2, #80	; 0x50
 c006748:	e3a030f0 	mov	r3, #240	; 0xf0
 c00674c:	ebfff2ce 	bl	c00328c <Lcd_Draw_Box>
	Lcd_Draw_Box(80,180,160,240,15);
 c006750:	e3a0300f 	mov	r3, #15
 c006754:	e58d3000 	str	r3, [sp]
 c006758:	e3a00050 	mov	r0, #80	; 0x50
 c00675c:	e3a010b4 	mov	r1, #180	; 0xb4
 c006760:	e3a020a0 	mov	r2, #160	; 0xa0
 c006764:	e3a030f0 	mov	r3, #240	; 0xf0
 c006768:	ebfff2c7 	bl	c00328c <Lcd_Draw_Box>
	Lcd_Draw_Box(160,180,240,240,15);
 c00676c:	e3a0300f 	mov	r3, #15
 c006770:	e58d3000 	str	r3, [sp]
 c006774:	e3a000a0 	mov	r0, #160	; 0xa0
 c006778:	e3a010b4 	mov	r1, #180	; 0xb4
 c00677c:	e3a020f0 	mov	r2, #240	; 0xf0
 c006780:	e3a030f0 	mov	r3, #240	; 0xf0
 c006784:	ebfff2c0 	bl	c00328c <Lcd_Draw_Box>
	Lcd_Draw_Box(240,180,320,240,15);
 c006788:	e3a0300f 	mov	r3, #15
 c00678c:	e58d3000 	str	r3, [sp]
 c006790:	e3a000f0 	mov	r0, #240	; 0xf0
 c006794:	e3a010b4 	mov	r1, #180	; 0xb4
 c006798:	e3a02d05 	mov	r2, #320	; 0x140
 c00679c:	e3a030f0 	mov	r3, #240	; 0xf0
 c0067a0:	ebfff2b9 	bl	c00328c <Lcd_Draw_Box>
	/* output ASCII symbol */
	Lcd_DspAscII6x8(37,26,BLACK,"0");
 c0067a4:	e3a00025 	mov	r0, #37	; 0x25
 c0067a8:	e3a0101a 	mov	r1, #26
 c0067ac:	e3a0200f 	mov	r2, #15
 c0067b0:	e59f3144 	ldr	r3, [pc, #324]	; c0068fc <Lcd_TC+0x334>
 c0067b4:	ebfff711 	bl	c004400 <Lcd_DspAscII6x8>
	Lcd_DspAscII6x8(117,26,BLACK,"1");
 c0067b8:	e3a00075 	mov	r0, #117	; 0x75
 c0067bc:	e3a0101a 	mov	r1, #26
 c0067c0:	e3a0200f 	mov	r2, #15
 c0067c4:	e59f3134 	ldr	r3, [pc, #308]	; c006900 <Lcd_TC+0x338>
 c0067c8:	ebfff70c 	bl	c004400 <Lcd_DspAscII6x8>
	Lcd_DspAscII6x8(197,26,BLACK,"2");
 c0067cc:	e3a000c5 	mov	r0, #197	; 0xc5
 c0067d0:	e3a0101a 	mov	r1, #26
 c0067d4:	e3a0200f 	mov	r2, #15
 c0067d8:	e59f3124 	ldr	r3, [pc, #292]	; c006904 <Lcd_TC+0x33c>
 c0067dc:	ebfff707 	bl	c004400 <Lcd_DspAscII6x8>
	Lcd_DspAscII6x8(277,26,BLACK,"3");
 c0067e0:	e59f0120 	ldr	r0, [pc, #288]	; c006908 <Lcd_TC+0x340>
 c0067e4:	e3a0101a 	mov	r1, #26
 c0067e8:	e3a0200f 	mov	r2, #15
 c0067ec:	e59f3118 	ldr	r3, [pc, #280]	; c00690c <Lcd_TC+0x344>
 c0067f0:	ebfff702 	bl	c004400 <Lcd_DspAscII6x8>
	Lcd_DspAscII6x8(37,86,BLACK,"4");
 c0067f4:	e3a00025 	mov	r0, #37	; 0x25
 c0067f8:	e3a01056 	mov	r1, #86	; 0x56
 c0067fc:	e3a0200f 	mov	r2, #15
 c006800:	e59f3108 	ldr	r3, [pc, #264]	; c006910 <Lcd_TC+0x348>
 c006804:	ebfff6fd 	bl	c004400 <Lcd_DspAscII6x8>
	Lcd_DspAscII6x8(117,86,BLACK,"5");
 c006808:	e3a00075 	mov	r0, #117	; 0x75
 c00680c:	e3a01056 	mov	r1, #86	; 0x56
 c006810:	e3a0200f 	mov	r2, #15
 c006814:	e59f30f8 	ldr	r3, [pc, #248]	; c006914 <Lcd_TC+0x34c>
 c006818:	ebfff6f8 	bl	c004400 <Lcd_DspAscII6x8>
	Lcd_DspAscII6x8(197,86,BLACK,"6");
 c00681c:	e3a000c5 	mov	r0, #197	; 0xc5
 c006820:	e3a01056 	mov	r1, #86	; 0x56
 c006824:	e3a0200f 	mov	r2, #15
 c006828:	e59f30e8 	ldr	r3, [pc, #232]	; c006918 <Lcd_TC+0x350>
 c00682c:	ebfff6f3 	bl	c004400 <Lcd_DspAscII6x8>
	Lcd_DspAscII6x8(277,86,BLACK,"7");
 c006830:	e59f00d0 	ldr	r0, [pc, #208]	; c006908 <Lcd_TC+0x340>
 c006834:	e3a01056 	mov	r1, #86	; 0x56
 c006838:	e3a0200f 	mov	r2, #15
 c00683c:	e59f30d8 	ldr	r3, [pc, #216]	; c00691c <Lcd_TC+0x354>
 c006840:	ebfff6ee 	bl	c004400 <Lcd_DspAscII6x8>
	Lcd_DspAscII6x8(37,146,BLACK,"8");
 c006844:	e3a00025 	mov	r0, #37	; 0x25
 c006848:	e3a01092 	mov	r1, #146	; 0x92
 c00684c:	e3a0200f 	mov	r2, #15
 c006850:	e59f30c8 	ldr	r3, [pc, #200]	; c006920 <Lcd_TC+0x358>
 c006854:	ebfff6e9 	bl	c004400 <Lcd_DspAscII6x8>
	Lcd_DspAscII6x8(117,146,BLACK,"9");
 c006858:	e3a00075 	mov	r0, #117	; 0x75
 c00685c:	e3a01092 	mov	r1, #146	; 0x92
 c006860:	e3a0200f 	mov	r2, #15
 c006864:	e59f30b8 	ldr	r3, [pc, #184]	; c006924 <Lcd_TC+0x35c>
 c006868:	ebfff6e4 	bl	c004400 <Lcd_DspAscII6x8>
	Lcd_DspAscII6x8(197,146,BLACK,"A");
 c00686c:	e3a000c5 	mov	r0, #197	; 0xc5
 c006870:	e3a01092 	mov	r1, #146	; 0x92
 c006874:	e3a0200f 	mov	r2, #15
 c006878:	e59f30a8 	ldr	r3, [pc, #168]	; c006928 <Lcd_TC+0x360>
 c00687c:	ebfff6df 	bl	c004400 <Lcd_DspAscII6x8>
	Lcd_DspAscII6x8(277,146,BLACK,"B");
 c006880:	e59f0080 	ldr	r0, [pc, #128]	; c006908 <Lcd_TC+0x340>
 c006884:	e3a01092 	mov	r1, #146	; 0x92
 c006888:	e3a0200f 	mov	r2, #15
 c00688c:	e59f3098 	ldr	r3, [pc, #152]	; c00692c <Lcd_TC+0x364>
 c006890:	ebfff6da 	bl	c004400 <Lcd_DspAscII6x8>
	Lcd_DspAscII6x8(37,206,BLACK,"C");
 c006894:	e3a00025 	mov	r0, #37	; 0x25
 c006898:	e3a010ce 	mov	r1, #206	; 0xce
 c00689c:	e3a0200f 	mov	r2, #15
 c0068a0:	e59f3088 	ldr	r3, [pc, #136]	; c006930 <Lcd_TC+0x368>
 c0068a4:	ebfff6d5 	bl	c004400 <Lcd_DspAscII6x8>
	Lcd_DspAscII6x8(117,206,BLACK,"D");
 c0068a8:	e3a00075 	mov	r0, #117	; 0x75
 c0068ac:	e3a010ce 	mov	r1, #206	; 0xce
 c0068b0:	e3a0200f 	mov	r2, #15
 c0068b4:	e59f3078 	ldr	r3, [pc, #120]	; c006934 <Lcd_TC+0x36c>
 c0068b8:	ebfff6d0 	bl	c004400 <Lcd_DspAscII6x8>
	Lcd_DspAscII6x8(197,206,BLACK,"E");
 c0068bc:	e3a000c5 	mov	r0, #197	; 0xc5
 c0068c0:	e3a010ce 	mov	r1, #206	; 0xce
 c0068c4:	e3a0200f 	mov	r2, #15
 c0068c8:	e59f3068 	ldr	r3, [pc, #104]	; c006938 <Lcd_TC+0x370>
 c0068cc:	ebfff6cb 	bl	c004400 <Lcd_DspAscII6x8>
	Lcd_DspAscII6x8(277,206,BLACK,"F");
 c0068d0:	e59f0030 	ldr	r0, [pc, #48]	; c006908 <Lcd_TC+0x340>
 c0068d4:	e3a010ce 	mov	r1, #206	; 0xce
 c0068d8:	e3a0200f 	mov	r2, #15
 c0068dc:	e59f3058 	ldr	r3, [pc, #88]	; c00693c <Lcd_TC+0x374>
 c0068e0:	ebfff6c6 	bl	c004400 <Lcd_DspAscII6x8>
	Lcd_Dma_Trans();
 c0068e4:	ebfff783 	bl	c0046f8 <Lcd_Dma_Trans>
	Delay(100);
 c0068e8:	e3a00064 	mov	r0, #100	; 0x64
 c0068ec:	ebffe786 	bl	c00070c <Delay>
}
 c0068f0:	e24bd00c 	sub	sp, fp, #12
 c0068f4:	e89d6800 	ldm	sp, {fp, sp, lr}
 c0068f8:	e12fff1e 	bx	lr
 c0068fc:	0c009a94 	.word	0x0c009a94
 c006900:	0c009a98 	.word	0x0c009a98
 c006904:	0c009a9c 	.word	0x0c009a9c
 c006908:	00000115 	.word	0x00000115
 c00690c:	0c009aa0 	.word	0x0c009aa0
 c006910:	0c009aa4 	.word	0x0c009aa4
 c006914:	0c009aa8 	.word	0x0c009aa8
 c006918:	0c009aac 	.word	0x0c009aac
 c00691c:	0c009ab0 	.word	0x0c009ab0
 c006920:	0c009ab4 	.word	0x0c009ab4
 c006924:	0c009ab8 	.word	0x0c009ab8
 c006928:	0c009abc 	.word	0x0c009abc
 c00692c:	0c009ac0 	.word	0x0c009ac0
 c006930:	0c009ac4 	.word	0x0c009ac4
 c006934:	0c009ac8 	.word	0x0c009ac8
 c006938:	0c009acc 	.word	0x0c009acc
 c00693c:	0c009ad0 	.word	0x0c009ad0

0c006940 <DesignREC>:
* ret:		none
* modify:
* comment:		
*********************************************************************************************/
void DesignREC(ULONG tx, ULONG ty)
{
 c006940:	e1a0c00d 	mov	ip, sp
 c006944:	e92dd800 	push	{fp, ip, lr, pc}
 c006948:	e24cb004 	sub	fp, ip, #4
 c00694c:	e24dd010 	sub	sp, sp, #16
 c006950:	e50b0018 	str	r0, [fp, #-24]	; 0xffffffe8
 c006954:	e50b101c 	str	r1, [fp, #-28]	; 0xffffffe4
    int tm;
    
//  Uart_Printf("\n\r User touch coordinate(X,Y) is :");
//	Uart_Printf("(%04d",tx);	
//	Uart_Printf(",%04d)\n",ty);    
    if(oneTouch == 0)
 c006958:	e59f30f4 	ldr	r3, [pc, #244]	; c006a54 <DesignREC+0x114>
 c00695c:	e5933000 	ldr	r3, [r3]
 c006960:	e3530000 	cmp	r3, #0
 c006964:	1a000009 	bne	c006990 <DesignREC+0x50>
     {
       Vx = tx;                   // Vx as Xmax
 c006968:	e59f30e8 	ldr	r3, [pc, #232]	; c006a58 <DesignREC+0x118>
 c00696c:	e51b2018 	ldr	r2, [fp, #-24]	; 0xffffffe8
 c006970:	e5832000 	str	r2, [r3]
       Vy = ty;                   // Vy as Ymax
 c006974:	e59f30e0 	ldr	r3, [pc, #224]	; c006a5c <DesignREC+0x11c>
 c006978:	e51b201c 	ldr	r2, [fp, #-28]	; 0xffffffe4
 c00697c:	e5832000 	str	r2, [r3]
       oneTouch = 1;       		           
 c006980:	e59f30cc 	ldr	r3, [pc, #204]	; c006a54 <DesignREC+0x114>
 c006984:	e3a02001 	mov	r2, #1
 c006988:	e5832000 	str	r2, [r3]
 c00698c:	ea00002d 	b	c006a48 <DesignREC+0x108>
    }else{
    
    if(Vx < tx )
 c006990:	e59f30c0 	ldr	r3, [pc, #192]	; c006a58 <DesignREC+0x118>
 c006994:	e5932000 	ldr	r2, [r3]
 c006998:	e51b3018 	ldr	r3, [fp, #-24]	; 0xffffffe8
 c00699c:	e1520003 	cmp	r2, r3
 c0069a0:	2a000007 	bcs	c0069c4 <DesignREC+0x84>
     {
       tm = tx; tx = Vx; Vx = tm; // tx as Xmin
 c0069a4:	e51b3018 	ldr	r3, [fp, #-24]	; 0xffffffe8
 c0069a8:	e50b3010 	str	r3, [fp, #-16]
 c0069ac:	e59f30a4 	ldr	r3, [pc, #164]	; c006a58 <DesignREC+0x118>
 c0069b0:	e5933000 	ldr	r3, [r3]
 c0069b4:	e50b3018 	str	r3, [fp, #-24]	; 0xffffffe8
 c0069b8:	e51b2010 	ldr	r2, [fp, #-16]
 c0069bc:	e59f3094 	ldr	r3, [pc, #148]	; c006a58 <DesignREC+0x118>
 c0069c0:	e5832000 	str	r2, [r3]
     }
    if(Vy < ty )
 c0069c4:	e59f3090 	ldr	r3, [pc, #144]	; c006a5c <DesignREC+0x11c>
 c0069c8:	e5932000 	ldr	r2, [r3]
 c0069cc:	e51b301c 	ldr	r3, [fp, #-28]	; 0xffffffe4
 c0069d0:	e1520003 	cmp	r2, r3
 c0069d4:	2a000007 	bcs	c0069f8 <DesignREC+0xb8>
     { 
       tm = ty; ty = Vy; Vy = tm; // ty as Ymin
 c0069d8:	e51b301c 	ldr	r3, [fp, #-28]	; 0xffffffe4
 c0069dc:	e50b3010 	str	r3, [fp, #-16]
 c0069e0:	e59f3074 	ldr	r3, [pc, #116]	; c006a5c <DesignREC+0x11c>
 c0069e4:	e5933000 	ldr	r3, [r3]
 c0069e8:	e50b301c 	str	r3, [fp, #-28]	; 0xffffffe4
 c0069ec:	e51b2010 	ldr	r2, [fp, #-16]
 c0069f0:	e59f3064 	ldr	r3, [pc, #100]	; c006a5c <DesignREC+0x11c>
 c0069f4:	e5832000 	str	r2, [r3]
     }
     
    Xmax = Vx;    Xmin = tx;
 c0069f8:	e59f3058 	ldr	r3, [pc, #88]	; c006a58 <DesignREC+0x118>
 c0069fc:	e5932000 	ldr	r2, [r3]
 c006a00:	e59f3058 	ldr	r3, [pc, #88]	; c006a60 <DesignREC+0x120>
 c006a04:	e5832000 	str	r2, [r3]
 c006a08:	e59f3054 	ldr	r3, [pc, #84]	; c006a64 <DesignREC+0x124>
 c006a0c:	e51b2018 	ldr	r2, [fp, #-24]	; 0xffffffe8
 c006a10:	e5832000 	str	r2, [r3]
    Ymax = Vy;    Ymin = ty;
 c006a14:	e59f3040 	ldr	r3, [pc, #64]	; c006a5c <DesignREC+0x11c>
 c006a18:	e5932000 	ldr	r2, [r3]
 c006a1c:	e59f3044 	ldr	r3, [pc, #68]	; c006a68 <DesignREC+0x128>
 c006a20:	e5832000 	str	r2, [r3]
 c006a24:	e59f3040 	ldr	r3, [pc, #64]	; c006a6c <DesignREC+0x12c>
 c006a28:	e51b201c 	ldr	r2, [fp, #-28]	; 0xffffffe4
 c006a2c:	e5832000 	str	r2, [r3]
    
    oneTouch = 0;
 c006a30:	e59f301c 	ldr	r3, [pc, #28]	; c006a54 <DesignREC+0x114>
 c006a34:	e3a02000 	mov	r2, #0
 c006a38:	e5832000 	str	r2, [r3]
	CheckTSP = 0;// has checked
 c006a3c:	e59f302c 	ldr	r3, [pc, #44]	; c006a70 <DesignREC+0x130>
 c006a40:	e3a02000 	mov	r2, #0
 c006a44:	e5832000 	str	r2, [r3]
	
	}// end if(oneTouch == 0)

}
 c006a48:	e24bd00c 	sub	sp, fp, #12
 c006a4c:	e89d6800 	ldm	sp, {fp, sp, lr}
 c006a50:	e12fff1e 	bx	lr
 c006a54:	0c009bac 	.word	0x0c009bac
 c006a58:	0c009ba4 	.word	0x0c009ba4
 c006a5c:	0c009bb0 	.word	0x0c009bb0
 c006a60:	0c009b9c 	.word	0x0c009b9c
 c006a64:	0c009bb4 	.word	0x0c009bb4
 c006a68:	0c009ba8 	.word	0x0c009ba8
 c006a6c:	0c009b98 	.word	0x0c009b98
 c006a70:	0c009bb8 	.word	0x0c009bb8

0c006a74 <Check_Sel>:

void Check_Sel(void)
{
 c006a74:	e1a0c00d 	mov	ip, sp
 c006a78:	e92dd800 	push	{fp, ip, lr, pc}
 c006a7c:	e24cb004 	sub	fp, ip, #4
 c006a80:	e24dd008 	sub	sp, sp, #8
	char yn;
    
	do{
	  
	  rINTMSK |=BIT_GLOBAL|BIT_EINT2;
 c006a84:	e59f30cc 	ldr	r3, [pc, #204]	; c006b58 <Check_Sel+0xe4>
 c006a88:	e59f20c8 	ldr	r2, [pc, #200]	; c006b58 <Check_Sel+0xe4>
 c006a8c:	e5922000 	ldr	r2, [r2]
 c006a90:	e3822512 	orr	r2, r2, #75497472	; 0x4800000
 c006a94:	e5832000 	str	r2, [r3]
//    Uart_Printf("   (Xmin,Ymin) is :(%04d,%04d)\n",Xmin,Ymin);	
//	  Uart_Printf("   (Xmax,Ymax) is :(%04d,%04d)\n",Xmax,Ymax);	
//	  Uart_Printf("\n  To use current settings. Press N/n key. ");
//	  Uart_Printf("\n\n\r  Want to Set Again(Y/N)? ");	        	      
//	  yn = Uart_Getch();
      rI_ISPC = BIT_EINT2;              // clear pending_bit
 c006a98:	e59f30bc 	ldr	r3, [pc, #188]	; c006b5c <Check_Sel+0xe8>
 c006a9c:	e3a02502 	mov	r2, #8388608	; 0x800000
 c006aa0:	e5832000 	str	r2, [r3]
      rINTMSK =~(BIT_GLOBAL|BIT_EINT2);
 c006aa4:	e59f30ac 	ldr	r3, [pc, #172]	; c006b58 <Check_Sel+0xe4>
 c006aa8:	e3e02512 	mvn	r2, #75497472	; 0x4800000
 c006aac:	e5832000 	str	r2, [r3]
//	  if((yn == 0x59)|(yn == 0x79)|(yn == 0x4E)|(yn == 0x6E)) Uart_SendByte(yn);	  
	  if((yn == 0x59)|(yn == 0x79))
 c006ab0:	e55b300d 	ldrb	r3, [fp, #-13]
 c006ab4:	e3530059 	cmp	r3, #89	; 0x59
 c006ab8:	13a03000 	movne	r3, #0
 c006abc:	03a03001 	moveq	r3, #1
 c006ac0:	e20320ff 	and	r2, r3, #255	; 0xff
 c006ac4:	e55b300d 	ldrb	r3, [fp, #-13]
 c006ac8:	e3530079 	cmp	r3, #121	; 0x79
 c006acc:	13a03000 	movne	r3, #0
 c006ad0:	03a03001 	moveq	r3, #1
 c006ad4:	e20330ff 	and	r3, r3, #255	; 0xff
 c006ad8:	e1823003 	orr	r3, r2, r3
 c006adc:	e20330ff 	and	r3, r3, #255	; 0xff
 c006ae0:	e3530000 	cmp	r3, #0
 c006ae4:	0a000017 	beq	c006b48 <Check_Sel+0xd4>
	    {
//	      Uart_Printf("\n\n Touch TSP's Cornor to ensure Xmax,Ymax,Xmax,Xmin");	      

         //Init X Y rectangle
          Xmax = 750;    Xmin = 200;
 c006ae8:	e59f3070 	ldr	r3, [pc, #112]	; c006b60 <Check_Sel+0xec>
 c006aec:	e59f2070 	ldr	r2, [pc, #112]	; c006b64 <Check_Sel+0xf0>
 c006af0:	e5832000 	str	r2, [r3]
 c006af4:	e59f306c 	ldr	r3, [pc, #108]	; c006b68 <Check_Sel+0xf4>
 c006af8:	e3a020c8 	mov	r2, #200	; 0xc8
 c006afc:	e5832000 	str	r2, [r3]
          Ymax = 620;    Ymin = 120;
 c006b00:	e59f3064 	ldr	r3, [pc, #100]	; c006b6c <Check_Sel+0xf8>
 c006b04:	e3a02f9b 	mov	r2, #620	; 0x26c
 c006b08:	e5832000 	str	r2, [r3]
 c006b0c:	e59f305c 	ldr	r3, [pc, #92]	; c006b70 <Check_Sel+0xfc>
 c006b10:	e3a02078 	mov	r2, #120	; 0x78
 c006b14:	e5832000 	str	r2, [r3]

	      oneTouch = 0;
 c006b18:	e59f3054 	ldr	r3, [pc, #84]	; c006b74 <Check_Sel+0x100>
 c006b1c:	e3a02000 	mov	r2, #0
 c006b20:	e5832000 	str	r2, [r3]
	      CheckTSP = 1; // mask to check
 c006b24:	e59f304c 	ldr	r3, [pc, #76]	; c006b78 <Check_Sel+0x104>
 c006b28:	e3a02001 	mov	r2, #1
 c006b2c:	e5832000 	str	r2, [r3]
	      while(CheckTSP);
 c006b30:	e1a00000 	nop			; (mov r0, r0)
 c006b34:	e59f303c 	ldr	r3, [pc, #60]	; c006b78 <Check_Sel+0x104>
 c006b38:	e5933000 	ldr	r3, [r3]
 c006b3c:	e3530000 	cmp	r3, #0
 c006b40:	1afffffb 	bne	c006b34 <Check_Sel+0xc0>
	      
	    }else break;	    
	  
	}while(1);
 c006b44:	eaffffce 	b	c006a84 <Check_Sel+0x10>
	
 c006b48:	e1a00000 	nop			; (mov r0, r0)
 c006b4c:	e24bd00c 	sub	sp, fp, #12
 c006b50:	e89d6800 	ldm	sp, {fp, sp, lr}
 c006b54:	e12fff1e 	bx	lr
 c006b58:	01e0000c 	.word	0x01e0000c
 c006b5c:	01e00024 	.word	0x01e00024
 c006b60:	0c009b9c 	.word	0x0c009b9c
 c006b64:	000002ee 	.word	0x000002ee
 c006b68:	0c009bb4 	.word	0x0c009bb4
 c006b6c:	0c009ba8 	.word	0x0c009ba8
 c006b70:	0c009b98 	.word	0x0c009b98
 c006b74:	0c009bac 	.word	0x0c009bac
 c006b78:	0c009bb8 	.word	0x0c009bb8

0c006b7c <__aeabi_uidiv>:
 c006b7c:	e2512001 	subs	r2, r1, #1
 c006b80:	012fff1e 	bxeq	lr
 c006b84:	3a000036 	bcc	c006c64 <__aeabi_uidiv+0xe8>
 c006b88:	e1500001 	cmp	r0, r1
 c006b8c:	9a000022 	bls	c006c1c <__aeabi_uidiv+0xa0>
 c006b90:	e1110002 	tst	r1, r2
 c006b94:	0a000023 	beq	c006c28 <__aeabi_uidiv+0xac>
 c006b98:	e311020e 	tst	r1, #-536870912	; 0xe0000000
 c006b9c:	01a01181 	lsleq	r1, r1, #3
 c006ba0:	03a03008 	moveq	r3, #8
 c006ba4:	13a03001 	movne	r3, #1
 c006ba8:	e3510201 	cmp	r1, #268435456	; 0x10000000
 c006bac:	31510000 	cmpcc	r1, r0
 c006bb0:	31a01201 	lslcc	r1, r1, #4
 c006bb4:	31a03203 	lslcc	r3, r3, #4
 c006bb8:	3afffffa 	bcc	c006ba8 <__aeabi_uidiv+0x2c>
 c006bbc:	e3510102 	cmp	r1, #-2147483648	; 0x80000000
 c006bc0:	31510000 	cmpcc	r1, r0
 c006bc4:	31a01081 	lslcc	r1, r1, #1
 c006bc8:	31a03083 	lslcc	r3, r3, #1
 c006bcc:	3afffffa 	bcc	c006bbc <__aeabi_uidiv+0x40>
 c006bd0:	e3a02000 	mov	r2, #0
 c006bd4:	e1500001 	cmp	r0, r1
 c006bd8:	20400001 	subcs	r0, r0, r1
 c006bdc:	21822003 	orrcs	r2, r2, r3
 c006be0:	e15000a1 	cmp	r0, r1, lsr #1
 c006be4:	204000a1 	subcs	r0, r0, r1, lsr #1
 c006be8:	218220a3 	orrcs	r2, r2, r3, lsr #1
 c006bec:	e1500121 	cmp	r0, r1, lsr #2
 c006bf0:	20400121 	subcs	r0, r0, r1, lsr #2
 c006bf4:	21822123 	orrcs	r2, r2, r3, lsr #2
 c006bf8:	e15001a1 	cmp	r0, r1, lsr #3
 c006bfc:	204001a1 	subcs	r0, r0, r1, lsr #3
 c006c00:	218221a3 	orrcs	r2, r2, r3, lsr #3
 c006c04:	e3500000 	cmp	r0, #0
 c006c08:	11b03223 	lsrsne	r3, r3, #4
 c006c0c:	11a01221 	lsrne	r1, r1, #4
 c006c10:	1affffef 	bne	c006bd4 <__aeabi_uidiv+0x58>
 c006c14:	e1a00002 	mov	r0, r2
 c006c18:	e12fff1e 	bx	lr
 c006c1c:	03a00001 	moveq	r0, #1
 c006c20:	13a00000 	movne	r0, #0
 c006c24:	e12fff1e 	bx	lr
 c006c28:	e3510801 	cmp	r1, #65536	; 0x10000
 c006c2c:	21a01821 	lsrcs	r1, r1, #16
 c006c30:	23a02010 	movcs	r2, #16
 c006c34:	33a02000 	movcc	r2, #0
 c006c38:	e3510c01 	cmp	r1, #256	; 0x100
 c006c3c:	21a01421 	lsrcs	r1, r1, #8
 c006c40:	22822008 	addcs	r2, r2, #8
 c006c44:	e3510010 	cmp	r1, #16
 c006c48:	21a01221 	lsrcs	r1, r1, #4
 c006c4c:	22822004 	addcs	r2, r2, #4
 c006c50:	e3510004 	cmp	r1, #4
 c006c54:	82822003 	addhi	r2, r2, #3
 c006c58:	908220a1 	addls	r2, r2, r1, lsr #1
 c006c5c:	e1a00230 	lsr	r0, r0, r2
 c006c60:	e12fff1e 	bx	lr
 c006c64:	e3500000 	cmp	r0, #0
 c006c68:	13e00000 	mvnne	r0, #0
 c006c6c:	ea000059 	b	c006dd8 <__aeabi_idiv0>

0c006c70 <__aeabi_uidivmod>:
 c006c70:	e3510000 	cmp	r1, #0
 c006c74:	0afffffa 	beq	c006c64 <__aeabi_uidiv+0xe8>
 c006c78:	e92d4003 	push	{r0, r1, lr}
 c006c7c:	ebffffbe 	bl	c006b7c <__aeabi_uidiv>
 c006c80:	e8bd4006 	pop	{r1, r2, lr}
 c006c84:	e0030092 	mul	r3, r2, r0
 c006c88:	e0411003 	sub	r1, r1, r3
 c006c8c:	e12fff1e 	bx	lr

0c006c90 <__aeabi_idiv>:
 c006c90:	e3510000 	cmp	r1, #0
 c006c94:	0a000043 	beq	c006da8 <.divsi3_skip_div0_test+0x110>

0c006c98 <.divsi3_skip_div0_test>:
 c006c98:	e020c001 	eor	ip, r0, r1
 c006c9c:	42611000 	rsbmi	r1, r1, #0
 c006ca0:	e2512001 	subs	r2, r1, #1
 c006ca4:	0a000027 	beq	c006d48 <.divsi3_skip_div0_test+0xb0>
 c006ca8:	e1b03000 	movs	r3, r0
 c006cac:	42603000 	rsbmi	r3, r0, #0
 c006cb0:	e1530001 	cmp	r3, r1
 c006cb4:	9a000026 	bls	c006d54 <.divsi3_skip_div0_test+0xbc>
 c006cb8:	e1110002 	tst	r1, r2
 c006cbc:	0a000028 	beq	c006d64 <.divsi3_skip_div0_test+0xcc>
 c006cc0:	e311020e 	tst	r1, #-536870912	; 0xe0000000
 c006cc4:	01a01181 	lsleq	r1, r1, #3
 c006cc8:	03a02008 	moveq	r2, #8
 c006ccc:	13a02001 	movne	r2, #1
 c006cd0:	e3510201 	cmp	r1, #268435456	; 0x10000000
 c006cd4:	31510003 	cmpcc	r1, r3
 c006cd8:	31a01201 	lslcc	r1, r1, #4
 c006cdc:	31a02202 	lslcc	r2, r2, #4
 c006ce0:	3afffffa 	bcc	c006cd0 <.divsi3_skip_div0_test+0x38>
 c006ce4:	e3510102 	cmp	r1, #-2147483648	; 0x80000000
 c006ce8:	31510003 	cmpcc	r1, r3
 c006cec:	31a01081 	lslcc	r1, r1, #1
 c006cf0:	31a02082 	lslcc	r2, r2, #1
 c006cf4:	3afffffa 	bcc	c006ce4 <.divsi3_skip_div0_test+0x4c>
 c006cf8:	e3a00000 	mov	r0, #0
 c006cfc:	e1530001 	cmp	r3, r1
 c006d00:	20433001 	subcs	r3, r3, r1
 c006d04:	21800002 	orrcs	r0, r0, r2
 c006d08:	e15300a1 	cmp	r3, r1, lsr #1
 c006d0c:	204330a1 	subcs	r3, r3, r1, lsr #1
 c006d10:	218000a2 	orrcs	r0, r0, r2, lsr #1
 c006d14:	e1530121 	cmp	r3, r1, lsr #2
 c006d18:	20433121 	subcs	r3, r3, r1, lsr #2
 c006d1c:	21800122 	orrcs	r0, r0, r2, lsr #2
 c006d20:	e15301a1 	cmp	r3, r1, lsr #3
 c006d24:	204331a1 	subcs	r3, r3, r1, lsr #3
 c006d28:	218001a2 	orrcs	r0, r0, r2, lsr #3
 c006d2c:	e3530000 	cmp	r3, #0
 c006d30:	11b02222 	lsrsne	r2, r2, #4
 c006d34:	11a01221 	lsrne	r1, r1, #4
 c006d38:	1affffef 	bne	c006cfc <.divsi3_skip_div0_test+0x64>
 c006d3c:	e35c0000 	cmp	ip, #0
 c006d40:	42600000 	rsbmi	r0, r0, #0
 c006d44:	e12fff1e 	bx	lr
 c006d48:	e13c0000 	teq	ip, r0
 c006d4c:	42600000 	rsbmi	r0, r0, #0
 c006d50:	e12fff1e 	bx	lr
 c006d54:	33a00000 	movcc	r0, #0
 c006d58:	01a00fcc 	asreq	r0, ip, #31
 c006d5c:	03800001 	orreq	r0, r0, #1
 c006d60:	e12fff1e 	bx	lr
 c006d64:	e3510801 	cmp	r1, #65536	; 0x10000
 c006d68:	21a01821 	lsrcs	r1, r1, #16
 c006d6c:	23a02010 	movcs	r2, #16
 c006d70:	33a02000 	movcc	r2, #0
 c006d74:	e3510c01 	cmp	r1, #256	; 0x100
 c006d78:	21a01421 	lsrcs	r1, r1, #8
 c006d7c:	22822008 	addcs	r2, r2, #8
 c006d80:	e3510010 	cmp	r1, #16
 c006d84:	21a01221 	lsrcs	r1, r1, #4
 c006d88:	22822004 	addcs	r2, r2, #4
 c006d8c:	e3510004 	cmp	r1, #4
 c006d90:	82822003 	addhi	r2, r2, #3
 c006d94:	908220a1 	addls	r2, r2, r1, lsr #1
 c006d98:	e35c0000 	cmp	ip, #0
 c006d9c:	e1a00233 	lsr	r0, r3, r2
 c006da0:	42600000 	rsbmi	r0, r0, #0
 c006da4:	e12fff1e 	bx	lr
 c006da8:	e3500000 	cmp	r0, #0
 c006dac:	c3e00102 	mvngt	r0, #-2147483648	; 0x80000000
 c006db0:	b3a00102 	movlt	r0, #-2147483648	; 0x80000000
 c006db4:	ea000007 	b	c006dd8 <__aeabi_idiv0>

0c006db8 <__aeabi_idivmod>:
 c006db8:	e3510000 	cmp	r1, #0
 c006dbc:	0afffff9 	beq	c006da8 <.divsi3_skip_div0_test+0x110>
 c006dc0:	e92d4003 	push	{r0, r1, lr}
 c006dc4:	ebffffb3 	bl	c006c98 <.divsi3_skip_div0_test>
 c006dc8:	e8bd4006 	pop	{r1, r2, lr}
 c006dcc:	e0030092 	mul	r3, r2, r0
 c006dd0:	e0411003 	sub	r1, r1, r3
 c006dd4:	e12fff1e 	bx	lr

0c006dd8 <__aeabi_idiv0>:
 c006dd8:	e12fff1e 	bx	lr

0c006ddc <__aeabi_drsub>:
 c006ddc:	e2211102 	eor	r1, r1, #-2147483648	; 0x80000000
 c006de0:	ea000000 	b	c006de8 <__adddf3>

0c006de4 <__aeabi_dsub>:
 c006de4:	e2233102 	eor	r3, r3, #-2147483648	; 0x80000000

0c006de8 <__adddf3>:
 c006de8:	e92d4030 	push	{r4, r5, lr}
 c006dec:	e1a04081 	lsl	r4, r1, #1
 c006df0:	e1a05083 	lsl	r5, r3, #1
 c006df4:	e1340005 	teq	r4, r5
 c006df8:	01300002 	teqeq	r0, r2
 c006dfc:	1194c000 	orrsne	ip, r4, r0
 c006e00:	1195c002 	orrsne	ip, r5, r2
 c006e04:	11f0cac4 	mvnsne	ip, r4, asr #21
 c006e08:	11f0cac5 	mvnsne	ip, r5, asr #21
 c006e0c:	0a00008c 	beq	c007044 <__adddf3+0x25c>
 c006e10:	e1a04aa4 	lsr	r4, r4, #21
 c006e14:	e0745aa5 	rsbs	r5, r4, r5, lsr #21
 c006e18:	b2655000 	rsblt	r5, r5, #0
 c006e1c:	da000006 	ble	c006e3c <__adddf3+0x54>
 c006e20:	e0844005 	add	r4, r4, r5
 c006e24:	e0202002 	eor	r2, r0, r2
 c006e28:	e0213003 	eor	r3, r1, r3
 c006e2c:	e0220000 	eor	r0, r2, r0
 c006e30:	e0231001 	eor	r1, r3, r1
 c006e34:	e0202002 	eor	r2, r0, r2
 c006e38:	e0213003 	eor	r3, r1, r3
 c006e3c:	e3550036 	cmp	r5, #54	; 0x36
 c006e40:	88bd4030 	pophi	{r4, r5, lr}
 c006e44:	812fff1e 	bxhi	lr
 c006e48:	e3110102 	tst	r1, #-2147483648	; 0x80000000
 c006e4c:	e1a01601 	lsl	r1, r1, #12
 c006e50:	e3a0c601 	mov	ip, #1048576	; 0x100000
 c006e54:	e18c1621 	orr	r1, ip, r1, lsr #12
 c006e58:	0a000001 	beq	c006e64 <__adddf3+0x7c>
 c006e5c:	e2700000 	rsbs	r0, r0, #0
 c006e60:	e2e11000 	rsc	r1, r1, #0
 c006e64:	e3130102 	tst	r3, #-2147483648	; 0x80000000
 c006e68:	e1a03603 	lsl	r3, r3, #12
 c006e6c:	e18c3623 	orr	r3, ip, r3, lsr #12
 c006e70:	0a000001 	beq	c006e7c <__adddf3+0x94>
 c006e74:	e2722000 	rsbs	r2, r2, #0
 c006e78:	e2e33000 	rsc	r3, r3, #0
 c006e7c:	e1340005 	teq	r4, r5
 c006e80:	0a000069 	beq	c00702c <__adddf3+0x244>
 c006e84:	e2444001 	sub	r4, r4, #1
 c006e88:	e275e020 	rsbs	lr, r5, #32
 c006e8c:	ba000005 	blt	c006ea8 <__adddf3+0xc0>
 c006e90:	e1a0ce12 	lsl	ip, r2, lr
 c006e94:	e0900532 	adds	r0, r0, r2, lsr r5
 c006e98:	e2a11000 	adc	r1, r1, #0
 c006e9c:	e0900e13 	adds	r0, r0, r3, lsl lr
 c006ea0:	e0b11553 	adcs	r1, r1, r3, asr r5
 c006ea4:	ea000006 	b	c006ec4 <__adddf3+0xdc>
 c006ea8:	e2455020 	sub	r5, r5, #32
 c006eac:	e28ee020 	add	lr, lr, #32
 c006eb0:	e3520001 	cmp	r2, #1
 c006eb4:	e1a0ce13 	lsl	ip, r3, lr
 c006eb8:	238cc002 	orrcs	ip, ip, #2
 c006ebc:	e0900553 	adds	r0, r0, r3, asr r5
 c006ec0:	e0b11fc3 	adcs	r1, r1, r3, asr #31
 c006ec4:	e2015102 	and	r5, r1, #-2147483648	; 0x80000000
 c006ec8:	5a000002 	bpl	c006ed8 <__adddf3+0xf0>
 c006ecc:	e27cc000 	rsbs	ip, ip, #0
 c006ed0:	e2f00000 	rscs	r0, r0, #0
 c006ed4:	e2e11000 	rsc	r1, r1, #0
 c006ed8:	e3510601 	cmp	r1, #1048576	; 0x100000
 c006edc:	3a00000f 	bcc	c006f20 <__adddf3+0x138>
 c006ee0:	e3510602 	cmp	r1, #2097152	; 0x200000
 c006ee4:	3a000006 	bcc	c006f04 <__adddf3+0x11c>
 c006ee8:	e1b010a1 	lsrs	r1, r1, #1
 c006eec:	e1b00060 	rrxs	r0, r0
 c006ef0:	e1a0c06c 	rrx	ip, ip
 c006ef4:	e2844001 	add	r4, r4, #1
 c006ef8:	e1a02a84 	lsl	r2, r4, #21
 c006efc:	e3720501 	cmn	r2, #4194304	; 0x400000
 c006f00:	2a00006b 	bcs	c0070b4 <__adddf3+0x2cc>
 c006f04:	e35c0102 	cmp	ip, #-2147483648	; 0x80000000
 c006f08:	01b0c0a0 	lsrseq	ip, r0, #1
 c006f0c:	e2b00000 	adcs	r0, r0, #0
 c006f10:	e0a11a04 	adc	r1, r1, r4, lsl #20
 c006f14:	e1811005 	orr	r1, r1, r5
 c006f18:	e8bd4030 	pop	{r4, r5, lr}
 c006f1c:	e12fff1e 	bx	lr
 c006f20:	e1b0c08c 	lsls	ip, ip, #1
 c006f24:	e0b00000 	adcs	r0, r0, r0
 c006f28:	e0a11001 	adc	r1, r1, r1
 c006f2c:	e3110601 	tst	r1, #1048576	; 0x100000
 c006f30:	e2444001 	sub	r4, r4, #1
 c006f34:	1afffff2 	bne	c006f04 <__adddf3+0x11c>
 c006f38:	e3310000 	teq	r1, #0
 c006f3c:	13a03014 	movne	r3, #20
 c006f40:	03a03034 	moveq	r3, #52	; 0x34
 c006f44:	01a01000 	moveq	r1, r0
 c006f48:	03a00000 	moveq	r0, #0
 c006f4c:	e1a02001 	mov	r2, r1
 c006f50:	e3520801 	cmp	r2, #65536	; 0x10000
 c006f54:	21a02822 	lsrcs	r2, r2, #16
 c006f58:	22433010 	subcs	r3, r3, #16
 c006f5c:	e3520c01 	cmp	r2, #256	; 0x100
 c006f60:	21a02422 	lsrcs	r2, r2, #8
 c006f64:	22433008 	subcs	r3, r3, #8
 c006f68:	e3520010 	cmp	r2, #16
 c006f6c:	21a02222 	lsrcs	r2, r2, #4
 c006f70:	22433004 	subcs	r3, r3, #4
 c006f74:	e3520004 	cmp	r2, #4
 c006f78:	22433002 	subcs	r3, r3, #2
 c006f7c:	304330a2 	subcc	r3, r3, r2, lsr #1
 c006f80:	e04331a2 	sub	r3, r3, r2, lsr #3
 c006f84:	e2532020 	subs	r2, r3, #32
 c006f88:	aa000007 	bge	c006fac <__adddf3+0x1c4>
 c006f8c:	e292200c 	adds	r2, r2, #12
 c006f90:	da000004 	ble	c006fa8 <__adddf3+0x1c0>
 c006f94:	e282c014 	add	ip, r2, #20
 c006f98:	e262200c 	rsb	r2, r2, #12
 c006f9c:	e1a00c11 	lsl	r0, r1, ip
 c006fa0:	e1a01231 	lsr	r1, r1, r2
 c006fa4:	ea000004 	b	c006fbc <__adddf3+0x1d4>
 c006fa8:	e2822014 	add	r2, r2, #20
 c006fac:	d262c020 	rsble	ip, r2, #32
 c006fb0:	e1a01211 	lsl	r1, r1, r2
 c006fb4:	d1811c30 	orrle	r1, r1, r0, lsr ip
 c006fb8:	d1a00210 	lslle	r0, r0, r2
 c006fbc:	e0544003 	subs	r4, r4, r3
 c006fc0:	a0811a04 	addge	r1, r1, r4, lsl #20
 c006fc4:	a1811005 	orrge	r1, r1, r5
 c006fc8:	a8bd4030 	popge	{r4, r5, lr}
 c006fcc:	a12fff1e 	bxge	lr
 c006fd0:	e1e04004 	mvn	r4, r4
 c006fd4:	e254401f 	subs	r4, r4, #31
 c006fd8:	aa00000f 	bge	c00701c <__adddf3+0x234>
 c006fdc:	e294400c 	adds	r4, r4, #12
 c006fe0:	ca000006 	bgt	c007000 <__adddf3+0x218>
 c006fe4:	e2844014 	add	r4, r4, #20
 c006fe8:	e2642020 	rsb	r2, r4, #32
 c006fec:	e1a00430 	lsr	r0, r0, r4
 c006ff0:	e1800211 	orr	r0, r0, r1, lsl r2
 c006ff4:	e1851431 	orr	r1, r5, r1, lsr r4
 c006ff8:	e8bd4030 	pop	{r4, r5, lr}
 c006ffc:	e12fff1e 	bx	lr
 c007000:	e264400c 	rsb	r4, r4, #12
 c007004:	e2642020 	rsb	r2, r4, #32
 c007008:	e1a00230 	lsr	r0, r0, r2
 c00700c:	e1800411 	orr	r0, r0, r1, lsl r4
 c007010:	e1a01005 	mov	r1, r5
 c007014:	e8bd4030 	pop	{r4, r5, lr}
 c007018:	e12fff1e 	bx	lr
 c00701c:	e1a00431 	lsr	r0, r1, r4
 c007020:	e1a01005 	mov	r1, r5
 c007024:	e8bd4030 	pop	{r4, r5, lr}
 c007028:	e12fff1e 	bx	lr
 c00702c:	e3340000 	teq	r4, #0
 c007030:	e2233601 	eor	r3, r3, #1048576	; 0x100000
 c007034:	02211601 	eoreq	r1, r1, #1048576	; 0x100000
 c007038:	02844001 	addeq	r4, r4, #1
 c00703c:	12455001 	subne	r5, r5, #1
 c007040:	eaffff8f 	b	c006e84 <__adddf3+0x9c>
 c007044:	e1f0cac4 	mvns	ip, r4, asr #21
 c007048:	11f0cac5 	mvnsne	ip, r5, asr #21
 c00704c:	0a00001d 	beq	c0070c8 <__adddf3+0x2e0>
 c007050:	e1340005 	teq	r4, r5
 c007054:	01300002 	teqeq	r0, r2
 c007058:	0a000004 	beq	c007070 <__adddf3+0x288>
 c00705c:	e194c000 	orrs	ip, r4, r0
 c007060:	01a01003 	moveq	r1, r3
 c007064:	01a00002 	moveq	r0, r2
 c007068:	e8bd4030 	pop	{r4, r5, lr}
 c00706c:	e12fff1e 	bx	lr
 c007070:	e1310003 	teq	r1, r3
 c007074:	13a01000 	movne	r1, #0
 c007078:	13a00000 	movne	r0, #0
 c00707c:	18bd4030 	popne	{r4, r5, lr}
 c007080:	112fff1e 	bxne	lr
 c007084:	e1b0caa4 	lsrs	ip, r4, #21
 c007088:	1a000004 	bne	c0070a0 <__adddf3+0x2b8>
 c00708c:	e1b00080 	lsls	r0, r0, #1
 c007090:	e0b11001 	adcs	r1, r1, r1
 c007094:	23811102 	orrcs	r1, r1, #-2147483648	; 0x80000000
 c007098:	e8bd4030 	pop	{r4, r5, lr}
 c00709c:	e12fff1e 	bx	lr
 c0070a0:	e2944501 	adds	r4, r4, #4194304	; 0x400000
 c0070a4:	32811601 	addcc	r1, r1, #1048576	; 0x100000
 c0070a8:	38bd4030 	popcc	{r4, r5, lr}
 c0070ac:	312fff1e 	bxcc	lr
 c0070b0:	e2015102 	and	r5, r1, #-2147483648	; 0x80000000
 c0070b4:	e385147f 	orr	r1, r5, #2130706432	; 0x7f000000
 c0070b8:	e381160f 	orr	r1, r1, #15728640	; 0xf00000
 c0070bc:	e3a00000 	mov	r0, #0
 c0070c0:	e8bd4030 	pop	{r4, r5, lr}
 c0070c4:	e12fff1e 	bx	lr
 c0070c8:	e1f0cac4 	mvns	ip, r4, asr #21
 c0070cc:	11a01003 	movne	r1, r3
 c0070d0:	11a00002 	movne	r0, r2
 c0070d4:	01f0cac5 	mvnseq	ip, r5, asr #21
 c0070d8:	11a03001 	movne	r3, r1
 c0070dc:	11a02000 	movne	r2, r0
 c0070e0:	e1904601 	orrs	r4, r0, r1, lsl #12
 c0070e4:	01925603 	orrseq	r5, r2, r3, lsl #12
 c0070e8:	01310003 	teqeq	r1, r3
 c0070ec:	13811702 	orrne	r1, r1, #524288	; 0x80000
 c0070f0:	e8bd4030 	pop	{r4, r5, lr}
 c0070f4:	e12fff1e 	bx	lr

0c0070f8 <__aeabi_ui2d>:
 c0070f8:	e3300000 	teq	r0, #0
 c0070fc:	03a01000 	moveq	r1, #0
 c007100:	012fff1e 	bxeq	lr
 c007104:	e92d4030 	push	{r4, r5, lr}
 c007108:	e3a04b01 	mov	r4, #1024	; 0x400
 c00710c:	e2844032 	add	r4, r4, #50	; 0x32
 c007110:	e3a05000 	mov	r5, #0
 c007114:	e3a01000 	mov	r1, #0
 c007118:	eaffff86 	b	c006f38 <__adddf3+0x150>

0c00711c <__aeabi_i2d>:
 c00711c:	e3300000 	teq	r0, #0
 c007120:	03a01000 	moveq	r1, #0
 c007124:	012fff1e 	bxeq	lr
 c007128:	e92d4030 	push	{r4, r5, lr}
 c00712c:	e3a04b01 	mov	r4, #1024	; 0x400
 c007130:	e2844032 	add	r4, r4, #50	; 0x32
 c007134:	e2105102 	ands	r5, r0, #-2147483648	; 0x80000000
 c007138:	42600000 	rsbmi	r0, r0, #0
 c00713c:	e3a01000 	mov	r1, #0
 c007140:	eaffff7c 	b	c006f38 <__adddf3+0x150>

0c007144 <__aeabi_f2d>:
 c007144:	e1b02080 	lsls	r2, r0, #1
 c007148:	e1a011c2 	asr	r1, r2, #3
 c00714c:	e1a01061 	rrx	r1, r1
 c007150:	e1a00e02 	lsl	r0, r2, #28
 c007154:	121234ff 	andsne	r3, r2, #-16777216	; 0xff000000
 c007158:	133304ff 	teqne	r3, #-16777216	; 0xff000000
 c00715c:	1221130e 	eorne	r1, r1, #939524096	; 0x38000000
 c007160:	112fff1e 	bxne	lr
 c007164:	e3320000 	teq	r2, #0
 c007168:	133304ff 	teqne	r3, #-16777216	; 0xff000000
 c00716c:	012fff1e 	bxeq	lr
 c007170:	e92d4030 	push	{r4, r5, lr}
 c007174:	e3a04d0e 	mov	r4, #896	; 0x380
 c007178:	e2015102 	and	r5, r1, #-2147483648	; 0x80000000
 c00717c:	e3c11102 	bic	r1, r1, #-2147483648	; 0x80000000
 c007180:	eaffff6c 	b	c006f38 <__adddf3+0x150>

0c007184 <__aeabi_ul2d>:
 c007184:	e1902001 	orrs	r2, r0, r1
 c007188:	012fff1e 	bxeq	lr
 c00718c:	e92d4030 	push	{r4, r5, lr}
 c007190:	e3a05000 	mov	r5, #0
 c007194:	ea000006 	b	c0071b4 <__aeabi_l2d+0x1c>

0c007198 <__aeabi_l2d>:
 c007198:	e1902001 	orrs	r2, r0, r1
 c00719c:	012fff1e 	bxeq	lr
 c0071a0:	e92d4030 	push	{r4, r5, lr}
 c0071a4:	e2115102 	ands	r5, r1, #-2147483648	; 0x80000000
 c0071a8:	5a000001 	bpl	c0071b4 <__aeabi_l2d+0x1c>
 c0071ac:	e2700000 	rsbs	r0, r0, #0
 c0071b0:	e2e11000 	rsc	r1, r1, #0
 c0071b4:	e3a04b01 	mov	r4, #1024	; 0x400
 c0071b8:	e2844032 	add	r4, r4, #50	; 0x32
 c0071bc:	e1b0cb21 	lsrs	ip, r1, #22
 c0071c0:	0affff44 	beq	c006ed8 <__adddf3+0xf0>
 c0071c4:	e3a02003 	mov	r2, #3
 c0071c8:	e1b0c1ac 	lsrs	ip, ip, #3
 c0071cc:	12822003 	addne	r2, r2, #3
 c0071d0:	e1b0c1ac 	lsrs	ip, ip, #3
 c0071d4:	12822003 	addne	r2, r2, #3
 c0071d8:	e08221ac 	add	r2, r2, ip, lsr #3
 c0071dc:	e2623020 	rsb	r3, r2, #32
 c0071e0:	e1a0c310 	lsl	ip, r0, r3
 c0071e4:	e1a00230 	lsr	r0, r0, r2
 c0071e8:	e1800311 	orr	r0, r0, r1, lsl r3
 c0071ec:	e1a01231 	lsr	r1, r1, r2
 c0071f0:	e0844002 	add	r4, r4, r2
 c0071f4:	eaffff37 	b	c006ed8 <__adddf3+0xf0>

0c0071f8 <__aeabi_dmul>:
 c0071f8:	e92d4070 	push	{r4, r5, r6, lr}
 c0071fc:	e3a0c0ff 	mov	ip, #255	; 0xff
 c007200:	e38ccc07 	orr	ip, ip, #1792	; 0x700
 c007204:	e01c4a21 	ands	r4, ip, r1, lsr #20
 c007208:	101c5a23 	andsne	r5, ip, r3, lsr #20
 c00720c:	1134000c 	teqne	r4, ip
 c007210:	1135000c 	teqne	r5, ip
 c007214:	0b000075 	bleq	c0073f0 <__aeabi_dmul+0x1f8>
 c007218:	e0844005 	add	r4, r4, r5
 c00721c:	e0216003 	eor	r6, r1, r3
 c007220:	e1c11a8c 	bic	r1, r1, ip, lsl #21
 c007224:	e1c33a8c 	bic	r3, r3, ip, lsl #21
 c007228:	e1905601 	orrs	r5, r0, r1, lsl #12
 c00722c:	11925603 	orrsne	r5, r2, r3, lsl #12
 c007230:	e3811601 	orr	r1, r1, #1048576	; 0x100000
 c007234:	e3833601 	orr	r3, r3, #1048576	; 0x100000
 c007238:	0a00001d 	beq	c0072b4 <__aeabi_dmul+0xbc>
 c00723c:	e08ec290 	umull	ip, lr, r0, r2
 c007240:	e3a05000 	mov	r5, #0
 c007244:	e0a5e291 	umlal	lr, r5, r1, r2
 c007248:	e2062102 	and	r2, r6, #-2147483648	; 0x80000000
 c00724c:	e0a5e390 	umlal	lr, r5, r0, r3
 c007250:	e3a06000 	mov	r6, #0
 c007254:	e0a65391 	umlal	r5, r6, r1, r3
 c007258:	e33c0000 	teq	ip, #0
 c00725c:	138ee001 	orrne	lr, lr, #1
 c007260:	e24440ff 	sub	r4, r4, #255	; 0xff
 c007264:	e3560c02 	cmp	r6, #512	; 0x200
 c007268:	e2c44c03 	sbc	r4, r4, #768	; 0x300
 c00726c:	2a000002 	bcs	c00727c <__aeabi_dmul+0x84>
 c007270:	e1b0e08e 	lsls	lr, lr, #1
 c007274:	e0b55005 	adcs	r5, r5, r5
 c007278:	e0a66006 	adc	r6, r6, r6
 c00727c:	e1821586 	orr	r1, r2, r6, lsl #11
 c007280:	e1811aa5 	orr	r1, r1, r5, lsr #21
 c007284:	e1a00585 	lsl	r0, r5, #11
 c007288:	e1800aae 	orr	r0, r0, lr, lsr #21
 c00728c:	e1a0e58e 	lsl	lr, lr, #11
 c007290:	e254c0fd 	subs	ip, r4, #253	; 0xfd
 c007294:	835c0c07 	cmphi	ip, #1792	; 0x700
 c007298:	8a000011 	bhi	c0072e4 <__aeabi_dmul+0xec>
 c00729c:	e35e0102 	cmp	lr, #-2147483648	; 0x80000000
 c0072a0:	01b0e0a0 	lsrseq	lr, r0, #1
 c0072a4:	e2b00000 	adcs	r0, r0, #0
 c0072a8:	e0a11a04 	adc	r1, r1, r4, lsl #20
 c0072ac:	e8bd4070 	pop	{r4, r5, r6, lr}
 c0072b0:	e12fff1e 	bx	lr
 c0072b4:	e2066102 	and	r6, r6, #-2147483648	; 0x80000000
 c0072b8:	e1861001 	orr	r1, r6, r1
 c0072bc:	e1800002 	orr	r0, r0, r2
 c0072c0:	e0211003 	eor	r1, r1, r3
 c0072c4:	e05440ac 	subs	r4, r4, ip, lsr #1
 c0072c8:	c074500c 	rsbsgt	r5, r4, ip
 c0072cc:	c1811a04 	orrgt	r1, r1, r4, lsl #20
 c0072d0:	c8bd4070 	popgt	{r4, r5, r6, lr}
 c0072d4:	c12fff1e 	bxgt	lr
 c0072d8:	e3811601 	orr	r1, r1, #1048576	; 0x100000
 c0072dc:	e3a0e000 	mov	lr, #0
 c0072e0:	e2544001 	subs	r4, r4, #1
 c0072e4:	ca00005d 	bgt	c007460 <__aeabi_dmul+0x268>
 c0072e8:	e3740036 	cmn	r4, #54	; 0x36
 c0072ec:	d3a00000 	movle	r0, #0
 c0072f0:	d2011102 	andle	r1, r1, #-2147483648	; 0x80000000
 c0072f4:	d8bd4070 	pople	{r4, r5, r6, lr}
 c0072f8:	d12fff1e 	bxle	lr
 c0072fc:	e2644000 	rsb	r4, r4, #0
 c007300:	e2544020 	subs	r4, r4, #32
 c007304:	aa00001a 	bge	c007374 <__aeabi_dmul+0x17c>
 c007308:	e294400c 	adds	r4, r4, #12
 c00730c:	ca00000c 	bgt	c007344 <__aeabi_dmul+0x14c>
 c007310:	e2844014 	add	r4, r4, #20
 c007314:	e2645020 	rsb	r5, r4, #32
 c007318:	e1a03510 	lsl	r3, r0, r5
 c00731c:	e1a00430 	lsr	r0, r0, r4
 c007320:	e1800511 	orr	r0, r0, r1, lsl r5
 c007324:	e2012102 	and	r2, r1, #-2147483648	; 0x80000000
 c007328:	e3c11102 	bic	r1, r1, #-2147483648	; 0x80000000
 c00732c:	e0900fa3 	adds	r0, r0, r3, lsr #31
 c007330:	e0a21431 	adc	r1, r2, r1, lsr r4
 c007334:	e19ee083 	orrs	lr, lr, r3, lsl #1
 c007338:	01c00fa3 	biceq	r0, r0, r3, lsr #31
 c00733c:	e8bd4070 	pop	{r4, r5, r6, lr}
 c007340:	e12fff1e 	bx	lr
 c007344:	e264400c 	rsb	r4, r4, #12
 c007348:	e2645020 	rsb	r5, r4, #32
 c00734c:	e1a03410 	lsl	r3, r0, r4
 c007350:	e1a00530 	lsr	r0, r0, r5
 c007354:	e1800411 	orr	r0, r0, r1, lsl r4
 c007358:	e2011102 	and	r1, r1, #-2147483648	; 0x80000000
 c00735c:	e0900fa3 	adds	r0, r0, r3, lsr #31
 c007360:	e2a11000 	adc	r1, r1, #0
 c007364:	e19ee083 	orrs	lr, lr, r3, lsl #1
 c007368:	01c00fa3 	biceq	r0, r0, r3, lsr #31
 c00736c:	e8bd4070 	pop	{r4, r5, r6, lr}
 c007370:	e12fff1e 	bx	lr
 c007374:	e2645020 	rsb	r5, r4, #32
 c007378:	e18ee510 	orr	lr, lr, r0, lsl r5
 c00737c:	e1a03430 	lsr	r3, r0, r4
 c007380:	e1833511 	orr	r3, r3, r1, lsl r5
 c007384:	e1a00431 	lsr	r0, r1, r4
 c007388:	e2011102 	and	r1, r1, #-2147483648	; 0x80000000
 c00738c:	e1c00431 	bic	r0, r0, r1, lsr r4
 c007390:	e0800fa3 	add	r0, r0, r3, lsr #31
 c007394:	e19ee083 	orrs	lr, lr, r3, lsl #1
 c007398:	01c00fa3 	biceq	r0, r0, r3, lsr #31
 c00739c:	e8bd4070 	pop	{r4, r5, r6, lr}
 c0073a0:	e12fff1e 	bx	lr
 c0073a4:	e3340000 	teq	r4, #0
 c0073a8:	1a000008 	bne	c0073d0 <__aeabi_dmul+0x1d8>
 c0073ac:	e2016102 	and	r6, r1, #-2147483648	; 0x80000000
 c0073b0:	e1b00080 	lsls	r0, r0, #1
 c0073b4:	e0a11001 	adc	r1, r1, r1
 c0073b8:	e3110601 	tst	r1, #1048576	; 0x100000
 c0073bc:	02444001 	subeq	r4, r4, #1
 c0073c0:	0afffffa 	beq	c0073b0 <__aeabi_dmul+0x1b8>
 c0073c4:	e1811006 	orr	r1, r1, r6
 c0073c8:	e3350000 	teq	r5, #0
 c0073cc:	112fff1e 	bxne	lr
 c0073d0:	e2036102 	and	r6, r3, #-2147483648	; 0x80000000
 c0073d4:	e1b02082 	lsls	r2, r2, #1
 c0073d8:	e0a33003 	adc	r3, r3, r3
 c0073dc:	e3130601 	tst	r3, #1048576	; 0x100000
 c0073e0:	02455001 	subeq	r5, r5, #1
 c0073e4:	0afffffa 	beq	c0073d4 <__aeabi_dmul+0x1dc>
 c0073e8:	e1833006 	orr	r3, r3, r6
 c0073ec:	e12fff1e 	bx	lr
 c0073f0:	e134000c 	teq	r4, ip
 c0073f4:	e00c5a23 	and	r5, ip, r3, lsr #20
 c0073f8:	1135000c 	teqne	r5, ip
 c0073fc:	0a000007 	beq	c007420 <__aeabi_dmul+0x228>
 c007400:	e1906081 	orrs	r6, r0, r1, lsl #1
 c007404:	11926083 	orrsne	r6, r2, r3, lsl #1
 c007408:	1affffe5 	bne	c0073a4 <__aeabi_dmul+0x1ac>
 c00740c:	e0211003 	eor	r1, r1, r3
 c007410:	e2011102 	and	r1, r1, #-2147483648	; 0x80000000
 c007414:	e3a00000 	mov	r0, #0
 c007418:	e8bd4070 	pop	{r4, r5, r6, lr}
 c00741c:	e12fff1e 	bx	lr
 c007420:	e1906081 	orrs	r6, r0, r1, lsl #1
 c007424:	01a00002 	moveq	r0, r2
 c007428:	01a01003 	moveq	r1, r3
 c00742c:	11926083 	orrsne	r6, r2, r3, lsl #1
 c007430:	0a000010 	beq	c007478 <__aeabi_dmul+0x280>
 c007434:	e134000c 	teq	r4, ip
 c007438:	1a000001 	bne	c007444 <__aeabi_dmul+0x24c>
 c00743c:	e1906601 	orrs	r6, r0, r1, lsl #12
 c007440:	1a00000c 	bne	c007478 <__aeabi_dmul+0x280>
 c007444:	e135000c 	teq	r5, ip
 c007448:	1a000003 	bne	c00745c <__aeabi_dmul+0x264>
 c00744c:	e1926603 	orrs	r6, r2, r3, lsl #12
 c007450:	11a00002 	movne	r0, r2
 c007454:	11a01003 	movne	r1, r3
 c007458:	1a000006 	bne	c007478 <__aeabi_dmul+0x280>
 c00745c:	e0211003 	eor	r1, r1, r3
 c007460:	e2011102 	and	r1, r1, #-2147483648	; 0x80000000
 c007464:	e381147f 	orr	r1, r1, #2130706432	; 0x7f000000
 c007468:	e381160f 	orr	r1, r1, #15728640	; 0xf00000
 c00746c:	e3a00000 	mov	r0, #0
 c007470:	e8bd4070 	pop	{r4, r5, r6, lr}
 c007474:	e12fff1e 	bx	lr
 c007478:	e381147f 	orr	r1, r1, #2130706432	; 0x7f000000
 c00747c:	e381173e 	orr	r1, r1, #16252928	; 0xf80000
 c007480:	e8bd4070 	pop	{r4, r5, r6, lr}
 c007484:	e12fff1e 	bx	lr

0c007488 <__aeabi_ddiv>:
 c007488:	e92d4070 	push	{r4, r5, r6, lr}
 c00748c:	e3a0c0ff 	mov	ip, #255	; 0xff
 c007490:	e38ccc07 	orr	ip, ip, #1792	; 0x700
 c007494:	e01c4a21 	ands	r4, ip, r1, lsr #20
 c007498:	101c5a23 	andsne	r5, ip, r3, lsr #20
 c00749c:	1134000c 	teqne	r4, ip
 c0074a0:	1135000c 	teqne	r5, ip
 c0074a4:	0b00005e 	bleq	c007624 <__aeabi_ddiv+0x19c>
 c0074a8:	e0444005 	sub	r4, r4, r5
 c0074ac:	e021e003 	eor	lr, r1, r3
 c0074b0:	e1925603 	orrs	r5, r2, r3, lsl #12
 c0074b4:	e1a01601 	lsl	r1, r1, #12
 c0074b8:	0a00004c 	beq	c0075f0 <__aeabi_ddiv+0x168>
 c0074bc:	e1a03603 	lsl	r3, r3, #12
 c0074c0:	e3a05201 	mov	r5, #268435456	; 0x10000000
 c0074c4:	e1853223 	orr	r3, r5, r3, lsr #4
 c0074c8:	e1833c22 	orr	r3, r3, r2, lsr #24
 c0074cc:	e1a02402 	lsl	r2, r2, #8
 c0074d0:	e1855221 	orr	r5, r5, r1, lsr #4
 c0074d4:	e1855c20 	orr	r5, r5, r0, lsr #24
 c0074d8:	e1a06400 	lsl	r6, r0, #8
 c0074dc:	e20e1102 	and	r1, lr, #-2147483648	; 0x80000000
 c0074e0:	e1550003 	cmp	r5, r3
 c0074e4:	01560002 	cmpeq	r6, r2
 c0074e8:	e2a440fd 	adc	r4, r4, #253	; 0xfd
 c0074ec:	e2844c03 	add	r4, r4, #768	; 0x300
 c0074f0:	2a000001 	bcs	c0074fc <__aeabi_ddiv+0x74>
 c0074f4:	e1b030a3 	lsrs	r3, r3, #1
 c0074f8:	e1a02062 	rrx	r2, r2
 c0074fc:	e0566002 	subs	r6, r6, r2
 c007500:	e0c55003 	sbc	r5, r5, r3
 c007504:	e1b030a3 	lsrs	r3, r3, #1
 c007508:	e1a02062 	rrx	r2, r2
 c00750c:	e3a00601 	mov	r0, #1048576	; 0x100000
 c007510:	e3a0c702 	mov	ip, #524288	; 0x80000
 c007514:	e056e002 	subs	lr, r6, r2
 c007518:	e0d5e003 	sbcs	lr, r5, r3
 c00751c:	20466002 	subcs	r6, r6, r2
 c007520:	21a0500e 	movcs	r5, lr
 c007524:	2180000c 	orrcs	r0, r0, ip
 c007528:	e1b030a3 	lsrs	r3, r3, #1
 c00752c:	e1a02062 	rrx	r2, r2
 c007530:	e056e002 	subs	lr, r6, r2
 c007534:	e0d5e003 	sbcs	lr, r5, r3
 c007538:	20466002 	subcs	r6, r6, r2
 c00753c:	21a0500e 	movcs	r5, lr
 c007540:	218000ac 	orrcs	r0, r0, ip, lsr #1
 c007544:	e1b030a3 	lsrs	r3, r3, #1
 c007548:	e1a02062 	rrx	r2, r2
 c00754c:	e056e002 	subs	lr, r6, r2
 c007550:	e0d5e003 	sbcs	lr, r5, r3
 c007554:	20466002 	subcs	r6, r6, r2
 c007558:	21a0500e 	movcs	r5, lr
 c00755c:	2180012c 	orrcs	r0, r0, ip, lsr #2
 c007560:	e1b030a3 	lsrs	r3, r3, #1
 c007564:	e1a02062 	rrx	r2, r2
 c007568:	e056e002 	subs	lr, r6, r2
 c00756c:	e0d5e003 	sbcs	lr, r5, r3
 c007570:	20466002 	subcs	r6, r6, r2
 c007574:	21a0500e 	movcs	r5, lr
 c007578:	218001ac 	orrcs	r0, r0, ip, lsr #3
 c00757c:	e195e006 	orrs	lr, r5, r6
 c007580:	0a00000d 	beq	c0075bc <__aeabi_ddiv+0x134>
 c007584:	e1a05205 	lsl	r5, r5, #4
 c007588:	e1855e26 	orr	r5, r5, r6, lsr #28
 c00758c:	e1a06206 	lsl	r6, r6, #4
 c007590:	e1a03183 	lsl	r3, r3, #3
 c007594:	e1833ea2 	orr	r3, r3, r2, lsr #29
 c007598:	e1a02182 	lsl	r2, r2, #3
 c00759c:	e1b0c22c 	lsrs	ip, ip, #4
 c0075a0:	1affffdb 	bne	c007514 <__aeabi_ddiv+0x8c>
 c0075a4:	e3110601 	tst	r1, #1048576	; 0x100000
 c0075a8:	1a000006 	bne	c0075c8 <__aeabi_ddiv+0x140>
 c0075ac:	e1811000 	orr	r1, r1, r0
 c0075b0:	e3a00000 	mov	r0, #0
 c0075b4:	e3a0c102 	mov	ip, #-2147483648	; 0x80000000
 c0075b8:	eaffffd5 	b	c007514 <__aeabi_ddiv+0x8c>
 c0075bc:	e3110601 	tst	r1, #1048576	; 0x100000
 c0075c0:	01811000 	orreq	r1, r1, r0
 c0075c4:	03a00000 	moveq	r0, #0
 c0075c8:	e254c0fd 	subs	ip, r4, #253	; 0xfd
 c0075cc:	835c0c07 	cmphi	ip, #1792	; 0x700
 c0075d0:	8affff43 	bhi	c0072e4 <__aeabi_dmul+0xec>
 c0075d4:	e055c003 	subs	ip, r5, r3
 c0075d8:	0056c002 	subseq	ip, r6, r2
 c0075dc:	01b0c0a0 	lsrseq	ip, r0, #1
 c0075e0:	e2b00000 	adcs	r0, r0, #0
 c0075e4:	e0a11a04 	adc	r1, r1, r4, lsl #20
 c0075e8:	e8bd4070 	pop	{r4, r5, r6, lr}
 c0075ec:	e12fff1e 	bx	lr
 c0075f0:	e20ee102 	and	lr, lr, #-2147483648	; 0x80000000
 c0075f4:	e18e1621 	orr	r1, lr, r1, lsr #12
 c0075f8:	e09440ac 	adds	r4, r4, ip, lsr #1
 c0075fc:	c074500c 	rsbsgt	r5, r4, ip
 c007600:	c1811a04 	orrgt	r1, r1, r4, lsl #20
 c007604:	c8bd4070 	popgt	{r4, r5, r6, lr}
 c007608:	c12fff1e 	bxgt	lr
 c00760c:	e3811601 	orr	r1, r1, #1048576	; 0x100000
 c007610:	e3a0e000 	mov	lr, #0
 c007614:	e2544001 	subs	r4, r4, #1
 c007618:	eaffff31 	b	c0072e4 <__aeabi_dmul+0xec>
 c00761c:	e185e006 	orr	lr, r5, r6
 c007620:	eaffff2f 	b	c0072e4 <__aeabi_dmul+0xec>
 c007624:	e00c5a23 	and	r5, ip, r3, lsr #20
 c007628:	e134000c 	teq	r4, ip
 c00762c:	0135000c 	teqeq	r5, ip
 c007630:	0affff90 	beq	c007478 <__aeabi_dmul+0x280>
 c007634:	e134000c 	teq	r4, ip
 c007638:	1a000006 	bne	c007658 <__aeabi_ddiv+0x1d0>
 c00763c:	e1904601 	orrs	r4, r0, r1, lsl #12
 c007640:	1affff8c 	bne	c007478 <__aeabi_dmul+0x280>
 c007644:	e135000c 	teq	r5, ip
 c007648:	1affff83 	bne	c00745c <__aeabi_dmul+0x264>
 c00764c:	e1a00002 	mov	r0, r2
 c007650:	e1a01003 	mov	r1, r3
 c007654:	eaffff87 	b	c007478 <__aeabi_dmul+0x280>
 c007658:	e135000c 	teq	r5, ip
 c00765c:	1a000004 	bne	c007674 <__aeabi_ddiv+0x1ec>
 c007660:	e1925603 	orrs	r5, r2, r3, lsl #12
 c007664:	0affff68 	beq	c00740c <__aeabi_dmul+0x214>
 c007668:	e1a00002 	mov	r0, r2
 c00766c:	e1a01003 	mov	r1, r3
 c007670:	eaffff80 	b	c007478 <__aeabi_dmul+0x280>
 c007674:	e1906081 	orrs	r6, r0, r1, lsl #1
 c007678:	11926083 	orrsne	r6, r2, r3, lsl #1
 c00767c:	1affff48 	bne	c0073a4 <__aeabi_dmul+0x1ac>
 c007680:	e1904081 	orrs	r4, r0, r1, lsl #1
 c007684:	1affff74 	bne	c00745c <__aeabi_dmul+0x264>
 c007688:	e1925083 	orrs	r5, r2, r3, lsl #1
 c00768c:	1affff5e 	bne	c00740c <__aeabi_dmul+0x214>
 c007690:	eaffff78 	b	c007478 <__aeabi_dmul+0x280>

0c007694 <__aeabi_d2iz>:
 c007694:	e1a02081 	lsl	r2, r1, #1
 c007698:	e2922602 	adds	r2, r2, #2097152	; 0x200000
 c00769c:	2a00000c 	bcs	c0076d4 <__aeabi_d2iz+0x40>
 c0076a0:	5a000009 	bpl	c0076cc <__aeabi_d2iz+0x38>
 c0076a4:	e3e03e3e 	mvn	r3, #992	; 0x3e0
 c0076a8:	e0532ac2 	subs	r2, r3, r2, asr #21
 c0076ac:	9a00000a 	bls	c0076dc <__aeabi_d2iz+0x48>
 c0076b0:	e1a03581 	lsl	r3, r1, #11
 c0076b4:	e3833102 	orr	r3, r3, #-2147483648	; 0x80000000
 c0076b8:	e1833aa0 	orr	r3, r3, r0, lsr #21
 c0076bc:	e3110102 	tst	r1, #-2147483648	; 0x80000000
 c0076c0:	e1a00233 	lsr	r0, r3, r2
 c0076c4:	12600000 	rsbne	r0, r0, #0
 c0076c8:	e12fff1e 	bx	lr
 c0076cc:	e3a00000 	mov	r0, #0
 c0076d0:	e12fff1e 	bx	lr
 c0076d4:	e1900601 	orrs	r0, r0, r1, lsl #12
 c0076d8:	1a000002 	bne	c0076e8 <__aeabi_d2iz+0x54>
 c0076dc:	e2110102 	ands	r0, r1, #-2147483648	; 0x80000000
 c0076e0:	03e00102 	mvneq	r0, #-2147483648	; 0x80000000
 c0076e4:	e12fff1e 	bx	lr
 c0076e8:	e3a00000 	mov	r0, #0
 c0076ec:	e12fff1e 	bx	lr

0c0076f0 <strlen>:
 c0076f0:	e3c01003 	bic	r1, r0, #3
 c0076f4:	e2100003 	ands	r0, r0, #3
 c0076f8:	e2600000 	rsb	r0, r0, #0
 c0076fc:	e4913004 	ldr	r3, [r1], #4
 c007700:	e280c004 	add	ip, r0, #4
 c007704:	e1a0c18c 	lsl	ip, ip, #3
 c007708:	e3e02000 	mvn	r2, #0
 c00770c:	11833c32 	orrne	r3, r3, r2, lsr ip
 c007710:	e3a0c001 	mov	ip, #1
 c007714:	e18cc40c 	orr	ip, ip, ip, lsl #8
 c007718:	e18cc80c 	orr	ip, ip, ip, lsl #16
 c00771c:	e043200c 	sub	r2, r3, ip
 c007720:	e1c22003 	bic	r2, r2, r3
 c007724:	e012238c 	ands	r2, r2, ip, lsl #7
 c007728:	04913004 	ldreq	r3, [r1], #4
 c00772c:	02800004 	addeq	r0, r0, #4
 c007730:	0afffff9 	beq	c00771c <strlen+0x2c>
 c007734:	e31300ff 	tst	r3, #255	; 0xff
 c007738:	12800001 	addne	r0, r0, #1
 c00773c:	13130cff 	tstne	r3, #65280	; 0xff00
 c007740:	12800001 	addne	r0, r0, #1
 c007744:	131308ff 	tstne	r3, #16711680	; 0xff0000
 c007748:	12800001 	addne	r0, r0, #1
 c00774c:	e12fff1e 	bx	lr
